 CameraCalImageCapture_sfun

 Timestamp is 656531e4 (Mon Nov 27 19:18:44 2023)

 Preferred load address is 0000000180000000

 Start         Length     Name                   Class
 0001:00000000 00079c20H .text$mn                CODE
 0001:00079c20 00000020H .text$mn$00             CODE
 0001:00079c40 00000bb9H .text$x                 CODE
 0002:00000000 00000598H .idata$5                DATA
 0002:00000598 00000010H .00cfg                  DATA
 0002:000005a8 00000008H .CRT$XCA                DATA
 0002:000005b0 00000008H .CRT$XCZ                DATA
 0002:000005b8 00000008H .CRT$XIA                DATA
 0002:000005c0 00000008H .CRT$XIZ                DATA
 0002:000005c8 00000008H .CRT$XPA                DATA
 0002:000005d0 00000008H .CRT$XPZ                DATA
 0002:000005d8 00000008H .CRT$XTA                DATA
 0002:000005e0 00000010H .CRT$XTZ                DATA
 0002:000005e8 00000000H .gfids$y                DATA
 0002:000005f0 00004240H .rdata                  DATA
 0002:00004830 000040acH .rdata$r                DATA
 0002:000088dc 00000254H .rdata$zzzdbg           DATA
 0002:00008b30 00000008H .rtc$IAA                DATA
 0002:00008b38 00000008H .rtc$IZZ                DATA
 0002:00008b40 00000008H .rtc$TAA                DATA
 0002:00008b48 00000008H .rtc$TZZ                DATA
 0002:00008b50 00003640H .xdata                  DATA
 0002:0000c190 000000f0H .xdata$x                DATA
 0002:0000c280 00000418H .edata                  DATA
 0002:0000c698 00000154H .idata$2                DATA
 0002:0000c7ec 00000014H .idata$3                DATA
 0002:0000c800 00000598H .idata$4                DATA
 0002:0000cd98 00000f2eH .idata$6                DATA
 0003:00000000 0000c8d8H .data                   DATA
 0003:0000c8d8 000017a8H .data$r                 DATA
 0003:0000e080 00000c50H .bss                    DATA
 0004:00000000 00003dd4H .pdata                  DATA

  Address         Publics by Value              Rva+Base               Lib:Object

 0000:00000000       __hybrid_code_map          0000000000000000     <absolute>
 0000:00000000       __hybrid_auxiliary_iat     0000000000000000     <absolute>
 0000:00000000       __guard_fids_table         0000000000000000     <absolute>
 0000:00000000       __guard_iat_table          0000000000000000     <absolute>
 0000:00000000       __guard_fids_count         0000000000000000     <absolute>
 0000:00000000       __guard_iat_count          0000000000000000     <absolute>
 0000:00000000       __hybrid_code_map_count    0000000000000000     <absolute>
 0000:00000000       ___safe_se_handler_table   0000000000000000     <absolute>
 0000:00000000       __guard_longjmp_count      0000000000000000     <absolute>
 0000:00000000       __enclave_config           0000000000000000     <absolute>
 0000:00000000       __guard_longjmp_table      0000000000000000     <absolute>
 0000:00000000       ___safe_se_handler_count   0000000000000000     <absolute>
 0000:00000000       __dynamic_value_reloc_table 0000000000000000     <absolute>
 0000:00000000       __volatile_metadata        0000000000000000     <absolute>
 0000:00000100       __guard_flags              0000000000000100     <absolute>
 0000:00000000       __ImageBase                0000000180000000     <linker-defined>
 0001:00000000       CameraCalImageCapture_initializer 0000000180001000 f   CameraCalImageCapture_sfun.obj
 0001:00000010       CameraCalImageCapture_terminator 0000000180001010 f   CameraCalImageCapture_sfun.obj
 0001:00000020       load_CameraCalImageCapture_optimization_info 0000000180001020 f   CameraCalImageCapture_sfun.obj
 0001:000000d0       unload_CameraCalImageCapture_optimization_info 00000001800010d0 f   CameraCalImageCapture_sfun.obj
 0001:00000100       sf_CameraCalImageCapture_method_dispatcher 0000000180001100 f   CameraCalImageCapture_sfun.obj
 0001:00000150       sf_CameraCalImageCapture_process_check_sum_call 0000000180001150 f   CameraCalImageCapture_sfun.obj
 0001:00000640       sf_CameraCalImageCapture_get_eml_resolved_functions_info 0000000180001640 f   CameraCalImageCapture_sfun.obj
 0001:00000820       sf_CameraCalImageCapture_third_party_uses_info 0000000180001820 f   CameraCalImageCapture_sfun.obj
 0001:000009f0       sf_CameraCalImageCapture_jit_fallback_info 00000001800019f0 f   CameraCalImageCapture_sfun.obj
 0001:00000bc0       sf_CameraCalImageCapture_get_post_codegen_info 0000000180001bc0 f   CameraCalImageCapture_sfun.obj
 0001:00000da0       sf_CameraCalImageCapture_updateBuildInfo_args_info 0000000180001da0 f   CameraCalImageCapture_sfun.obj
 0001:00000f70       CameraCalImageCapture_register_exported_symbols 0000000180001f70 f   CameraCalImageCapture_sfun.obj
 0001:00000f80       sf_c2_CameraCalImageCapture_get_eml_resolved_functions_info 0000000180001f80 f   c2_CameraCalImageCapture.obj
 0001:00001000       sf_c2_CameraCalImageCapture_get_check_sum 0000000180002000 f   c2_CameraCalImageCapture.obj
 0001:000010d0       c2_CameraCalImageCapture_method_dispatcher 00000001800020d0 f   c2_CameraCalImageCapture.obj
 0001:0001ad00       sf_c2_CameraCalImageCapture_third_party_uses_info 000000018001bd00 f   c2_CameraCalImageCapture.obj
 0001:0001ada0       sf_c2_CameraCalImageCapture_jit_fallback_info 000000018001bda0 f   c2_CameraCalImageCapture.obj
 0001:0001af30       sf_c2_CameraCalImageCapture_updateBuildInfo_args_info 000000018001bf30 f   c2_CameraCalImageCapture.obj
 0001:0001b2d0       sf_c2_CameraCalImageCapture_get_post_codegen_info 000000018001c2d0 f   c2_CameraCalImageCapture.obj
 0001:0001b7f0       mexFunction                000000018001c7f0 f   CameraCalImageCapture_sfun_registry.obj
 0001:0001e0c0       _ssSetInputPortDirectFeedThroughFcn 000000018001f0c0 f   CameraCalImageCapture_sfun_registry.obj
 0001:0001e230       _ssSetRWorkValueFcn        000000018001f230 f   CameraCalImageCapture_sfun_registry.obj
 0001:0001e2b0       _ssGetRWorkValueFcn        000000018001f2b0 f   CameraCalImageCapture_sfun_registry.obj
 0001:0001e320       _ssSetIWorkValueFcn        000000018001f320 f   CameraCalImageCapture_sfun_registry.obj
 0001:0001e3a0       _ssGetIWorkValueFcn        000000018001f3a0 f   CameraCalImageCapture_sfun_registry.obj
 0001:0001e410       _ssSetPWorkValueFcn        000000018001f410 f   CameraCalImageCapture_sfun_registry.obj
 0001:0001e490       _ssGetPWorkValueFcn        000000018001f490 f   CameraCalImageCapture_sfun_registry.obj
 0001:0001e500       _ssGetInputPortSignalFcn   000000018001f500 f   CameraCalImageCapture_sfun_registry.obj
 0001:0001e890       _ssGetInputPortBufferDstPortFcn 000000018001f890 f   CameraCalImageCapture_sfun_registry.obj
 0001:0001e910       _ssGetInputPortSignalPtrsFcn 000000018001f910 f   CameraCalImageCapture_sfun_registry.obj
 0001:0001eca0       ssGetParameterTuningCompliance 000000018001fca0 f   CameraCalImageCapture_sfun_registry.obj
 0001:0001ed10       _ssReadInputStringFcn      000000018001fd10 f   CameraCalImageCapture_sfun_registry.obj
 0001:0001ed80       ssGetDTypeIdFromMxArray    000000018001fd80 f   CameraCalImageCapture_sfun_registry.obj
 0001:0001eea0       ssWriteRTWMx2dMatParam     000000018001fea0 f   CameraCalImageCapture_sfun_registry.obj
 0001:0001ef30       ssWriteRTWMxVectParam      000000018001ff30 f   CameraCalImageCapture_sfun_registry.obj
 0001:0001efb0       ssWriteRTWParameters       000000018001ffb0 f   CameraCalImageCapture_sfun_registry.obj
 0001:0001f570       ssWriteRTWParamSettings    0000000180020570 f   CameraCalImageCapture_sfun_registry.obj
 0001:0001fc60       ssWriteRTWStr              0000000180020c60 f   CameraCalImageCapture_sfun_registry.obj
 0001:0001fcc0       ssWriteRTWWorkVect         0000000180020cc0 f   CameraCalImageCapture_sfun_registry.obj
 0001:00020220       ssWarning                  0000000180021220 f   CameraCalImageCapture_sfun_registry.obj
 0001:00020310       ssWriteRTWNameValuePair    0000000180021310 f   CameraCalImageCapture_sfun_registry.obj
 0001:00020810       _ssSetInputPortMatrixDimensions 0000000180021810 f   CameraCalImageCapture_sfun_registry.obj
 0001:00020960       _ssSetOutputPortMatrixDimensions 0000000180021960 f   CameraCalImageCapture_sfun_registry.obj
 0001:00020ab0       _ssSetInputPortVectorDimension 0000000180021ab0 f   CameraCalImageCapture_sfun_registry.obj
 0001:00020b60       _ssSetOutputPortVectorDimension 0000000180021b60 f   CameraCalImageCapture_sfun_registry.obj
 0001:00020c10       ssIsRunTimeParamTunable    0000000180021c10 f   CameraCalImageCapture_sfun_registry.obj
 0001:00020c80       ssGetSFuncBlockHandle      0000000180021c80 f   CameraCalImageCapture_sfun_registry.obj
 0001:00020cf0       _ssGetCallSystemNumFcnCallDestinations 0000000180021cf0 f   CameraCalImageCapture_sfun_registry.obj
 0001:00020d60       _ssGetCurrentInputPortWidth 0000000180021d60 f   CameraCalImageCapture_sfun_registry.obj
 0001:00020ea0       _ssGetCurrentOutputPortWidth 0000000180021ea0 f   CameraCalImageCapture_sfun_registry.obj
 0001:00020fe0       ssGetIsZeroCrossControlDisabled 0000000180021fe0 f   CameraCalImageCapture_sfun_registry.obj
 0001:00021050       ssSetIsInputPortUsedForContZcSignal 0000000180022050 f   CameraCalImageCapture_sfun_registry.obj
 0001:000210c0       ssSetZcSignalIsZcElementDisc 00000001800220c0 f   CameraCalImageCapture_sfun_registry.obj
 0001:00021170       ssSetZcSignalName          0000000180022170 f   CameraCalImageCapture_sfun_registry.obj
 0001:000211e0       ssSetZcSignalWidth         00000001800221e0 f   CameraCalImageCapture_sfun_registry.obj
 0001:00021250       ssSetZcSignalZcEventType   0000000180022250 f   CameraCalImageCapture_sfun_registry.obj
 0001:000212c0       ssSetZcSignalType          00000001800222c0 f   CameraCalImageCapture_sfun_registry.obj
 0001:00021330       ssSetZcSignalZcTol         0000000180022330 f   CameraCalImageCapture_sfun_registry.obj
 0001:000213a0       ssSetZcSignalNeedsEventNotification 00000001800223a0 f   CameraCalImageCapture_sfun_registry.obj
 0001:00021410       ssCreateAndAddZcSignalInfo 0000000180022410 f   CameraCalImageCapture_sfun_registry.obj
 0001:00021480       ssCloneAndAddZcSignalInfo  0000000180022480 f   CameraCalImageCapture_sfun_registry.obj
 0001:000214f0       ssGetNumZcSignals          00000001800224f0 f   CameraCalImageCapture_sfun_registry.obj
 0001:00021560       ssGetZcSignalVector        0000000180022560 f   CameraCalImageCapture_sfun_registry.obj
 0001:000215d0       ssGetZcSignalName          00000001800225d0 f   CameraCalImageCapture_sfun_registry.obj
 0001:00021640       ssGetZcSignalWidth         0000000180022640 f   CameraCalImageCapture_sfun_registry.obj
 0001:000216b0       ssGetZcSignalZcEventType   00000001800226b0 f   CameraCalImageCapture_sfun_registry.obj
 0001:00021720       ssGetZcSignalZcEvents      0000000180022720 f   CameraCalImageCapture_sfun_registry.obj
 0001:00021790       ssGetZcSignalType          0000000180022790 f   CameraCalImageCapture_sfun_registry.obj
 0001:00021800       ssGetZcSignalZcTol         0000000180022800 f   CameraCalImageCapture_sfun_registry.obj
 0001:00021880       ssGetZcSignalNeedsEventNotification 0000000180022880 f   CameraCalImageCapture_sfun_registry.obj
 0001:000218f0       ssGetZcSignalIsZcElementDisc 00000001800228f0 f   CameraCalImageCapture_sfun_registry.obj
 0001:00021990       ssGetIsInputPortElementContinuous 0000000180022990 f   CameraCalImageCapture_sfun_registry.obj
 0001:00021a30       _ssGetAbsTol               0000000180022a30 f   CameraCalImageCapture_sfun_registry.obj
 0001:00021aa0       _ssSetStateAbsTol          0000000180022aa0 f   CameraCalImageCapture_sfun_registry.obj
 0001:00021b80       _ssSetInputPortReusableFcn 0000000180022b80 f   CameraCalImageCapture_sfun_registry.obj
 0001:00021c80       _ssSetOutputPortReusableFcn 0000000180022c80 f   CameraCalImageCapture_sfun_registry.obj
 0001:00021d80       _ssSetSymbolicDimsSupport  0000000180022d80 f   CameraCalImageCapture_sfun_registry.obj
 0001:00021df0       _ssRegisterSymbolicDimsExpr 0000000180022df0 f   CameraCalImageCapture_sfun_registry.obj
 0001:00021e70       _ssRegisterSymbolicDimsMATLABExpr 0000000180022e70 f   CameraCalImageCapture_sfun_registry.obj
 0001:00021f10       _ssRegisterSymbolicDims    0000000180022f10 f   CameraCalImageCapture_sfun_registry.obj
 0001:00021fb0       _ssRegisterSymbolicDimsString 0000000180022fb0 f   CameraCalImageCapture_sfun_registry.obj
 0001:00022030       _ssRegisterSymbolicDimsIntValue 0000000180023030 f   CameraCalImageCapture_sfun_registry.obj
 0001:000220a0       _ssRegisterSymbolicEqualRelation 00000001800230a0 f   CameraCalImageCapture_sfun_registry.obj
 0001:00022110       _ssRegisterSymbolicEqualValue 0000000180023110 f   CameraCalImageCapture_sfun_registry.obj
 0001:00022180       _ssAmendLeadingSymbolicDims 0000000180023180 f   CameraCalImageCapture_sfun_registry.obj
 0001:00022200       _ssAmendTrailingSymbolicDims 0000000180023200 f   CameraCalImageCapture_sfun_registry.obj
 0001:00022280       _ssRegisterSymbolicDimsPlus 0000000180023280 f   CameraCalImageCapture_sfun_registry.obj
 0001:00022300       _ssRegisterSymbolicDimsMinus 0000000180023300 f   CameraCalImageCapture_sfun_registry.obj
 0001:00022380       _ssRegisterSymbolicDimsMultiply 0000000180023380 f   CameraCalImageCapture_sfun_registry.obj
 0001:00022400       _ssRegisterSymbolicDimsDivide 0000000180023400 f   CameraCalImageCapture_sfun_registry.obj
 0001:00022480       _ssGetNumSymbolicDims      0000000180023480 f   CameraCalImageCapture_sfun_registry.obj
 0001:000224f0       _ssGetSymbolicDim          00000001800234f0 f   CameraCalImageCapture_sfun_registry.obj
 0001:00022570       _ssSetInputPortSymbolicDimsId 0000000180023570 f   CameraCalImageCapture_sfun_registry.obj
 0001:000225e0       _ssGetCompInputPortSymbolicDimsId 00000001800235e0 f   CameraCalImageCapture_sfun_registry.obj
 0001:00022650       _ssSetCompInputPortSymbolicDimsId 0000000180023650 f   CameraCalImageCapture_sfun_registry.obj
 0001:000226c0       _ssSetOutputPortSymbolicDimsId 00000001800236c0 f   CameraCalImageCapture_sfun_registry.obj
 0001:00022730       _ssGetCompOutputPortSymbolicDimsId 0000000180023730 f   CameraCalImageCapture_sfun_registry.obj
 0001:000227a0       _ssSetCompOutputPortSymbolicDimsId 00000001800237a0 f   CameraCalImageCapture_sfun_registry.obj
 0001:00022810       _ssGetDWorkSymbolicDimsId  0000000180023810 f   CameraCalImageCapture_sfun_registry.obj
 0001:00022880       _ssSetDWorkSymbolicDimsId  0000000180023880 f   CameraCalImageCapture_sfun_registry.obj
 0001:000228f0       _ssGetCompDWorkSymbolicDimsId 00000001800238f0 f   CameraCalImageCapture_sfun_registry.obj
 0001:00022960       _ssSetCompDWorkSymbolicDimsId 0000000180023960 f   CameraCalImageCapture_sfun_registry.obj
 0001:000229d0       _ssCreateSLCGStringBuffer  00000001800239d0 f   CameraCalImageCapture_sfun_registry.obj
 0001:00022a40       _ssAddToSLCGStringBuffer   0000000180023a40 f   CameraCalImageCapture_sfun_registry.obj
 0001:00022ab0       _ssGetPointerContainedData 0000000180023ab0 f   CameraCalImageCapture_sfun_registry.obj
 0001:00022b40       _ssGetPointerContainedDataWidth 0000000180023b40 f   CameraCalImageCapture_sfun_registry.obj
 0001:00022bd0       _ssRegisterDynamicArrayDataTypeFcn 0000000180023bd0 f   CameraCalImageCapture_sfun_registry.obj
 0001:00022c70       _ssGetDynamicArrayContainedDataCurrentWidthFcn 0000000180023c70 f   CameraCalImageCapture_sfun_registry.obj
 0001:00022d40       _ssGetDynamicArrayContainedDataFcn 0000000180023d40 f   CameraCalImageCapture_sfun_registry.obj
 0001:00022e10       _ssGetInputPortDynamicArrayDataFcn 0000000180023e10 f   CameraCalImageCapture_sfun_registry.obj
 0001:00022ed0       _ssGetOutputPortDynamicArrayDataFcn 0000000180023ed0 f   CameraCalImageCapture_sfun_registry.obj
 0001:00022f90       _ssGetInputPortDynamicArrayContainedDataFcn 0000000180023f90 f   CameraCalImageCapture_sfun_registry.obj
 0001:00023050       _ssGetOutputPortDynamicArrayContainedDataFcn 0000000180024050 f   CameraCalImageCapture_sfun_registry.obj
 0001:00023110       sf_process_check_sum_call  0000000180024110 f   CameraCalImageCapture_sfun_registry.obj
 0001:00023160       sf_process_get_third_party_uses_info_call 0000000180024160 f   CameraCalImageCapture_sfun_registry.obj
 0001:00023390       sf_process_get_jit_fallback_info_call 0000000180024390 f   CameraCalImageCapture_sfun_registry.obj
 0001:000235c0       sf_process_get_post_codegen_info_call 00000001800245c0 f   CameraCalImageCapture_sfun_registry.obj
 0001:000237f0       sf_process_get_updateBuildInfo_args_info_call 00000001800247f0 f   CameraCalImageCapture_sfun_registry.obj
 0001:00023a20       sf_process_get_eml_resolved_functions_info_call 0000000180024a20 f   CameraCalImageCapture_sfun_registry.obj
 0001:00023c50       sf_mex_unlock_call         0000000180024c50 f   CameraCalImageCapture_sfun_registry.obj
 0001:00023e70       sf_machine_global_initializer_called 0000000180024e70 f   CameraCalImageCapture_sfun_registry.obj
 0001:00023ea0       sf_machine_global_method_dispatcher 0000000180024ea0 f   CameraCalImageCapture_sfun_registry.obj
 0001:00023f00       sf_machine_global_terminator 0000000180024f00 f   CameraCalImageCapture_sfun_registry.obj
 0001:00023f30       sf_register_machine_exported_symbols 0000000180024f30 f   CameraCalImageCapture_sfun_registry.obj
 0001:00023f50       callCustomFcn              0000000180024f50 f   CameraCalImageCapture_sfun_registry.obj
 0001:00023f60       sf_machine_global_initializer 0000000180024f60 f   CameraCalImageCapture_sfun_registry.obj
 0001:00023fd0       mdlGetSimState             0000000180024fd0 f   CameraCalImageCapture_sfun_registry.obj
 0001:00024010       mdlSetSimState             0000000180025010 f   CameraCalImageCapture_sfun_registry.obj
 0001:00024980       ProcessMexSfunctionEveryCall 0000000180025980 f   CameraCalImageCapture_sfun_registry.obj
 0001:00025b00       __local_stdio_printf_options 0000000180026b00 f i CameraCalImageCapture_sfun_registry.obj
 0001:00025b10       _vsnprintf_l               0000000180026b10 f i CameraCalImageCapture_sfun_registry.obj
 0001:00025b90       _vsprintf_l                0000000180026b90 f i CameraCalImageCapture_sfun_registry.obj
 0001:00025be0       sprintf                    0000000180026be0 f i CameraCalImageCapture_sfun_registry.obj
 0001:00025c30       mexfilerequiredapiversion  0000000180026c30 f   c_mexapi_version.obj
 0001:00025c60       constructDrawBaseObjectShape 0000000180026c60 f   insertShapeUtilsCore.obj
 0001:00025ca0       getPositionDataPointer     0000000180026ca0 f   insertShapeUtilsCore.obj
 0001:00025d40       deletePositionDataPointer  0000000180026d40 f   insertShapeUtilsCore.obj
 0001:00025d80       getPtsDWPointer            0000000180026d80 f   insertShapeUtilsCore.obj
 0001:00025e10       deletePtsDWPointer         0000000180026e10 f   insertShapeUtilsCore.obj
 0001:00025e30       allocatePolygonEdgePointer 0000000180026e30 f   insertShapeUtilsCore.obj
 0001:00025f30       deallocatePolygonEdgePointer 0000000180026f30 f   insertShapeUtilsCore.obj
 0001:00025f60       getColorDataPointer_single 0000000180026f60 f   insertShapeUtilsCore.obj
 0001:00026000       deleteColorDataPointer_single 0000000180027000 f   insertShapeUtilsCore.obj
 0001:00026040       getColorDataPointer_double 0000000180027040 f   insertShapeUtilsCore.obj
 0001:000260e0       deleteColorDataPointer_double 00000001800270e0 f   insertShapeUtilsCore.obj
 0001:00026120       getColorDataPointer_uint8  0000000180027120 f   insertShapeUtilsCore.obj
 0001:000261a0       deleteColorDataPointer_uint8 00000001800271a0 f   insertShapeUtilsCore.obj
 0001:000261e0       getColorDataPointer_uint16 00000001800271e0 f   insertShapeUtilsCore.obj
 0001:00026280       deleteColorDataPointer_uint16 0000000180027280 f   insertShapeUtilsCore.obj
 0001:000262c0       getColorDataPointer_int16  00000001800272c0 f   insertShapeUtilsCore.obj
 0001:00026360       deleteColorDataPointer_int16 0000000180027360 f   insertShapeUtilsCore.obj
 0001:000263a0       initialiseDrawbaseShape    00000001800273a0 f   insertShapeUtilsCore.obj
 0001:00026400       instantiateDrawBaseShape_single 0000000180027400 f   insertShapeUtilsCore.obj
 0001:000265f0       instantiateDrawBaseShape_double 00000001800275f0 f   insertShapeUtilsCore.obj
 0001:000267e0       instantiateDrawBaseShape_uint8 00000001800277e0 f   insertShapeUtilsCore.obj
 0001:000269d0       instantiateDrawBaseShape_uint16 00000001800279d0 f   insertShapeUtilsCore.obj
 0001:00026bc0       instantiateDrawBaseShape_int16 0000000180027bc0 f   insertShapeUtilsCore.obj
 0001:00026db0       mDrawShapes                0000000180027db0 f   insertShapeUtilsCore.obj
 0001:00026e20       deallocateMemoryShape      0000000180027e20 f   insertShapeUtilsCore.obj
 0001:00026f20       ??$CheckAndGetNumShape@H@@YAEHHPEBHPEAH1@Z 0000000180027f20 f i insertShapeUtilsCore.obj
 0001:00027050       ??$CheckDataDimen@H@@YAEHPEBHHAEAH@Z 0000000180028050 f i insertShapeUtilsCore.obj
 0001:000270e0       ??$CheckDataDimenEven@H@@YAEHPEBHHAEAH1@Z 00000001800280e0 f i insertShapeUtilsCore.obj
 0001:000271a0       ??$FindLineInViewPort@HH@@YAEPEBH0PEAH@Z 00000001800281a0 f i insertShapeUtilsCore.obj
 0001:000280a0       ??$FindVisibleArea@HH@?$DrawCommon@EEHHMMEE@@IEAAXPEBHPEAH@Z 00000001800290a0 f i insertShapeUtilsCore.obj
 0001:00028210       ??$FindVisibleArea@HH@?$DrawCommon@EEHHMMEH@@IEAAXPEBHPEAH@Z 0000000180029210 f i insertShapeUtilsCore.obj
 0001:00028380       ??$FindVisibleArea@HH@?$DrawCommon@FFHHMMEE@@IEAAXPEBHPEAH@Z 0000000180029380 f i insertShapeUtilsCore.obj
 0001:000284f0       ??$FindVisibleArea@HH@?$DrawCommon@FFHHMMEH@@IEAAXPEBHPEAH@Z 00000001800294f0 f i insertShapeUtilsCore.obj
 0001:00028660       ??$FindVisibleArea@HH@?$DrawCommon@GGHHMMEE@@IEAAXPEBHPEAH@Z 0000000180029660 f i insertShapeUtilsCore.obj
 0001:000287d0       ??$FindVisibleArea@HH@?$DrawCommon@GGHHMMEH@@IEAAXPEBHPEAH@Z 00000001800297d0 f i insertShapeUtilsCore.obj
 0001:00028940       ??$FindVisibleArea@HH@?$DrawCommon@MMHHMMEE@@IEAAXPEBHPEAH@Z 0000000180029940 f i insertShapeUtilsCore.obj
 0001:00028ab0       ??$FindVisibleArea@HH@?$DrawCommon@MMHHMMEH@@IEAAXPEBHPEAH@Z 0000000180029ab0 f i insertShapeUtilsCore.obj
 0001:00028c20       ??$FindVisibleArea@HH@?$DrawCommon@NNHHNNEE@@IEAAXPEBHPEAH@Z 0000000180029c20 f i insertShapeUtilsCore.obj
 0001:00028d90       ??$FindVisibleArea@HH@?$DrawCommon@NNHHNNEH@@IEAAXPEBHPEAH@Z 0000000180029d90 f i insertShapeUtilsCore.obj
 0001:00028f00       ??$FindVisibleAreaKeepCoordinate@HH@?$DrawCommon@EEHHMMEH@@IEAAXPEBHPEAH@Z 0000000180029f00 f i insertShapeUtilsCore.obj
 0001:00029070       ??$FindVisibleAreaKeepCoordinate@HH@?$DrawCommon@FFHHMMEH@@IEAAXPEBHPEAH@Z 000000018002a070 f i insertShapeUtilsCore.obj
 0001:000291e0       ??$FindVisibleAreaKeepCoordinate@HH@?$DrawCommon@GGHHMMEH@@IEAAXPEBHPEAH@Z 000000018002a1e0 f i insertShapeUtilsCore.obj
 0001:00029350       ??$FindVisibleAreaKeepCoordinate@HH@?$DrawCommon@MMHHMMEH@@IEAAXPEBHPEAH@Z 000000018002a350 f i insertShapeUtilsCore.obj
 0001:000294c0       ??$FindVisibleAreaKeepCoordinate@HH@?$DrawCommon@NNHHNNEH@@IEAAXPEBHPEAH@Z 000000018002a4c0 f i insertShapeUtilsCore.obj
 0001:00029630       ??$InstantiateShape@EEHHMM@@YAPEAVDrawBase@@PEAEPEAH0PEAM1HEHHHH1HEE011@Z 000000018002a630 f i insertShapeUtilsCore.obj
 0001:0002ade0       ??$InstantiateShape@FFHHMM@@YAPEAVDrawBase@@PEAFPEAH0PEAM1HEHHHH1HEEPEAE11@Z 000000018002bde0 f i insertShapeUtilsCore.obj
 0001:0002c590       ??$InstantiateShape@GGHHMM@@YAPEAVDrawBase@@PEAGPEAH0PEAM1HEHHHH1HEEPEAE11@Z 000000018002d590 f i insertShapeUtilsCore.obj
 0001:0002dd40       ??$InstantiateShape@MMHHMM@@YAPEAVDrawBase@@PEAMPEAH001HEHHHH1HEEPEAE11@Z 000000018002ed40 f i insertShapeUtilsCore.obj
 0001:0002f4f0       ??$InstantiateShape@NNHHNN@@YAPEAVDrawBase@@PEANPEAH001HEHHHH1HEEPEAE11@Z 00000001800304f0 f i insertShapeUtilsCore.obj
 0001:00030ca0       ??$Max@H@?$DrawCommon@EEHHMMEE@@AEAAHHH@Z 0000000180031ca0 f i insertShapeUtilsCore.obj
 0001:00030ce0       ??$Max@H@?$DrawCommon@EEHHMMEH@@AEAAHHH@Z 0000000180031ce0 f i insertShapeUtilsCore.obj
 0001:00030d20       ??$Max@H@?$DrawCommon@FFHHMMEE@@AEAAHHH@Z 0000000180031d20 f i insertShapeUtilsCore.obj
 0001:00030d60       ??$Max@H@?$DrawCommon@FFHHMMEH@@AEAAHHH@Z 0000000180031d60 f i insertShapeUtilsCore.obj
 0001:00030da0       ??$Max@H@?$DrawCommon@GGHHMMEE@@AEAAHHH@Z 0000000180031da0 f i insertShapeUtilsCore.obj
 0001:00030de0       ??$Max@H@?$DrawCommon@GGHHMMEH@@AEAAHHH@Z 0000000180031de0 f i insertShapeUtilsCore.obj
 0001:00030e20       ??$Max@H@?$DrawCommon@MMHHMMEE@@AEAAHHH@Z 0000000180031e20 f i insertShapeUtilsCore.obj
 0001:00030e60       ??$Max@H@?$DrawCommon@MMHHMMEH@@AEAAHHH@Z 0000000180031e60 f i insertShapeUtilsCore.obj
 0001:00030ea0       ??$Max@H@?$DrawCommon@NNHHNNEE@@AEAAHHH@Z 0000000180031ea0 f i insertShapeUtilsCore.obj
 0001:00030ee0       ??$Max@H@?$DrawCommon@NNHHNNEH@@AEAAHHH@Z 0000000180031ee0 f i insertShapeUtilsCore.obj
 0001:00030f20       ??$Min@H@?$DrawCommon@EEHHMMEE@@AEAAHHH@Z 0000000180031f20 f i insertShapeUtilsCore.obj
 0001:00030f60       ??$Min@H@?$DrawCommon@EEHHMMEH@@AEAAHHH@Z 0000000180031f60 f i insertShapeUtilsCore.obj
 0001:00030fa0       ??$Min@H@?$DrawCommon@FFHHMMEE@@AEAAHHH@Z 0000000180031fa0 f i insertShapeUtilsCore.obj
 0001:00030fe0       ??$Min@H@?$DrawCommon@FFHHMMEH@@AEAAHHH@Z 0000000180031fe0 f i insertShapeUtilsCore.obj
 0001:00031020       ??$Min@H@?$DrawCommon@GGHHMMEE@@AEAAHHH@Z 0000000180032020 f i insertShapeUtilsCore.obj
 0001:00031060       ??$Min@H@?$DrawCommon@GGHHMMEH@@AEAAHHH@Z 0000000180032060 f i insertShapeUtilsCore.obj
 0001:000310a0       ??$Min@H@?$DrawCommon@MMHHMMEE@@AEAAHHH@Z 00000001800320a0 f i insertShapeUtilsCore.obj
 0001:000310e0       ??$Min@H@?$DrawCommon@MMHHMMEH@@AEAAHHH@Z 00000001800320e0 f i insertShapeUtilsCore.obj
 0001:00031120       ??$Min@H@?$DrawCommon@NNHHNNEE@@AEAAHHH@Z 0000000180032120 f i insertShapeUtilsCore.obj
 0001:00031160       ??$Min@H@?$DrawCommon@NNHHNNEH@@AEAAHHH@Z 0000000180032160 f i insertShapeUtilsCore.obj
 0001:000311a0       ??$ToIntCoordinate@H@@YAHH@Z 00000001800321a0 f i insertShapeUtilsCore.obj
 0001:000311b0       ??$getColDimen@H@@YAHHPEBH@Z 00000001800321b0 f i insertShapeUtilsCore.obj
 0001:00031200       ??$getPoint@H@@YAXPEAHNNHHHH@Z 0000000180032200 f i insertShapeUtilsCore.obj
 0001:000315b0       ??$getRowDimen@H@@YAHHPEBH@Z 00000001800325b0 f i insertShapeUtilsCore.obj
 0001:00031600       ??$isInbound@H@@YAEHHHH@Z  0000000180032600 f i insertShapeUtilsCore.obj
 0001:00031640       ??$isPointOnLine@H@@YAEPEBNPEBHNN@Z 0000000180032640 f i insertShapeUtilsCore.obj
 0001:00031880       ??$max@H@std@@YAAEBHAEBH0@Z 0000000180032880 f i insertShapeUtilsCore.obj
 0001:000318b0       ??$min@H@std@@YAAEBHAEBH0@Z 00000001800328b0 f i insertShapeUtilsCore.obj
 0001:000318e0       ??$truncatePoint@H@@YAXPEAHHH@Z 00000001800328e0 f i insertShapeUtilsCore.obj
 0001:00031ae0       ??0?$DrawAnyLine@EEHHMMEE@@QEAA@PEAE00HHH0HPEAHHH1EEEPEAMH00211@Z 0000000180032ae0 f i insertShapeUtilsCore.obj
 0001:00031c50       ??0?$DrawAnyLine@EEHHMMEH@@QEAA@PEAE00HHH0HPEAHHH1EEEPEAMH00211@Z 0000000180032c50 f i insertShapeUtilsCore.obj
 0001:00031dc0       ??0?$DrawAnyLine@FFHHMMEE@@QEAA@PEAF00HHH0HPEAHHH1EEEPEAMHPEAE0211@Z 0000000180032dc0 f i insertShapeUtilsCore.obj
 0001:00031f30       ??0?$DrawAnyLine@FFHHMMEH@@QEAA@PEAF00HHH0HPEAHHH1EEEPEAMHPEAE0211@Z 0000000180032f30 f i insertShapeUtilsCore.obj
 0001:000320a0       ??0?$DrawAnyLine@GGHHMMEE@@QEAA@PEAG00HHH0HPEAHHH1EEEPEAMHPEAE0211@Z 00000001800330a0 f i insertShapeUtilsCore.obj
 0001:00032210       ??0?$DrawAnyLine@GGHHMMEH@@QEAA@PEAG00HHH0HPEAHHH1EEEPEAMHPEAE0211@Z 0000000180033210 f i insertShapeUtilsCore.obj
 0001:00032380       ??0?$DrawAnyLine@MMHHMMEE@@QEAA@PEAM00HHH0HPEAHHH1EEE0HPEAE0011@Z 0000000180033380 f i insertShapeUtilsCore.obj
 0001:000324f0       ??0?$DrawAnyLine@MMHHMMEH@@QEAA@PEAM00HHH0HPEAHHH1EEE0HPEAE0011@Z 00000001800334f0 f i insertShapeUtilsCore.obj
 0001:00032660       ??0?$DrawAnyLine@NNHHNNEE@@QEAA@PEAN00HHH0HPEAHHH1EEE0HPEAE0011@Z 0000000180033660 f i insertShapeUtilsCore.obj
 0001:000327d0       ??0?$DrawAnyLine@NNHHNNEH@@QEAA@PEAN00HHH0HPEAHHH1EEE0HPEAE0011@Z 00000001800337d0 f i insertShapeUtilsCore.obj
 0001:00032940       ??0?$DrawCircle@EEHHMMEEE@@QEAA@PEAE00HHH0HPEAHHH1EEEPEAMH002@Z 0000000180033940 f i insertShapeUtilsCore.obj
 0001:00032a80       ??0?$DrawCircle@EEHHMMEEH@@QEAA@PEAE00HHH0HPEAHHH1EEEPEAMH002@Z 0000000180033a80 f i insertShapeUtilsCore.obj
 0001:00032bc0       ??0?$DrawCircle@EEHHMMEHE@@QEAA@PEAE00HHH0HPEAHHH1EEEPEAMH002@Z 0000000180033bc0 f i insertShapeUtilsCore.obj
 0001:00032d00       ??0?$DrawCircle@EEHHMMEHH@@QEAA@PEAE00HHH0HPEAHHH1EEEPEAMH002@Z 0000000180033d00 f i insertShapeUtilsCore.obj
 0001:00032e40       ??0?$DrawCircle@FFHHMMEEE@@QEAA@PEAF00HHH0HPEAHHH1EEEPEAMHPEAE02@Z 0000000180033e40 f i insertShapeUtilsCore.obj
 0001:00032f80       ??0?$DrawCircle@FFHHMMEEH@@QEAA@PEAF00HHH0HPEAHHH1EEEPEAMHPEAE02@Z 0000000180033f80 f i insertShapeUtilsCore.obj
 0001:000330c0       ??0?$DrawCircle@FFHHMMEHE@@QEAA@PEAF00HHH0HPEAHHH1EEEPEAMHPEAE02@Z 00000001800340c0 f i insertShapeUtilsCore.obj
 0001:00033200       ??0?$DrawCircle@FFHHMMEHH@@QEAA@PEAF00HHH0HPEAHHH1EEEPEAMHPEAE02@Z 0000000180034200 f i insertShapeUtilsCore.obj
 0001:00033340       ??0?$DrawCircle@GGHHMMEEE@@QEAA@PEAG00HHH0HPEAHHH1EEEPEAMHPEAE02@Z 0000000180034340 f i insertShapeUtilsCore.obj
 0001:00033480       ??0?$DrawCircle@GGHHMMEEH@@QEAA@PEAG00HHH0HPEAHHH1EEEPEAMHPEAE02@Z 0000000180034480 f i insertShapeUtilsCore.obj
 0001:000335c0       ??0?$DrawCircle@GGHHMMEHE@@QEAA@PEAG00HHH0HPEAHHH1EEEPEAMHPEAE02@Z 00000001800345c0 f i insertShapeUtilsCore.obj
 0001:00033700       ??0?$DrawCircle@GGHHMMEHH@@QEAA@PEAG00HHH0HPEAHHH1EEEPEAMHPEAE02@Z 0000000180034700 f i insertShapeUtilsCore.obj
 0001:00033840       ??0?$DrawCircle@MMHHMMEEE@@QEAA@PEAM00HHH0HPEAHHH1EEE0HPEAE00@Z 0000000180034840 f i insertShapeUtilsCore.obj
 0001:00033980       ??0?$DrawCircle@MMHHMMEEH@@QEAA@PEAM00HHH0HPEAHHH1EEE0HPEAE00@Z 0000000180034980 f i insertShapeUtilsCore.obj
 0001:00033ac0       ??0?$DrawCircle@MMHHMMEHE@@QEAA@PEAM00HHH0HPEAHHH1EEE0HPEAE00@Z 0000000180034ac0 f i insertShapeUtilsCore.obj
 0001:00033c00       ??0?$DrawCircle@MMHHMMEHH@@QEAA@PEAM00HHH0HPEAHHH1EEE0HPEAE00@Z 0000000180034c00 f i insertShapeUtilsCore.obj
 0001:00033d40       ??0?$DrawCircle@NNHHNNEEE@@QEAA@PEAN00HHH0HPEAHHH1EEE0HPEAE00@Z 0000000180034d40 f i insertShapeUtilsCore.obj
 0001:00033e80       ??0?$DrawCircle@NNHHNNEEH@@QEAA@PEAN00HHH0HPEAHHH1EEE0HPEAE00@Z 0000000180034e80 f i insertShapeUtilsCore.obj
 0001:00033fc0       ??0?$DrawCircle@NNHHNNEHE@@QEAA@PEAN00HHH0HPEAHHH1EEE0HPEAE00@Z 0000000180034fc0 f i insertShapeUtilsCore.obj
 0001:00034100       ??0?$DrawCircle@NNHHNNEHH@@QEAA@PEAN00HHH0HPEAHHH1EEE0HPEAE00@Z 0000000180035100 f i insertShapeUtilsCore.obj
 0001:00034240       ??0?$DrawCircleAnySize@EEHHMMEEE@@QEAA@PEAE00HHH0HPEAHHH1EEEPEAMH0021@Z 0000000180035240 f i insertShapeUtilsCore.obj
 0001:000343a0       ??0?$DrawCircleAnySize@EEHHMMEEH@@QEAA@PEAE00HHH0HPEAHHH1EEEPEAMH0021@Z 00000001800353a0 f i insertShapeUtilsCore.obj
 0001:00034500       ??0?$DrawCircleAnySize@EEHHMMEHE@@QEAA@PEAE00HHH0HPEAHHH1EEEPEAMH0021@Z 0000000180035500 f i insertShapeUtilsCore.obj
 0001:00034660       ??0?$DrawCircleAnySize@EEHHMMEHH@@QEAA@PEAE00HHH0HPEAHHH1EEEPEAMH0021@Z 0000000180035660 f i insertShapeUtilsCore.obj
 0001:000347c0       ??0?$DrawCircleAnySize@FFHHMMEEE@@QEAA@PEAF00HHH0HPEAHHH1EEEPEAMHPEAE021@Z 00000001800357c0 f i insertShapeUtilsCore.obj
 0001:00034920       ??0?$DrawCircleAnySize@FFHHMMEEH@@QEAA@PEAF00HHH0HPEAHHH1EEEPEAMHPEAE021@Z 0000000180035920 f i insertShapeUtilsCore.obj
 0001:00034a80       ??0?$DrawCircleAnySize@FFHHMMEHE@@QEAA@PEAF00HHH0HPEAHHH1EEEPEAMHPEAE021@Z 0000000180035a80 f i insertShapeUtilsCore.obj
 0001:00034be0       ??0?$DrawCircleAnySize@FFHHMMEHH@@QEAA@PEAF00HHH0HPEAHHH1EEEPEAMHPEAE021@Z 0000000180035be0 f i insertShapeUtilsCore.obj
 0001:00034d40       ??0?$DrawCircleAnySize@GGHHMMEEE@@QEAA@PEAG00HHH0HPEAHHH1EEEPEAMHPEAE021@Z 0000000180035d40 f i insertShapeUtilsCore.obj
 0001:00034ea0       ??0?$DrawCircleAnySize@GGHHMMEEH@@QEAA@PEAG00HHH0HPEAHHH1EEEPEAMHPEAE021@Z 0000000180035ea0 f i insertShapeUtilsCore.obj
 0001:00035000       ??0?$DrawCircleAnySize@GGHHMMEHE@@QEAA@PEAG00HHH0HPEAHHH1EEEPEAMHPEAE021@Z 0000000180036000 f i insertShapeUtilsCore.obj
 0001:00035160       ??0?$DrawCircleAnySize@GGHHMMEHH@@QEAA@PEAG00HHH0HPEAHHH1EEEPEAMHPEAE021@Z 0000000180036160 f i insertShapeUtilsCore.obj
 0001:000352c0       ??0?$DrawCircleAnySize@MMHHMMEEE@@QEAA@PEAM00HHH0HPEAHHH1EEE0HPEAE001@Z 00000001800362c0 f i insertShapeUtilsCore.obj
 0001:00035420       ??0?$DrawCircleAnySize@MMHHMMEEH@@QEAA@PEAM00HHH0HPEAHHH1EEE0HPEAE001@Z 0000000180036420 f i insertShapeUtilsCore.obj
 0001:00035580       ??0?$DrawCircleAnySize@MMHHMMEHE@@QEAA@PEAM00HHH0HPEAHHH1EEE0HPEAE001@Z 0000000180036580 f i insertShapeUtilsCore.obj
 0001:000356e0       ??0?$DrawCircleAnySize@MMHHMMEHH@@QEAA@PEAM00HHH0HPEAHHH1EEE0HPEAE001@Z 00000001800366e0 f i insertShapeUtilsCore.obj
 0001:00035840       ??0?$DrawCircleAnySize@NNHHNNEEE@@QEAA@PEAN00HHH0HPEAHHH1EEE0HPEAE001@Z 0000000180036840 f i insertShapeUtilsCore.obj
 0001:000359a0       ??0?$DrawCircleAnySize@NNHHNNEEH@@QEAA@PEAN00HHH0HPEAHHH1EEE0HPEAE001@Z 00000001800369a0 f i insertShapeUtilsCore.obj
 0001:00035b00       ??0?$DrawCircleAnySize@NNHHNNEHE@@QEAA@PEAN00HHH0HPEAHHH1EEE0HPEAE001@Z 0000000180036b00 f i insertShapeUtilsCore.obj
 0001:00035c60       ??0?$DrawCircleAnySize@NNHHNNEHH@@QEAA@PEAN00HHH0HPEAHHH1EEE0HPEAE001@Z 0000000180036c60 f i insertShapeUtilsCore.obj
 0001:00035dc0       ??0?$DrawCommon@EEHHMMEE@@QEAA@PEAE00HHH0HPEAHHH1EEEPEAMH002@Z 0000000180036dc0 f i insertShapeUtilsCore.obj
 0001:00035f70       ??0?$DrawCommon@EEHHMMEH@@QEAA@PEAE00HHH0HPEAHHH1EEEPEAMH002@Z 0000000180036f70 f i insertShapeUtilsCore.obj
 0001:00036120       ??0?$DrawCommon@FFHHMMEE@@QEAA@PEAF00HHH0HPEAHHH1EEEPEAMHPEAE02@Z 0000000180037120 f i insertShapeUtilsCore.obj
 0001:000362d0       ??0?$DrawCommon@FFHHMMEH@@QEAA@PEAF00HHH0HPEAHHH1EEEPEAMHPEAE02@Z 00000001800372d0 f i insertShapeUtilsCore.obj
 0001:00036480       ??0?$DrawCommon@GGHHMMEE@@QEAA@PEAG00HHH0HPEAHHH1EEEPEAMHPEAE02@Z 0000000180037480 f i insertShapeUtilsCore.obj
 0001:00036630       ??0?$DrawCommon@GGHHMMEH@@QEAA@PEAG00HHH0HPEAHHH1EEEPEAMHPEAE02@Z 0000000180037630 f i insertShapeUtilsCore.obj
 0001:000367e0       ??0?$DrawCommon@MMHHMMEE@@QEAA@PEAM00HHH0HPEAHHH1EEE0HPEAE00@Z 00000001800377e0 f i insertShapeUtilsCore.obj
 0001:00036990       ??0?$DrawCommon@MMHHMMEH@@QEAA@PEAM00HHH0HPEAHHH1EEE0HPEAE00@Z 0000000180037990 f i insertShapeUtilsCore.obj
 0001:00036b40       ??0?$DrawCommon@NNHHNNEE@@QEAA@PEAN00HHH0HPEAHHH1EEE0HPEAE00@Z 0000000180037b40 f i insertShapeUtilsCore.obj
 0001:00036cf0       ??0?$DrawCommon@NNHHNNEH@@QEAA@PEAN00HHH0HPEAHHH1EEE0HPEAE00@Z 0000000180037cf0 f i insertShapeUtilsCore.obj
 0001:00036ea0       ??0?$DrawFilledPolygon@EEHHMMEE@@QEAA@PEAE00HHH0HPEAHHH1EEEPEAMH002PEAV?$ScanLineBase@HHE@@11@Z 0000000180037ea0 f i insertShapeUtilsCore.obj
 0001:00037030       ??0?$DrawFilledPolygon@EEHHMMEH@@QEAA@PEAE00HHH0HPEAHHH1EEEPEAMH002PEAV?$ScanLineBase@HHH@@11@Z 0000000180038030 f i insertShapeUtilsCore.obj
 0001:000371c0       ??0?$DrawFilledPolygon@FFHHMMEE@@QEAA@PEAF00HHH0HPEAHHH1EEEPEAMHPEAE02PEAV?$ScanLineBase@HHE@@11@Z 00000001800381c0 f i insertShapeUtilsCore.obj
 0001:00037350       ??0?$DrawFilledPolygon@FFHHMMEH@@QEAA@PEAF00HHH0HPEAHHH1EEEPEAMHPEAE02PEAV?$ScanLineBase@HHH@@11@Z 0000000180038350 f i insertShapeUtilsCore.obj
 0001:000374e0       ??0?$DrawFilledPolygon@GGHHMMEE@@QEAA@PEAG00HHH0HPEAHHH1EEEPEAMHPEAE02PEAV?$ScanLineBase@HHE@@11@Z 00000001800384e0 f i insertShapeUtilsCore.obj
 0001:00037670       ??0?$DrawFilledPolygon@GGHHMMEH@@QEAA@PEAG00HHH0HPEAHHH1EEEPEAMHPEAE02PEAV?$ScanLineBase@HHH@@11@Z 0000000180038670 f i insertShapeUtilsCore.obj
 0001:00037800       ??0?$DrawFilledPolygon@MMHHMMEE@@QEAA@PEAM00HHH0HPEAHHH1EEE0HPEAE00PEAV?$ScanLineBase@HHE@@11@Z 0000000180038800 f i insertShapeUtilsCore.obj
 0001:00037990       ??0?$DrawFilledPolygon@MMHHMMEH@@QEAA@PEAM00HHH0HPEAHHH1EEE0HPEAE00PEAV?$ScanLineBase@HHH@@11@Z 0000000180038990 f i insertShapeUtilsCore.obj
 0001:00037b20       ??0?$DrawFilledPolygon@NNHHNNEE@@QEAA@PEAN00HHH0HPEAHHH1EEE0HPEAE00PEAV?$ScanLineBase@HHE@@11@Z 0000000180038b20 f i insertShapeUtilsCore.obj
 0001:00037cb0       ??0?$DrawFilledPolygon@NNHHNNEH@@QEAA@PEAN00HHH0HPEAHHH1EEE0HPEAE00PEAV?$ScanLineBase@HHH@@11@Z 0000000180038cb0 f i insertShapeUtilsCore.obj
 0001:00037e40       ??0?$DrawFilledRectangle@EEHHMME@@QEAA@PEAE00HHH0HPEAHHH1EEEPEAMH002@Z 0000000180038e40 f i insertShapeUtilsCore.obj
 0001:00037f80       ??0?$DrawFilledRectangle@FFHHMME@@QEAA@PEAF00HHH0HPEAHHH1EEEPEAMHPEAE02@Z 0000000180038f80 f i insertShapeUtilsCore.obj
 0001:000380c0       ??0?$DrawFilledRectangle@GGHHMME@@QEAA@PEAG00HHH0HPEAHHH1EEEPEAMHPEAE02@Z 00000001800390c0 f i insertShapeUtilsCore.obj
 0001:00038200       ??0?$DrawFilledRectangle@MMHHMME@@QEAA@PEAM00HHH0HPEAHHH1EEE0HPEAE00@Z 0000000180039200 f i insertShapeUtilsCore.obj
 0001:00038340       ??0?$DrawFilledRectangle@NNHHNNE@@QEAA@PEAN00HHH0HPEAHHH1EEE0HPEAE00@Z 0000000180039340 f i insertShapeUtilsCore.obj
 0001:00038480       ??0?$DrawFilledRectangleAnySize@EEHHMME@@QEAA@PEAE00HHH0HPEAHHH1EEEPEAMH002PEBH@Z 0000000180039480 f i insertShapeUtilsCore.obj
 0001:000385e0       ??0?$DrawFilledRectangleAnySize@FFHHMME@@QEAA@PEAF00HHH0HPEAHHH1EEEPEAMHPEAE02PEBH@Z 00000001800395e0 f i insertShapeUtilsCore.obj
 0001:00038740       ??0?$DrawFilledRectangleAnySize@GGHHMME@@QEAA@PEAG00HHH0HPEAHHH1EEEPEAMHPEAE02PEBH@Z 0000000180039740 f i insertShapeUtilsCore.obj
 0001:000388a0       ??0?$DrawFilledRectangleAnySize@MMHHMME@@QEAA@PEAM00HHH0HPEAHHH1EEE0HPEAE00PEBH@Z 00000001800398a0 f i insertShapeUtilsCore.obj
 0001:00038a00       ??0?$DrawFilledRectangleAnySize@NNHHNNE@@QEAA@PEAN00HHH0HPEAHHH1EEE0HPEAE00PEBH@Z 0000000180039a00 f i insertShapeUtilsCore.obj
 0001:00038b60       ??0?$DrawLine@EEHHMMEE@@QEAA@PEAE00HHH0HPEAHHH1EEEPEAMH002@Z 0000000180039b60 f i insertShapeUtilsCore.obj
 0001:00038ca0       ??0?$DrawLine@EEHHMMEH@@QEAA@PEAE00HHH0HPEAHHH1EEEPEAMH002@Z 0000000180039ca0 f i insertShapeUtilsCore.obj
 0001:00038de0       ??0?$DrawLine@FFHHMMEE@@QEAA@PEAF00HHH0HPEAHHH1EEEPEAMHPEAE02@Z 0000000180039de0 f i insertShapeUtilsCore.obj
 0001:00038f20       ??0?$DrawLine@FFHHMMEH@@QEAA@PEAF00HHH0HPEAHHH1EEEPEAMHPEAE02@Z 0000000180039f20 f i insertShapeUtilsCore.obj
 0001:00039060       ??0?$DrawLine@GGHHMMEE@@QEAA@PEAG00HHH0HPEAHHH1EEEPEAMHPEAE02@Z 000000018003a060 f i insertShapeUtilsCore.obj
 0001:000391a0       ??0?$DrawLine@GGHHMMEH@@QEAA@PEAG00HHH0HPEAHHH1EEEPEAMHPEAE02@Z 000000018003a1a0 f i insertShapeUtilsCore.obj
 0001:000392e0       ??0?$DrawLine@MMHHMMEE@@QEAA@PEAM00HHH0HPEAHHH1EEE0HPEAE00@Z 000000018003a2e0 f i insertShapeUtilsCore.obj
 0001:00039420       ??0?$DrawLine@MMHHMMEH@@QEAA@PEAM00HHH0HPEAHHH1EEE0HPEAE00@Z 000000018003a420 f i insertShapeUtilsCore.obj
 0001:00039560       ??0?$DrawLine@NNHHNNEE@@QEAA@PEAN00HHH0HPEAHHH1EEE0HPEAE00@Z 000000018003a560 f i insertShapeUtilsCore.obj
 0001:000396a0       ??0?$DrawLine@NNHHNNEH@@QEAA@PEAN00HHH0HPEAHHH1EEE0HPEAE00@Z 000000018003a6a0 f i insertShapeUtilsCore.obj
 0001:000397e0       ??0?$DrawMarkerLine@EEHHMMEE@@QEAA@PEAE00HHH0HPEAHHH1EEEPEAMH002@Z 000000018003a7e0 f i insertShapeUtilsCore.obj
 0001:00039920       ??0?$DrawMarkerLine@FFHHMMEE@@QEAA@PEAF00HHH0HPEAHHH1EEEPEAMHPEAE02@Z 000000018003a920 f i insertShapeUtilsCore.obj
 0001:00039a60       ??0?$DrawMarkerLine@GGHHMMEE@@QEAA@PEAG00HHH0HPEAHHH1EEEPEAMHPEAE02@Z 000000018003aa60 f i insertShapeUtilsCore.obj
 0001:00039ba0       ??0?$DrawMarkerLine@MMHHMMEE@@QEAA@PEAM00HHH0HPEAHHH1EEE0HPEAE00@Z 000000018003aba0 f i insertShapeUtilsCore.obj
 0001:00039ce0       ??0?$DrawMarkerLine@NNHHNNEE@@QEAA@PEAN00HHH0HPEAHHH1EEE0HPEAE00@Z 000000018003ace0 f i insertShapeUtilsCore.obj
 0001:00039e20       ??0?$DrawPolygon@EEHHMMEE@@QEAA@PEAE00HHH0HPEAHHH1EEEPEAMH00211@Z 000000018003ae20 f i insertShapeUtilsCore.obj
 0001:00039f90       ??0?$DrawPolygon@EEHHMMEH@@QEAA@PEAE00HHH0HPEAHHH1EEEPEAMH00211@Z 000000018003af90 f i insertShapeUtilsCore.obj
 0001:0003a100       ??0?$DrawPolygon@FFHHMMEE@@QEAA@PEAF00HHH0HPEAHHH1EEEPEAMHPEAE0211@Z 000000018003b100 f i insertShapeUtilsCore.obj
 0001:0003a270       ??0?$DrawPolygon@FFHHMMEH@@QEAA@PEAF00HHH0HPEAHHH1EEEPEAMHPEAE0211@Z 000000018003b270 f i insertShapeUtilsCore.obj
 0001:0003a3e0       ??0?$DrawPolygon@GGHHMMEE@@QEAA@PEAG00HHH0HPEAHHH1EEEPEAMHPEAE0211@Z 000000018003b3e0 f i insertShapeUtilsCore.obj
 0001:0003a550       ??0?$DrawPolygon@GGHHMMEH@@QEAA@PEAG00HHH0HPEAHHH1EEEPEAMHPEAE0211@Z 000000018003b550 f i insertShapeUtilsCore.obj
 0001:0003a6c0       ??0?$DrawPolygon@MMHHMMEE@@QEAA@PEAM00HHH0HPEAHHH1EEE0HPEAE0011@Z 000000018003b6c0 f i insertShapeUtilsCore.obj
 0001:0003a830       ??0?$DrawPolygon@MMHHMMEH@@QEAA@PEAM00HHH0HPEAHHH1EEE0HPEAE0011@Z 000000018003b830 f i insertShapeUtilsCore.obj
 0001:0003a9a0       ??0?$DrawPolygon@NNHHNNEE@@QEAA@PEAN00HHH0HPEAHHH1EEE0HPEAE0011@Z 000000018003b9a0 f i insertShapeUtilsCore.obj
 0001:0003ab10       ??0?$DrawPolygon@NNHHNNEH@@QEAA@PEAN00HHH0HPEAHHH1EEE0HPEAE0011@Z 000000018003bb10 f i insertShapeUtilsCore.obj
 0001:0003ac80       ??0?$DrawRectangleAnySize@EEHHMME@@QEAA@PEAE00HHH0HPEAHHH1EEEPEAMH0021@Z 000000018003bc80 f i insertShapeUtilsCore.obj
 0001:0003ade0       ??0?$DrawRectangleAnySize@FFHHMME@@QEAA@PEAF00HHH0HPEAHHH1EEEPEAMHPEAE021@Z 000000018003bde0 f i insertShapeUtilsCore.obj
 0001:0003af40       ??0?$DrawRectangleAnySize@GGHHMME@@QEAA@PEAG00HHH0HPEAHHH1EEEPEAMHPEAE021@Z 000000018003bf40 f i insertShapeUtilsCore.obj
 0001:0003b0a0       ??0?$DrawRectangleAnySize@MMHHMME@@QEAA@PEAM00HHH0HPEAHHH1EEE0HPEAE001@Z 000000018003c0a0 f i insertShapeUtilsCore.obj
 0001:0003b200       ??0?$DrawRectangleAnySize@NNHHNNE@@QEAA@PEAN00HHH0HPEAHHH1EEE0HPEAE001@Z 000000018003c200 f i insertShapeUtilsCore.obj
 0001:0003b360       ??0?$MidPointFullCircle@H@@QEAA@XZ 000000018003c360 f i insertShapeUtilsCore.obj
 0001:0003b370       ??0?$Polygon@HHE@@QEAA@PEBHPEAH11HHHEE@Z 000000018003c370 f i insertShapeUtilsCore.obj
 0001:0003b420       ??0?$Polygon@HHH@@QEAA@PEBHPEAH11HHHEE@Z 000000018003c420 f i insertShapeUtilsCore.obj
 0001:0003b4d0       ??0?$ScanLine@HHE@@QEAA@PEAV?$Polygon@HHE@@HHHH@Z 000000018003c4d0 f i insertShapeUtilsCore.obj
 0001:0003b560       ??0?$ScanLine@HHH@@QEAA@PEAV?$Polygon@HHH@@HHHH@Z 000000018003c560 f i insertShapeUtilsCore.obj
 0001:0003b5f0       ??0?$ScanLineBase@HHE@@QEAA@PEAV?$Polygon@HHE@@HHHH@Z 000000018003c5f0 f i insertShapeUtilsCore.obj
 0001:0003b680       ??0?$ScanLineBase@HHH@@QEAA@PEAV?$Polygon@HHH@@HHHH@Z 000000018003c680 f i insertShapeUtilsCore.obj
 0001:0003b710       ??0DrawBase@@QEAA@XZ       000000018003c710 f i insertShapeUtilsCore.obj
 0001:0003b730       ??1?$DrawAnyLine@EEHHMMEE@@UEAA@XZ 000000018003c730 f i insertShapeUtilsCore.obj
 0001:0003b760       ??1?$DrawAnyLine@EEHHMMEH@@UEAA@XZ 000000018003c760 f i insertShapeUtilsCore.obj
 0001:0003b790       ??1?$DrawAnyLine@FFHHMMEE@@UEAA@XZ 000000018003c790 f i insertShapeUtilsCore.obj
 0001:0003b7c0       ??1?$DrawAnyLine@FFHHMMEH@@UEAA@XZ 000000018003c7c0 f i insertShapeUtilsCore.obj
 0001:0003b7f0       ??1?$DrawAnyLine@GGHHMMEE@@UEAA@XZ 000000018003c7f0 f i insertShapeUtilsCore.obj
 0001:0003b820       ??1?$DrawAnyLine@GGHHMMEH@@UEAA@XZ 000000018003c820 f i insertShapeUtilsCore.obj
 0001:0003b850       ??1?$DrawAnyLine@MMHHMMEE@@UEAA@XZ 000000018003c850 f i insertShapeUtilsCore.obj
 0001:0003b880       ??1?$DrawAnyLine@MMHHMMEH@@UEAA@XZ 000000018003c880 f i insertShapeUtilsCore.obj
 0001:0003b8b0       ??1?$DrawAnyLine@NNHHNNEE@@UEAA@XZ 000000018003c8b0 f i insertShapeUtilsCore.obj
 0001:0003b8e0       ??1?$DrawAnyLine@NNHHNNEH@@UEAA@XZ 000000018003c8e0 f i insertShapeUtilsCore.obj
 0001:0003b910       ??1?$DrawCircle@EEHHMMEEE@@UEAA@XZ 000000018003c910 f i insertShapeUtilsCore.obj
 0001:0003b930       ??1?$DrawCircle@EEHHMMEEH@@UEAA@XZ 000000018003c930 f i insertShapeUtilsCore.obj
 0001:0003b950       ??1?$DrawCircle@EEHHMMEHE@@UEAA@XZ 000000018003c950 f i insertShapeUtilsCore.obj
 0001:0003b970       ??1?$DrawCircle@EEHHMMEHH@@UEAA@XZ 000000018003c970 f i insertShapeUtilsCore.obj
 0001:0003b990       ??1?$DrawCircle@FFHHMMEEE@@UEAA@XZ 000000018003c990 f i insertShapeUtilsCore.obj
 0001:0003b9b0       ??1?$DrawCircle@FFHHMMEEH@@UEAA@XZ 000000018003c9b0 f i insertShapeUtilsCore.obj
 0001:0003b9d0       ??1?$DrawCircle@FFHHMMEHE@@UEAA@XZ 000000018003c9d0 f i insertShapeUtilsCore.obj
 0001:0003b9f0       ??1?$DrawCircle@FFHHMMEHH@@UEAA@XZ 000000018003c9f0 f i insertShapeUtilsCore.obj
 0001:0003ba10       ??1?$DrawCircle@GGHHMMEEE@@UEAA@XZ 000000018003ca10 f i insertShapeUtilsCore.obj
 0001:0003ba30       ??1?$DrawCircle@GGHHMMEEH@@UEAA@XZ 000000018003ca30 f i insertShapeUtilsCore.obj
 0001:0003ba50       ??1?$DrawCircle@GGHHMMEHE@@UEAA@XZ 000000018003ca50 f i insertShapeUtilsCore.obj
 0001:0003ba70       ??1?$DrawCircle@GGHHMMEHH@@UEAA@XZ 000000018003ca70 f i insertShapeUtilsCore.obj
 0001:0003ba90       ??1?$DrawCircle@MMHHMMEEE@@UEAA@XZ 000000018003ca90 f i insertShapeUtilsCore.obj
 0001:0003bab0       ??1?$DrawCircle@MMHHMMEEH@@UEAA@XZ 000000018003cab0 f i insertShapeUtilsCore.obj
 0001:0003bad0       ??1?$DrawCircle@MMHHMMEHE@@UEAA@XZ 000000018003cad0 f i insertShapeUtilsCore.obj
 0001:0003baf0       ??1?$DrawCircle@MMHHMMEHH@@UEAA@XZ 000000018003caf0 f i insertShapeUtilsCore.obj
 0001:0003bb10       ??1?$DrawCircle@NNHHNNEEE@@UEAA@XZ 000000018003cb10 f i insertShapeUtilsCore.obj
 0001:0003bb30       ??1?$DrawCircle@NNHHNNEEH@@UEAA@XZ 000000018003cb30 f i insertShapeUtilsCore.obj
 0001:0003bb50       ??1?$DrawCircle@NNHHNNEHE@@UEAA@XZ 000000018003cb50 f i insertShapeUtilsCore.obj
 0001:0003bb70       ??1?$DrawCircle@NNHHNNEHH@@UEAA@XZ 000000018003cb70 f i insertShapeUtilsCore.obj
 0001:0003bb90       ??1?$DrawCircleAnySize@EEHHMMEEE@@UEAA@XZ 000000018003cb90 f i insertShapeUtilsCore.obj
 0001:0003bbc0       ??1?$DrawCircleAnySize@EEHHMMEEH@@UEAA@XZ 000000018003cbc0 f i insertShapeUtilsCore.obj
 0001:0003bbf0       ??1?$DrawCircleAnySize@EEHHMMEHE@@UEAA@XZ 000000018003cbf0 f i insertShapeUtilsCore.obj
 0001:0003bc20       ??1?$DrawCircleAnySize@EEHHMMEHH@@UEAA@XZ 000000018003cc20 f i insertShapeUtilsCore.obj
 0001:0003bc50       ??1?$DrawCircleAnySize@FFHHMMEEE@@UEAA@XZ 000000018003cc50 f i insertShapeUtilsCore.obj
 0001:0003bc80       ??1?$DrawCircleAnySize@FFHHMMEEH@@UEAA@XZ 000000018003cc80 f i insertShapeUtilsCore.obj
 0001:0003bcb0       ??1?$DrawCircleAnySize@FFHHMMEHE@@UEAA@XZ 000000018003ccb0 f i insertShapeUtilsCore.obj
 0001:0003bce0       ??1?$DrawCircleAnySize@FFHHMMEHH@@UEAA@XZ 000000018003cce0 f i insertShapeUtilsCore.obj
 0001:0003bd10       ??1?$DrawCircleAnySize@GGHHMMEEE@@UEAA@XZ 000000018003cd10 f i insertShapeUtilsCore.obj
 0001:0003bd40       ??1?$DrawCircleAnySize@GGHHMMEEH@@UEAA@XZ 000000018003cd40 f i insertShapeUtilsCore.obj
 0001:0003bd70       ??1?$DrawCircleAnySize@GGHHMMEHE@@UEAA@XZ 000000018003cd70 f i insertShapeUtilsCore.obj
 0001:0003bda0       ??1?$DrawCircleAnySize@GGHHMMEHH@@UEAA@XZ 000000018003cda0 f i insertShapeUtilsCore.obj
 0001:0003bdd0       ??1?$DrawCircleAnySize@MMHHMMEEE@@UEAA@XZ 000000018003cdd0 f i insertShapeUtilsCore.obj
 0001:0003be00       ??1?$DrawCircleAnySize@MMHHMMEEH@@UEAA@XZ 000000018003ce00 f i insertShapeUtilsCore.obj
 0001:0003be30       ??1?$DrawCircleAnySize@MMHHMMEHE@@UEAA@XZ 000000018003ce30 f i insertShapeUtilsCore.obj
 0001:0003be60       ??1?$DrawCircleAnySize@MMHHMMEHH@@UEAA@XZ 000000018003ce60 f i insertShapeUtilsCore.obj
 0001:0003be90       ??1?$DrawCircleAnySize@NNHHNNEEE@@UEAA@XZ 000000018003ce90 f i insertShapeUtilsCore.obj
 0001:0003bec0       ??1?$DrawCircleAnySize@NNHHNNEEH@@UEAA@XZ 000000018003cec0 f i insertShapeUtilsCore.obj
 0001:0003bef0       ??1?$DrawCircleAnySize@NNHHNNEHE@@UEAA@XZ 000000018003cef0 f i insertShapeUtilsCore.obj
 0001:0003bf20       ??1?$DrawCircleAnySize@NNHHNNEHH@@UEAA@XZ 000000018003cf20 f i insertShapeUtilsCore.obj
 0001:0003bf50       ??1?$DrawCommon@EEHHMMEE@@UEAA@XZ 000000018003cf50 f i insertShapeUtilsCore.obj
 0001:0003bf80       ??1?$DrawCommon@EEHHMMEH@@UEAA@XZ 000000018003cf80 f i insertShapeUtilsCore.obj
 0001:0003bfb0       ??1?$DrawCommon@FFHHMMEE@@UEAA@XZ 000000018003cfb0 f i insertShapeUtilsCore.obj
 0001:0003bfe0       ??1?$DrawCommon@FFHHMMEH@@UEAA@XZ 000000018003cfe0 f i insertShapeUtilsCore.obj
 0001:0003c010       ??1?$DrawCommon@GGHHMMEE@@UEAA@XZ 000000018003d010 f i insertShapeUtilsCore.obj
 0001:0003c040       ??1?$DrawCommon@GGHHMMEH@@UEAA@XZ 000000018003d040 f i insertShapeUtilsCore.obj
 0001:0003c070       ??1?$DrawCommon@MMHHMMEE@@UEAA@XZ 000000018003d070 f i insertShapeUtilsCore.obj
 0001:0003c0a0       ??1?$DrawCommon@MMHHMMEH@@UEAA@XZ 000000018003d0a0 f i insertShapeUtilsCore.obj
 0001:0003c0d0       ??1?$DrawCommon@NNHHNNEE@@UEAA@XZ 000000018003d0d0 f i insertShapeUtilsCore.obj
 0001:0003c100       ??1?$DrawCommon@NNHHNNEH@@UEAA@XZ 000000018003d100 f i insertShapeUtilsCore.obj
 0001:0003c130       ??1?$DrawFilledPolygon@EEHHMMEE@@UEAA@XZ 000000018003d130 f i insertShapeUtilsCore.obj
 0001:0003c1b0       ??1?$DrawFilledPolygon@EEHHMMEH@@UEAA@XZ 000000018003d1b0 f i insertShapeUtilsCore.obj
 0001:0003c230       ??1?$DrawFilledPolygon@FFHHMMEE@@UEAA@XZ 000000018003d230 f i insertShapeUtilsCore.obj
 0001:0003c2b0       ??1?$DrawFilledPolygon@FFHHMMEH@@UEAA@XZ 000000018003d2b0 f i insertShapeUtilsCore.obj
 0001:0003c330       ??1?$DrawFilledPolygon@GGHHMMEE@@UEAA@XZ 000000018003d330 f i insertShapeUtilsCore.obj
 0001:0003c3b0       ??1?$DrawFilledPolygon@GGHHMMEH@@UEAA@XZ 000000018003d3b0 f i insertShapeUtilsCore.obj
 0001:0003c430       ??1?$DrawFilledPolygon@MMHHMMEE@@UEAA@XZ 000000018003d430 f i insertShapeUtilsCore.obj
 0001:0003c4b0       ??1?$DrawFilledPolygon@MMHHMMEH@@UEAA@XZ 000000018003d4b0 f i insertShapeUtilsCore.obj
 0001:0003c530       ??1?$DrawFilledPolygon@NNHHNNEE@@UEAA@XZ 000000018003d530 f i insertShapeUtilsCore.obj
 0001:0003c5b0       ??1?$DrawFilledPolygon@NNHHNNEH@@UEAA@XZ 000000018003d5b0 f i insertShapeUtilsCore.obj
 0001:0003c630       ??1?$DrawFilledRectangle@EEHHMME@@UEAA@XZ 000000018003d630 f i insertShapeUtilsCore.obj
 0001:0003c650       ??1?$DrawFilledRectangle@FFHHMME@@UEAA@XZ 000000018003d650 f i insertShapeUtilsCore.obj
 0001:0003c670       ??1?$DrawFilledRectangle@GGHHMME@@UEAA@XZ 000000018003d670 f i insertShapeUtilsCore.obj
 0001:0003c690       ??1?$DrawFilledRectangle@MMHHMME@@UEAA@XZ 000000018003d690 f i insertShapeUtilsCore.obj
 0001:0003c6b0       ??1?$DrawFilledRectangle@NNHHNNE@@UEAA@XZ 000000018003d6b0 f i insertShapeUtilsCore.obj
 0001:0003c6d0       ??1?$DrawFilledRectangleAnySize@EEHHMME@@UEAA@XZ 000000018003d6d0 f i insertShapeUtilsCore.obj
 0001:0003c700       ??1?$DrawFilledRectangleAnySize@FFHHMME@@UEAA@XZ 000000018003d700 f i insertShapeUtilsCore.obj
 0001:0003c730       ??1?$DrawFilledRectangleAnySize@GGHHMME@@UEAA@XZ 000000018003d730 f i insertShapeUtilsCore.obj
 0001:0003c760       ??1?$DrawFilledRectangleAnySize@MMHHMME@@UEAA@XZ 000000018003d760 f i insertShapeUtilsCore.obj
 0001:0003c790       ??1?$DrawFilledRectangleAnySize@NNHHNNE@@UEAA@XZ 000000018003d790 f i insertShapeUtilsCore.obj
 0001:0003c7c0       ??1?$DrawLine@EEHHMMEE@@UEAA@XZ 000000018003d7c0 f i insertShapeUtilsCore.obj
 0001:0003c7f0       ??1?$DrawLine@EEHHMMEH@@UEAA@XZ 000000018003d7f0 f i insertShapeUtilsCore.obj
 0001:0003c820       ??1?$DrawLine@FFHHMMEE@@UEAA@XZ 000000018003d820 f i insertShapeUtilsCore.obj
 0001:0003c850       ??1?$DrawLine@FFHHMMEH@@UEAA@XZ 000000018003d850 f i insertShapeUtilsCore.obj
 0001:0003c880       ??1?$DrawLine@GGHHMMEE@@UEAA@XZ 000000018003d880 f i insertShapeUtilsCore.obj
 0001:0003c8b0       ??1?$DrawLine@GGHHMMEH@@UEAA@XZ 000000018003d8b0 f i insertShapeUtilsCore.obj
 0001:0003c8e0       ??1?$DrawLine@MMHHMMEE@@UEAA@XZ 000000018003d8e0 f i insertShapeUtilsCore.obj
 0001:0003c910       ??1?$DrawLine@MMHHMMEH@@UEAA@XZ 000000018003d910 f i insertShapeUtilsCore.obj
 0001:0003c940       ??1?$DrawLine@NNHHNNEE@@UEAA@XZ 000000018003d940 f i insertShapeUtilsCore.obj
 0001:0003c970       ??1?$DrawLine@NNHHNNEH@@UEAA@XZ 000000018003d970 f i insertShapeUtilsCore.obj
 0001:0003c9a0       ??1?$DrawMarkerLine@EEHHMMEE@@UEAA@XZ 000000018003d9a0 f i insertShapeUtilsCore.obj
 0001:0003c9c0       ??1?$DrawMarkerLine@FFHHMMEE@@UEAA@XZ 000000018003d9c0 f i insertShapeUtilsCore.obj
 0001:0003c9e0       ??1?$DrawMarkerLine@GGHHMMEE@@UEAA@XZ 000000018003d9e0 f i insertShapeUtilsCore.obj
 0001:0003ca00       ??1?$DrawMarkerLine@MMHHMMEE@@UEAA@XZ 000000018003da00 f i insertShapeUtilsCore.obj
 0001:0003ca20       ??1?$DrawMarkerLine@NNHHNNEE@@UEAA@XZ 000000018003da20 f i insertShapeUtilsCore.obj
 0001:0003ca40       ??1?$DrawPolygon@EEHHMMEE@@UEAA@XZ 000000018003da40 f i insertShapeUtilsCore.obj
 0001:0003ca70       ??1?$DrawPolygon@EEHHMMEH@@UEAA@XZ 000000018003da70 f i insertShapeUtilsCore.obj
 0001:0003caa0       ??1?$DrawPolygon@FFHHMMEE@@UEAA@XZ 000000018003daa0 f i insertShapeUtilsCore.obj
 0001:0003cad0       ??1?$DrawPolygon@FFHHMMEH@@UEAA@XZ 000000018003dad0 f i insertShapeUtilsCore.obj
 0001:0003cb00       ??1?$DrawPolygon@GGHHMMEE@@UEAA@XZ 000000018003db00 f i insertShapeUtilsCore.obj
 0001:0003cb30       ??1?$DrawPolygon@GGHHMMEH@@UEAA@XZ 000000018003db30 f i insertShapeUtilsCore.obj
 0001:0003cb60       ??1?$DrawPolygon@MMHHMMEE@@UEAA@XZ 000000018003db60 f i insertShapeUtilsCore.obj
 0001:0003cb90       ??1?$DrawPolygon@MMHHMMEH@@UEAA@XZ 000000018003db90 f i insertShapeUtilsCore.obj
 0001:0003cbc0       ??1?$DrawPolygon@NNHHNNEE@@UEAA@XZ 000000018003dbc0 f i insertShapeUtilsCore.obj
 0001:0003cbf0       ??1?$DrawPolygon@NNHHNNEH@@UEAA@XZ 000000018003dbf0 f i insertShapeUtilsCore.obj
 0001:0003cc20       ??1?$DrawRectangleAnySize@EEHHMME@@UEAA@XZ 000000018003dc20 f i insertShapeUtilsCore.obj
 0001:0003cc50       ??1?$DrawRectangleAnySize@FFHHMME@@UEAA@XZ 000000018003dc50 f i insertShapeUtilsCore.obj
 0001:0003cc80       ??1?$DrawRectangleAnySize@GGHHMME@@UEAA@XZ 000000018003dc80 f i insertShapeUtilsCore.obj
 0001:0003ccb0       ??1?$DrawRectangleAnySize@MMHHMME@@UEAA@XZ 000000018003dcb0 f i insertShapeUtilsCore.obj
 0001:0003cce0       ??1?$DrawRectangleAnySize@NNHHNNE@@UEAA@XZ 000000018003dce0 f i insertShapeUtilsCore.obj
 0001:0003cd10       ??1?$ScanLine@HHE@@UEAA@XZ 000000018003dd10 f i insertShapeUtilsCore.obj
 0001:0003cd30       ??1?$ScanLine@HHH@@UEAA@XZ 000000018003dd30 f i insertShapeUtilsCore.obj
 0001:0003cd50       ??1?$ScanLineBase@HHE@@UEAA@XZ 000000018003dd50 f i insertShapeUtilsCore.obj
 0001:0003cda0       ??1?$ScanLineBase@HHH@@UEAA@XZ 000000018003dda0 f i insertShapeUtilsCore.obj
 0001:0003cdf0       ??1DrawBase@@UEAA@XZ       000000018003ddf0 f i insertShapeUtilsCore.obj
 0001:0003ce10       ??_G?$DrawAnyLine@EEHHMMEE@@UEAAPEAXI@Z 000000018003de10 f i insertShapeUtilsCore.obj
 0001:0003ce10       ??_E?$DrawAnyLine@EEHHMMEE@@UEAAPEAXI@Z 000000018003de10 f i insertShapeUtilsCore.obj
 0001:0003ce50       ??_G?$DrawAnyLine@EEHHMMEH@@UEAAPEAXI@Z 000000018003de50 f i insertShapeUtilsCore.obj
 0001:0003ce50       ??_E?$DrawAnyLine@EEHHMMEH@@UEAAPEAXI@Z 000000018003de50 f i insertShapeUtilsCore.obj
 0001:0003ce90       ??_E?$DrawAnyLine@FFHHMMEE@@UEAAPEAXI@Z 000000018003de90 f i insertShapeUtilsCore.obj
 0001:0003ce90       ??_G?$DrawAnyLine@FFHHMMEE@@UEAAPEAXI@Z 000000018003de90 f i insertShapeUtilsCore.obj
 0001:0003ced0       ??_G?$DrawAnyLine@FFHHMMEH@@UEAAPEAXI@Z 000000018003ded0 f i insertShapeUtilsCore.obj
 0001:0003ced0       ??_E?$DrawAnyLine@FFHHMMEH@@UEAAPEAXI@Z 000000018003ded0 f i insertShapeUtilsCore.obj
 0001:0003cf10       ??_E?$DrawAnyLine@GGHHMMEE@@UEAAPEAXI@Z 000000018003df10 f i insertShapeUtilsCore.obj
 0001:0003cf10       ??_G?$DrawAnyLine@GGHHMMEE@@UEAAPEAXI@Z 000000018003df10 f i insertShapeUtilsCore.obj
 0001:0003cf50       ??_E?$DrawAnyLine@GGHHMMEH@@UEAAPEAXI@Z 000000018003df50 f i insertShapeUtilsCore.obj
 0001:0003cf50       ??_G?$DrawAnyLine@GGHHMMEH@@UEAAPEAXI@Z 000000018003df50 f i insertShapeUtilsCore.obj
 0001:0003cf90       ??_E?$DrawAnyLine@MMHHMMEE@@UEAAPEAXI@Z 000000018003df90 f i insertShapeUtilsCore.obj
 0001:0003cf90       ??_G?$DrawAnyLine@MMHHMMEE@@UEAAPEAXI@Z 000000018003df90 f i insertShapeUtilsCore.obj
 0001:0003cfd0       ??_E?$DrawAnyLine@MMHHMMEH@@UEAAPEAXI@Z 000000018003dfd0 f i insertShapeUtilsCore.obj
 0001:0003cfd0       ??_G?$DrawAnyLine@MMHHMMEH@@UEAAPEAXI@Z 000000018003dfd0 f i insertShapeUtilsCore.obj
 0001:0003d010       ??_G?$DrawAnyLine@NNHHNNEE@@UEAAPEAXI@Z 000000018003e010 f i insertShapeUtilsCore.obj
 0001:0003d010       ??_E?$DrawAnyLine@NNHHNNEE@@UEAAPEAXI@Z 000000018003e010 f i insertShapeUtilsCore.obj
 0001:0003d050       ??_G?$DrawAnyLine@NNHHNNEH@@UEAAPEAXI@Z 000000018003e050 f i insertShapeUtilsCore.obj
 0001:0003d050       ??_E?$DrawAnyLine@NNHHNNEH@@UEAAPEAXI@Z 000000018003e050 f i insertShapeUtilsCore.obj
 0001:0003d090       ??_G?$DrawCircle@EEHHMMEEE@@UEAAPEAXI@Z 000000018003e090 f i insertShapeUtilsCore.obj
 0001:0003d090       ??_E?$DrawCircle@EEHHMMEEE@@UEAAPEAXI@Z 000000018003e090 f i insertShapeUtilsCore.obj
 0001:0003d0d0       ??_G?$DrawCircle@EEHHMMEEH@@UEAAPEAXI@Z 000000018003e0d0 f i insertShapeUtilsCore.obj
 0001:0003d0d0       ??_E?$DrawCircle@EEHHMMEEH@@UEAAPEAXI@Z 000000018003e0d0 f i insertShapeUtilsCore.obj
 0001:0003d110       ??_G?$DrawCircle@EEHHMMEHE@@UEAAPEAXI@Z 000000018003e110 f i insertShapeUtilsCore.obj
 0001:0003d110       ??_E?$DrawCircle@EEHHMMEHE@@UEAAPEAXI@Z 000000018003e110 f i insertShapeUtilsCore.obj
 0001:0003d150       ??_E?$DrawCircle@EEHHMMEHH@@UEAAPEAXI@Z 000000018003e150 f i insertShapeUtilsCore.obj
 0001:0003d150       ??_G?$DrawCircle@EEHHMMEHH@@UEAAPEAXI@Z 000000018003e150 f i insertShapeUtilsCore.obj
 0001:0003d190       ??_E?$DrawCircle@FFHHMMEEE@@UEAAPEAXI@Z 000000018003e190 f i insertShapeUtilsCore.obj
 0001:0003d190       ??_G?$DrawCircle@FFHHMMEEE@@UEAAPEAXI@Z 000000018003e190 f i insertShapeUtilsCore.obj
 0001:0003d1d0       ??_G?$DrawCircle@FFHHMMEEH@@UEAAPEAXI@Z 000000018003e1d0 f i insertShapeUtilsCore.obj
 0001:0003d1d0       ??_E?$DrawCircle@FFHHMMEEH@@UEAAPEAXI@Z 000000018003e1d0 f i insertShapeUtilsCore.obj
 0001:0003d210       ??_E?$DrawCircle@FFHHMMEHE@@UEAAPEAXI@Z 000000018003e210 f i insertShapeUtilsCore.obj
 0001:0003d210       ??_G?$DrawCircle@FFHHMMEHE@@UEAAPEAXI@Z 000000018003e210 f i insertShapeUtilsCore.obj
 0001:0003d250       ??_G?$DrawCircle@FFHHMMEHH@@UEAAPEAXI@Z 000000018003e250 f i insertShapeUtilsCore.obj
 0001:0003d250       ??_E?$DrawCircle@FFHHMMEHH@@UEAAPEAXI@Z 000000018003e250 f i insertShapeUtilsCore.obj
 0001:0003d290       ??_E?$DrawCircle@GGHHMMEEE@@UEAAPEAXI@Z 000000018003e290 f i insertShapeUtilsCore.obj
 0001:0003d290       ??_G?$DrawCircle@GGHHMMEEE@@UEAAPEAXI@Z 000000018003e290 f i insertShapeUtilsCore.obj
 0001:0003d2d0       ??_E?$DrawCircle@GGHHMMEEH@@UEAAPEAXI@Z 000000018003e2d0 f i insertShapeUtilsCore.obj
 0001:0003d2d0       ??_G?$DrawCircle@GGHHMMEEH@@UEAAPEAXI@Z 000000018003e2d0 f i insertShapeUtilsCore.obj
 0001:0003d310       ??_E?$DrawCircle@GGHHMMEHE@@UEAAPEAXI@Z 000000018003e310 f i insertShapeUtilsCore.obj
 0001:0003d310       ??_G?$DrawCircle@GGHHMMEHE@@UEAAPEAXI@Z 000000018003e310 f i insertShapeUtilsCore.obj
 0001:0003d350       ??_G?$DrawCircle@GGHHMMEHH@@UEAAPEAXI@Z 000000018003e350 f i insertShapeUtilsCore.obj
 0001:0003d350       ??_E?$DrawCircle@GGHHMMEHH@@UEAAPEAXI@Z 000000018003e350 f i insertShapeUtilsCore.obj
 0001:0003d390       ??_E?$DrawCircle@MMHHMMEEE@@UEAAPEAXI@Z 000000018003e390 f i insertShapeUtilsCore.obj
 0001:0003d390       ??_G?$DrawCircle@MMHHMMEEE@@UEAAPEAXI@Z 000000018003e390 f i insertShapeUtilsCore.obj
 0001:0003d3d0       ??_E?$DrawCircle@MMHHMMEEH@@UEAAPEAXI@Z 000000018003e3d0 f i insertShapeUtilsCore.obj
 0001:0003d3d0       ??_G?$DrawCircle@MMHHMMEEH@@UEAAPEAXI@Z 000000018003e3d0 f i insertShapeUtilsCore.obj
 0001:0003d410       ??_G?$DrawCircle@MMHHMMEHE@@UEAAPEAXI@Z 000000018003e410 f i insertShapeUtilsCore.obj
 0001:0003d410       ??_E?$DrawCircle@MMHHMMEHE@@UEAAPEAXI@Z 000000018003e410 f i insertShapeUtilsCore.obj
 0001:0003d450       ??_E?$DrawCircle@MMHHMMEHH@@UEAAPEAXI@Z 000000018003e450 f i insertShapeUtilsCore.obj
 0001:0003d450       ??_G?$DrawCircle@MMHHMMEHH@@UEAAPEAXI@Z 000000018003e450 f i insertShapeUtilsCore.obj
 0001:0003d490       ??_E?$DrawCircle@NNHHNNEEE@@UEAAPEAXI@Z 000000018003e490 f i insertShapeUtilsCore.obj
 0001:0003d490       ??_G?$DrawCircle@NNHHNNEEE@@UEAAPEAXI@Z 000000018003e490 f i insertShapeUtilsCore.obj
 0001:0003d4d0       ??_E?$DrawCircle@NNHHNNEEH@@UEAAPEAXI@Z 000000018003e4d0 f i insertShapeUtilsCore.obj
 0001:0003d4d0       ??_G?$DrawCircle@NNHHNNEEH@@UEAAPEAXI@Z 000000018003e4d0 f i insertShapeUtilsCore.obj
 0001:0003d510       ??_E?$DrawCircle@NNHHNNEHE@@UEAAPEAXI@Z 000000018003e510 f i insertShapeUtilsCore.obj
 0001:0003d510       ??_G?$DrawCircle@NNHHNNEHE@@UEAAPEAXI@Z 000000018003e510 f i insertShapeUtilsCore.obj
 0001:0003d550       ??_E?$DrawCircle@NNHHNNEHH@@UEAAPEAXI@Z 000000018003e550 f i insertShapeUtilsCore.obj
 0001:0003d550       ??_G?$DrawCircle@NNHHNNEHH@@UEAAPEAXI@Z 000000018003e550 f i insertShapeUtilsCore.obj
 0001:0003d590       ??_E?$DrawCircleAnySize@EEHHMMEEE@@UEAAPEAXI@Z 000000018003e590 f i insertShapeUtilsCore.obj
 0001:0003d590       ??_G?$DrawCircleAnySize@EEHHMMEEE@@UEAAPEAXI@Z 000000018003e590 f i insertShapeUtilsCore.obj
 0001:0003d5d0       ??_E?$DrawCircleAnySize@EEHHMMEEH@@UEAAPEAXI@Z 000000018003e5d0 f i insertShapeUtilsCore.obj
 0001:0003d5d0       ??_G?$DrawCircleAnySize@EEHHMMEEH@@UEAAPEAXI@Z 000000018003e5d0 f i insertShapeUtilsCore.obj
 0001:0003d610       ??_G?$DrawCircleAnySize@EEHHMMEHE@@UEAAPEAXI@Z 000000018003e610 f i insertShapeUtilsCore.obj
 0001:0003d610       ??_E?$DrawCircleAnySize@EEHHMMEHE@@UEAAPEAXI@Z 000000018003e610 f i insertShapeUtilsCore.obj
 0001:0003d650       ??_E?$DrawCircleAnySize@EEHHMMEHH@@UEAAPEAXI@Z 000000018003e650 f i insertShapeUtilsCore.obj
 0001:0003d650       ??_G?$DrawCircleAnySize@EEHHMMEHH@@UEAAPEAXI@Z 000000018003e650 f i insertShapeUtilsCore.obj
 0001:0003d690       ??_E?$DrawCircleAnySize@FFHHMMEEE@@UEAAPEAXI@Z 000000018003e690 f i insertShapeUtilsCore.obj
 0001:0003d690       ??_G?$DrawCircleAnySize@FFHHMMEEE@@UEAAPEAXI@Z 000000018003e690 f i insertShapeUtilsCore.obj
 0001:0003d6d0       ??_E?$DrawCircleAnySize@FFHHMMEEH@@UEAAPEAXI@Z 000000018003e6d0 f i insertShapeUtilsCore.obj
 0001:0003d6d0       ??_G?$DrawCircleAnySize@FFHHMMEEH@@UEAAPEAXI@Z 000000018003e6d0 f i insertShapeUtilsCore.obj
 0001:0003d710       ??_G?$DrawCircleAnySize@FFHHMMEHE@@UEAAPEAXI@Z 000000018003e710 f i insertShapeUtilsCore.obj
 0001:0003d710       ??_E?$DrawCircleAnySize@FFHHMMEHE@@UEAAPEAXI@Z 000000018003e710 f i insertShapeUtilsCore.obj
 0001:0003d750       ??_G?$DrawCircleAnySize@FFHHMMEHH@@UEAAPEAXI@Z 000000018003e750 f i insertShapeUtilsCore.obj
 0001:0003d750       ??_E?$DrawCircleAnySize@FFHHMMEHH@@UEAAPEAXI@Z 000000018003e750 f i insertShapeUtilsCore.obj
 0001:0003d790       ??_G?$DrawCircleAnySize@GGHHMMEEE@@UEAAPEAXI@Z 000000018003e790 f i insertShapeUtilsCore.obj
 0001:0003d790       ??_E?$DrawCircleAnySize@GGHHMMEEE@@UEAAPEAXI@Z 000000018003e790 f i insertShapeUtilsCore.obj
 0001:0003d7d0       ??_G?$DrawCircleAnySize@GGHHMMEEH@@UEAAPEAXI@Z 000000018003e7d0 f i insertShapeUtilsCore.obj
 0001:0003d7d0       ??_E?$DrawCircleAnySize@GGHHMMEEH@@UEAAPEAXI@Z 000000018003e7d0 f i insertShapeUtilsCore.obj
 0001:0003d810       ??_G?$DrawCircleAnySize@GGHHMMEHE@@UEAAPEAXI@Z 000000018003e810 f i insertShapeUtilsCore.obj
 0001:0003d810       ??_E?$DrawCircleAnySize@GGHHMMEHE@@UEAAPEAXI@Z 000000018003e810 f i insertShapeUtilsCore.obj
 0001:0003d850       ??_G?$DrawCircleAnySize@GGHHMMEHH@@UEAAPEAXI@Z 000000018003e850 f i insertShapeUtilsCore.obj
 0001:0003d850       ??_E?$DrawCircleAnySize@GGHHMMEHH@@UEAAPEAXI@Z 000000018003e850 f i insertShapeUtilsCore.obj
 0001:0003d890       ??_G?$DrawCircleAnySize@MMHHMMEEE@@UEAAPEAXI@Z 000000018003e890 f i insertShapeUtilsCore.obj
 0001:0003d890       ??_E?$DrawCircleAnySize@MMHHMMEEE@@UEAAPEAXI@Z 000000018003e890 f i insertShapeUtilsCore.obj
 0001:0003d8d0       ??_G?$DrawCircleAnySize@MMHHMMEEH@@UEAAPEAXI@Z 000000018003e8d0 f i insertShapeUtilsCore.obj
 0001:0003d8d0       ??_E?$DrawCircleAnySize@MMHHMMEEH@@UEAAPEAXI@Z 000000018003e8d0 f i insertShapeUtilsCore.obj
 0001:0003d910       ??_G?$DrawCircleAnySize@MMHHMMEHE@@UEAAPEAXI@Z 000000018003e910 f i insertShapeUtilsCore.obj
 0001:0003d910       ??_E?$DrawCircleAnySize@MMHHMMEHE@@UEAAPEAXI@Z 000000018003e910 f i insertShapeUtilsCore.obj
 0001:0003d950       ??_E?$DrawCircleAnySize@MMHHMMEHH@@UEAAPEAXI@Z 000000018003e950 f i insertShapeUtilsCore.obj
 0001:0003d950       ??_G?$DrawCircleAnySize@MMHHMMEHH@@UEAAPEAXI@Z 000000018003e950 f i insertShapeUtilsCore.obj
 0001:0003d990       ??_E?$DrawCircleAnySize@NNHHNNEEE@@UEAAPEAXI@Z 000000018003e990 f i insertShapeUtilsCore.obj
 0001:0003d990       ??_G?$DrawCircleAnySize@NNHHNNEEE@@UEAAPEAXI@Z 000000018003e990 f i insertShapeUtilsCore.obj
 0001:0003d9d0       ??_G?$DrawCircleAnySize@NNHHNNEEH@@UEAAPEAXI@Z 000000018003e9d0 f i insertShapeUtilsCore.obj
 0001:0003d9d0       ??_E?$DrawCircleAnySize@NNHHNNEEH@@UEAAPEAXI@Z 000000018003e9d0 f i insertShapeUtilsCore.obj
 0001:0003da10       ??_G?$DrawCircleAnySize@NNHHNNEHE@@UEAAPEAXI@Z 000000018003ea10 f i insertShapeUtilsCore.obj
 0001:0003da10       ??_E?$DrawCircleAnySize@NNHHNNEHE@@UEAAPEAXI@Z 000000018003ea10 f i insertShapeUtilsCore.obj
 0001:0003da50       ??_G?$DrawCircleAnySize@NNHHNNEHH@@UEAAPEAXI@Z 000000018003ea50 f i insertShapeUtilsCore.obj
 0001:0003da50       ??_E?$DrawCircleAnySize@NNHHNNEHH@@UEAAPEAXI@Z 000000018003ea50 f i insertShapeUtilsCore.obj
 0001:0003da90       ??_E?$DrawCommon@EEHHMMEE@@UEAAPEAXI@Z 000000018003ea90 f i insertShapeUtilsCore.obj
 0001:0003da90       ??_G?$DrawCommon@EEHHMMEE@@UEAAPEAXI@Z 000000018003ea90 f i insertShapeUtilsCore.obj
 0001:0003dad0       ??_G?$DrawCommon@EEHHMMEH@@UEAAPEAXI@Z 000000018003ead0 f i insertShapeUtilsCore.obj
 0001:0003dad0       ??_E?$DrawCommon@EEHHMMEH@@UEAAPEAXI@Z 000000018003ead0 f i insertShapeUtilsCore.obj
 0001:0003db10       ??_E?$DrawCommon@FFHHMMEE@@UEAAPEAXI@Z 000000018003eb10 f i insertShapeUtilsCore.obj
 0001:0003db10       ??_G?$DrawCommon@FFHHMMEE@@UEAAPEAXI@Z 000000018003eb10 f i insertShapeUtilsCore.obj
 0001:0003db50       ??_E?$DrawCommon@FFHHMMEH@@UEAAPEAXI@Z 000000018003eb50 f i insertShapeUtilsCore.obj
 0001:0003db50       ??_G?$DrawCommon@FFHHMMEH@@UEAAPEAXI@Z 000000018003eb50 f i insertShapeUtilsCore.obj
 0001:0003db90       ??_E?$DrawCommon@GGHHMMEE@@UEAAPEAXI@Z 000000018003eb90 f i insertShapeUtilsCore.obj
 0001:0003db90       ??_G?$DrawCommon@GGHHMMEE@@UEAAPEAXI@Z 000000018003eb90 f i insertShapeUtilsCore.obj
 0001:0003dbd0       ??_E?$DrawCommon@GGHHMMEH@@UEAAPEAXI@Z 000000018003ebd0 f i insertShapeUtilsCore.obj
 0001:0003dbd0       ??_G?$DrawCommon@GGHHMMEH@@UEAAPEAXI@Z 000000018003ebd0 f i insertShapeUtilsCore.obj
 0001:0003dc10       ??_G?$DrawCommon@MMHHMMEE@@UEAAPEAXI@Z 000000018003ec10 f i insertShapeUtilsCore.obj
 0001:0003dc10       ??_E?$DrawCommon@MMHHMMEE@@UEAAPEAXI@Z 000000018003ec10 f i insertShapeUtilsCore.obj
 0001:0003dc50       ??_G?$DrawCommon@MMHHMMEH@@UEAAPEAXI@Z 000000018003ec50 f i insertShapeUtilsCore.obj
 0001:0003dc50       ??_E?$DrawCommon@MMHHMMEH@@UEAAPEAXI@Z 000000018003ec50 f i insertShapeUtilsCore.obj
 0001:0003dc90       ??_E?$DrawCommon@NNHHNNEE@@UEAAPEAXI@Z 000000018003ec90 f i insertShapeUtilsCore.obj
 0001:0003dc90       ??_G?$DrawCommon@NNHHNNEE@@UEAAPEAXI@Z 000000018003ec90 f i insertShapeUtilsCore.obj
 0001:0003dcd0       ??_G?$DrawCommon@NNHHNNEH@@UEAAPEAXI@Z 000000018003ecd0 f i insertShapeUtilsCore.obj
 0001:0003dcd0       ??_E?$DrawCommon@NNHHNNEH@@UEAAPEAXI@Z 000000018003ecd0 f i insertShapeUtilsCore.obj
 0001:0003dd10       ??_E?$DrawFilledPolygon@EEHHMMEE@@UEAAPEAXI@Z 000000018003ed10 f i insertShapeUtilsCore.obj
 0001:0003dd10       ??_G?$DrawFilledPolygon@EEHHMMEE@@UEAAPEAXI@Z 000000018003ed10 f i insertShapeUtilsCore.obj
 0001:0003dd50       ??_E?$DrawFilledPolygon@EEHHMMEH@@UEAAPEAXI@Z 000000018003ed50 f i insertShapeUtilsCore.obj
 0001:0003dd50       ??_G?$DrawFilledPolygon@EEHHMMEH@@UEAAPEAXI@Z 000000018003ed50 f i insertShapeUtilsCore.obj
 0001:0003dd90       ??_E?$DrawFilledPolygon@FFHHMMEE@@UEAAPEAXI@Z 000000018003ed90 f i insertShapeUtilsCore.obj
 0001:0003dd90       ??_G?$DrawFilledPolygon@FFHHMMEE@@UEAAPEAXI@Z 000000018003ed90 f i insertShapeUtilsCore.obj
 0001:0003ddd0       ??_E?$DrawFilledPolygon@FFHHMMEH@@UEAAPEAXI@Z 000000018003edd0 f i insertShapeUtilsCore.obj
 0001:0003ddd0       ??_G?$DrawFilledPolygon@FFHHMMEH@@UEAAPEAXI@Z 000000018003edd0 f i insertShapeUtilsCore.obj
 0001:0003de10       ??_G?$DrawFilledPolygon@GGHHMMEE@@UEAAPEAXI@Z 000000018003ee10 f i insertShapeUtilsCore.obj
 0001:0003de10       ??_E?$DrawFilledPolygon@GGHHMMEE@@UEAAPEAXI@Z 000000018003ee10 f i insertShapeUtilsCore.obj
 0001:0003de50       ??_E?$DrawFilledPolygon@GGHHMMEH@@UEAAPEAXI@Z 000000018003ee50 f i insertShapeUtilsCore.obj
 0001:0003de50       ??_G?$DrawFilledPolygon@GGHHMMEH@@UEAAPEAXI@Z 000000018003ee50 f i insertShapeUtilsCore.obj
 0001:0003de90       ??_E?$DrawFilledPolygon@MMHHMMEE@@UEAAPEAXI@Z 000000018003ee90 f i insertShapeUtilsCore.obj
 0001:0003de90       ??_G?$DrawFilledPolygon@MMHHMMEE@@UEAAPEAXI@Z 000000018003ee90 f i insertShapeUtilsCore.obj
 0001:0003ded0       ??_G?$DrawFilledPolygon@MMHHMMEH@@UEAAPEAXI@Z 000000018003eed0 f i insertShapeUtilsCore.obj
 0001:0003ded0       ??_E?$DrawFilledPolygon@MMHHMMEH@@UEAAPEAXI@Z 000000018003eed0 f i insertShapeUtilsCore.obj
 0001:0003df10       ??_E?$DrawFilledPolygon@NNHHNNEE@@UEAAPEAXI@Z 000000018003ef10 f i insertShapeUtilsCore.obj
 0001:0003df10       ??_G?$DrawFilledPolygon@NNHHNNEE@@UEAAPEAXI@Z 000000018003ef10 f i insertShapeUtilsCore.obj
 0001:0003df50       ??_G?$DrawFilledPolygon@NNHHNNEH@@UEAAPEAXI@Z 000000018003ef50 f i insertShapeUtilsCore.obj
 0001:0003df50       ??_E?$DrawFilledPolygon@NNHHNNEH@@UEAAPEAXI@Z 000000018003ef50 f i insertShapeUtilsCore.obj
 0001:0003df90       ??_G?$DrawFilledRectangle@EEHHMME@@UEAAPEAXI@Z 000000018003ef90 f i insertShapeUtilsCore.obj
 0001:0003df90       ??_E?$DrawFilledRectangle@EEHHMME@@UEAAPEAXI@Z 000000018003ef90 f i insertShapeUtilsCore.obj
 0001:0003dfd0       ??_G?$DrawFilledRectangle@FFHHMME@@UEAAPEAXI@Z 000000018003efd0 f i insertShapeUtilsCore.obj
 0001:0003dfd0       ??_E?$DrawFilledRectangle@FFHHMME@@UEAAPEAXI@Z 000000018003efd0 f i insertShapeUtilsCore.obj
 0001:0003e010       ??_G?$DrawFilledRectangle@GGHHMME@@UEAAPEAXI@Z 000000018003f010 f i insertShapeUtilsCore.obj
 0001:0003e010       ??_E?$DrawFilledRectangle@GGHHMME@@UEAAPEAXI@Z 000000018003f010 f i insertShapeUtilsCore.obj
 0001:0003e050       ??_G?$DrawFilledRectangle@MMHHMME@@UEAAPEAXI@Z 000000018003f050 f i insertShapeUtilsCore.obj
 0001:0003e050       ??_E?$DrawFilledRectangle@MMHHMME@@UEAAPEAXI@Z 000000018003f050 f i insertShapeUtilsCore.obj
 0001:0003e090       ??_G?$DrawFilledRectangle@NNHHNNE@@UEAAPEAXI@Z 000000018003f090 f i insertShapeUtilsCore.obj
 0001:0003e090       ??_E?$DrawFilledRectangle@NNHHNNE@@UEAAPEAXI@Z 000000018003f090 f i insertShapeUtilsCore.obj
 0001:0003e0d0       ??_E?$DrawFilledRectangleAnySize@EEHHMME@@UEAAPEAXI@Z 000000018003f0d0 f i insertShapeUtilsCore.obj
 0001:0003e0d0       ??_G?$DrawFilledRectangleAnySize@EEHHMME@@UEAAPEAXI@Z 000000018003f0d0 f i insertShapeUtilsCore.obj
 0001:0003e110       ??_G?$DrawFilledRectangleAnySize@FFHHMME@@UEAAPEAXI@Z 000000018003f110 f i insertShapeUtilsCore.obj
 0001:0003e110       ??_E?$DrawFilledRectangleAnySize@FFHHMME@@UEAAPEAXI@Z 000000018003f110 f i insertShapeUtilsCore.obj
 0001:0003e150       ??_G?$DrawFilledRectangleAnySize@GGHHMME@@UEAAPEAXI@Z 000000018003f150 f i insertShapeUtilsCore.obj
 0001:0003e150       ??_E?$DrawFilledRectangleAnySize@GGHHMME@@UEAAPEAXI@Z 000000018003f150 f i insertShapeUtilsCore.obj
 0001:0003e190       ??_G?$DrawFilledRectangleAnySize@MMHHMME@@UEAAPEAXI@Z 000000018003f190 f i insertShapeUtilsCore.obj
 0001:0003e190       ??_E?$DrawFilledRectangleAnySize@MMHHMME@@UEAAPEAXI@Z 000000018003f190 f i insertShapeUtilsCore.obj
 0001:0003e1d0       ??_E?$DrawFilledRectangleAnySize@NNHHNNE@@UEAAPEAXI@Z 000000018003f1d0 f i insertShapeUtilsCore.obj
 0001:0003e1d0       ??_G?$DrawFilledRectangleAnySize@NNHHNNE@@UEAAPEAXI@Z 000000018003f1d0 f i insertShapeUtilsCore.obj
 0001:0003e210       ??_E?$DrawLine@EEHHMMEE@@UEAAPEAXI@Z 000000018003f210 f i insertShapeUtilsCore.obj
 0001:0003e210       ??_G?$DrawLine@EEHHMMEE@@UEAAPEAXI@Z 000000018003f210 f i insertShapeUtilsCore.obj
 0001:0003e250       ??_G?$DrawLine@EEHHMMEH@@UEAAPEAXI@Z 000000018003f250 f i insertShapeUtilsCore.obj
 0001:0003e250       ??_E?$DrawLine@EEHHMMEH@@UEAAPEAXI@Z 000000018003f250 f i insertShapeUtilsCore.obj
 0001:0003e290       ??_E?$DrawLine@FFHHMMEE@@UEAAPEAXI@Z 000000018003f290 f i insertShapeUtilsCore.obj
 0001:0003e290       ??_G?$DrawLine@FFHHMMEE@@UEAAPEAXI@Z 000000018003f290 f i insertShapeUtilsCore.obj
 0001:0003e2d0       ??_E?$DrawLine@FFHHMMEH@@UEAAPEAXI@Z 000000018003f2d0 f i insertShapeUtilsCore.obj
 0001:0003e2d0       ??_G?$DrawLine@FFHHMMEH@@UEAAPEAXI@Z 000000018003f2d0 f i insertShapeUtilsCore.obj
 0001:0003e310       ??_G?$DrawLine@GGHHMMEE@@UEAAPEAXI@Z 000000018003f310 f i insertShapeUtilsCore.obj
 0001:0003e310       ??_E?$DrawLine@GGHHMMEE@@UEAAPEAXI@Z 000000018003f310 f i insertShapeUtilsCore.obj
 0001:0003e350       ??_G?$DrawLine@GGHHMMEH@@UEAAPEAXI@Z 000000018003f350 f i insertShapeUtilsCore.obj
 0001:0003e350       ??_E?$DrawLine@GGHHMMEH@@UEAAPEAXI@Z 000000018003f350 f i insertShapeUtilsCore.obj
 0001:0003e390       ??_G?$DrawLine@MMHHMMEE@@UEAAPEAXI@Z 000000018003f390 f i insertShapeUtilsCore.obj
 0001:0003e390       ??_E?$DrawLine@MMHHMMEE@@UEAAPEAXI@Z 000000018003f390 f i insertShapeUtilsCore.obj
 0001:0003e3d0       ??_E?$DrawLine@MMHHMMEH@@UEAAPEAXI@Z 000000018003f3d0 f i insertShapeUtilsCore.obj
 0001:0003e3d0       ??_G?$DrawLine@MMHHMMEH@@UEAAPEAXI@Z 000000018003f3d0 f i insertShapeUtilsCore.obj
 0001:0003e410       ??_E?$DrawLine@NNHHNNEE@@UEAAPEAXI@Z 000000018003f410 f i insertShapeUtilsCore.obj
 0001:0003e410       ??_G?$DrawLine@NNHHNNEE@@UEAAPEAXI@Z 000000018003f410 f i insertShapeUtilsCore.obj
 0001:0003e450       ??_E?$DrawLine@NNHHNNEH@@UEAAPEAXI@Z 000000018003f450 f i insertShapeUtilsCore.obj
 0001:0003e450       ??_G?$DrawLine@NNHHNNEH@@UEAAPEAXI@Z 000000018003f450 f i insertShapeUtilsCore.obj
 0001:0003e490       ??_G?$DrawMarkerLine@EEHHMMEE@@UEAAPEAXI@Z 000000018003f490 f i insertShapeUtilsCore.obj
 0001:0003e490       ??_E?$DrawMarkerLine@EEHHMMEE@@UEAAPEAXI@Z 000000018003f490 f i insertShapeUtilsCore.obj
 0001:0003e4d0       ??_G?$DrawMarkerLine@FFHHMMEE@@UEAAPEAXI@Z 000000018003f4d0 f i insertShapeUtilsCore.obj
 0001:0003e4d0       ??_E?$DrawMarkerLine@FFHHMMEE@@UEAAPEAXI@Z 000000018003f4d0 f i insertShapeUtilsCore.obj
 0001:0003e510       ??_G?$DrawMarkerLine@GGHHMMEE@@UEAAPEAXI@Z 000000018003f510 f i insertShapeUtilsCore.obj
 0001:0003e510       ??_E?$DrawMarkerLine@GGHHMMEE@@UEAAPEAXI@Z 000000018003f510 f i insertShapeUtilsCore.obj
 0001:0003e550       ??_G?$DrawMarkerLine@MMHHMMEE@@UEAAPEAXI@Z 000000018003f550 f i insertShapeUtilsCore.obj
 0001:0003e550       ??_E?$DrawMarkerLine@MMHHMMEE@@UEAAPEAXI@Z 000000018003f550 f i insertShapeUtilsCore.obj
 0001:0003e590       ??_E?$DrawMarkerLine@NNHHNNEE@@UEAAPEAXI@Z 000000018003f590 f i insertShapeUtilsCore.obj
 0001:0003e590       ??_G?$DrawMarkerLine@NNHHNNEE@@UEAAPEAXI@Z 000000018003f590 f i insertShapeUtilsCore.obj
 0001:0003e5d0       ??_G?$DrawPolygon@EEHHMMEE@@UEAAPEAXI@Z 000000018003f5d0 f i insertShapeUtilsCore.obj
 0001:0003e5d0       ??_E?$DrawPolygon@EEHHMMEE@@UEAAPEAXI@Z 000000018003f5d0 f i insertShapeUtilsCore.obj
 0001:0003e610       ??_E?$DrawPolygon@EEHHMMEH@@UEAAPEAXI@Z 000000018003f610 f i insertShapeUtilsCore.obj
 0001:0003e610       ??_G?$DrawPolygon@EEHHMMEH@@UEAAPEAXI@Z 000000018003f610 f i insertShapeUtilsCore.obj
 0001:0003e650       ??_G?$DrawPolygon@FFHHMMEE@@UEAAPEAXI@Z 000000018003f650 f i insertShapeUtilsCore.obj
 0001:0003e650       ??_E?$DrawPolygon@FFHHMMEE@@UEAAPEAXI@Z 000000018003f650 f i insertShapeUtilsCore.obj
 0001:0003e690       ??_E?$DrawPolygon@FFHHMMEH@@UEAAPEAXI@Z 000000018003f690 f i insertShapeUtilsCore.obj
 0001:0003e690       ??_G?$DrawPolygon@FFHHMMEH@@UEAAPEAXI@Z 000000018003f690 f i insertShapeUtilsCore.obj
 0001:0003e6d0       ??_G?$DrawPolygon@GGHHMMEE@@UEAAPEAXI@Z 000000018003f6d0 f i insertShapeUtilsCore.obj
 0001:0003e6d0       ??_E?$DrawPolygon@GGHHMMEE@@UEAAPEAXI@Z 000000018003f6d0 f i insertShapeUtilsCore.obj
 0001:0003e710       ??_E?$DrawPolygon@GGHHMMEH@@UEAAPEAXI@Z 000000018003f710 f i insertShapeUtilsCore.obj
 0001:0003e710       ??_G?$DrawPolygon@GGHHMMEH@@UEAAPEAXI@Z 000000018003f710 f i insertShapeUtilsCore.obj
 0001:0003e750       ??_E?$DrawPolygon@MMHHMMEE@@UEAAPEAXI@Z 000000018003f750 f i insertShapeUtilsCore.obj
 0001:0003e750       ??_G?$DrawPolygon@MMHHMMEE@@UEAAPEAXI@Z 000000018003f750 f i insertShapeUtilsCore.obj
 0001:0003e790       ??_G?$DrawPolygon@MMHHMMEH@@UEAAPEAXI@Z 000000018003f790 f i insertShapeUtilsCore.obj
 0001:0003e790       ??_E?$DrawPolygon@MMHHMMEH@@UEAAPEAXI@Z 000000018003f790 f i insertShapeUtilsCore.obj
 0001:0003e7d0       ??_G?$DrawPolygon@NNHHNNEE@@UEAAPEAXI@Z 000000018003f7d0 f i insertShapeUtilsCore.obj
 0001:0003e7d0       ??_E?$DrawPolygon@NNHHNNEE@@UEAAPEAXI@Z 000000018003f7d0 f i insertShapeUtilsCore.obj
 0001:0003e810       ??_G?$DrawPolygon@NNHHNNEH@@UEAAPEAXI@Z 000000018003f810 f i insertShapeUtilsCore.obj
 0001:0003e810       ??_E?$DrawPolygon@NNHHNNEH@@UEAAPEAXI@Z 000000018003f810 f i insertShapeUtilsCore.obj
 0001:0003e850       ??_G?$DrawRectangleAnySize@EEHHMME@@UEAAPEAXI@Z 000000018003f850 f i insertShapeUtilsCore.obj
 0001:0003e850       ??_E?$DrawRectangleAnySize@EEHHMME@@UEAAPEAXI@Z 000000018003f850 f i insertShapeUtilsCore.obj
 0001:0003e890       ??_E?$DrawRectangleAnySize@FFHHMME@@UEAAPEAXI@Z 000000018003f890 f i insertShapeUtilsCore.obj
 0001:0003e890       ??_G?$DrawRectangleAnySize@FFHHMME@@UEAAPEAXI@Z 000000018003f890 f i insertShapeUtilsCore.obj
 0001:0003e8d0       ??_E?$DrawRectangleAnySize@GGHHMME@@UEAAPEAXI@Z 000000018003f8d0 f i insertShapeUtilsCore.obj
 0001:0003e8d0       ??_G?$DrawRectangleAnySize@GGHHMME@@UEAAPEAXI@Z 000000018003f8d0 f i insertShapeUtilsCore.obj
 0001:0003e910       ??_G?$DrawRectangleAnySize@MMHHMME@@UEAAPEAXI@Z 000000018003f910 f i insertShapeUtilsCore.obj
 0001:0003e910       ??_E?$DrawRectangleAnySize@MMHHMME@@UEAAPEAXI@Z 000000018003f910 f i insertShapeUtilsCore.obj
 0001:0003e950       ??_G?$DrawRectangleAnySize@NNHHNNE@@UEAAPEAXI@Z 000000018003f950 f i insertShapeUtilsCore.obj
 0001:0003e950       ??_E?$DrawRectangleAnySize@NNHHNNE@@UEAAPEAXI@Z 000000018003f950 f i insertShapeUtilsCore.obj
 0001:0003e990       ??_G?$ScanLine@HHE@@UEAAPEAXI@Z 000000018003f990 f i insertShapeUtilsCore.obj
 0001:0003e990       ??_E?$ScanLine@HHE@@UEAAPEAXI@Z 000000018003f990 f i insertShapeUtilsCore.obj
 0001:0003e9d0       ??_E?$ScanLine@HHH@@UEAAPEAXI@Z 000000018003f9d0 f i insertShapeUtilsCore.obj
 0001:0003e9d0       ??_G?$ScanLine@HHH@@UEAAPEAXI@Z 000000018003f9d0 f i insertShapeUtilsCore.obj
 0001:0003ea10       ??_E?$ScanLineBase@HHE@@UEAAPEAXI@Z 000000018003fa10 f i insertShapeUtilsCore.obj
 0001:0003ea10       ??_G?$ScanLineBase@HHE@@UEAAPEAXI@Z 000000018003fa10 f i insertShapeUtilsCore.obj
 0001:0003ea50       ??_E?$ScanLineBase@HHH@@UEAAPEAXI@Z 000000018003fa50 f i insertShapeUtilsCore.obj
 0001:0003ea50       ??_G?$ScanLineBase@HHH@@UEAAPEAXI@Z 000000018003fa50 f i insertShapeUtilsCore.obj
 0001:0003ea90       ??_EDrawBase@@UEAAPEAXI@Z  000000018003fa90 f i insertShapeUtilsCore.obj
 0001:0003ea90       ??_GDrawBase@@UEAAPEAXI@Z  000000018003fa90 f i insertShapeUtilsCore.obj
 0001:0003ead0       ?AbsoluteValue@?$BresenhamLine@HE@@AEAAHH@Z 000000018003fad0 f i insertShapeUtilsCore.obj
 0001:0003eb00       ?AbsoluteValue@?$BresenhamLine@HH@@AEAAHH@Z 000000018003fb00 f i insertShapeUtilsCore.obj
 0001:0003eb30       ?ApplyOpacity@?$DrawCommon@EEHHMMEE@@AEAAXPEAMHHE@Z 000000018003fb30 f i insertShapeUtilsCore.obj
 0001:0003eb50       ?ApplyOpacity@?$DrawCommon@EEHHMMEH@@AEAAXPEAMHHH@Z 000000018003fb50 f i insertShapeUtilsCore.obj
 0001:0003eba0       ?ApplyOpacity@?$DrawCommon@FFHHMMEE@@AEAAXPEAMHHE@Z 000000018003fba0 f i insertShapeUtilsCore.obj
 0001:0003ebc0       ?ApplyOpacity@?$DrawCommon@FFHHMMEH@@AEAAXPEAMHHH@Z 000000018003fbc0 f i insertShapeUtilsCore.obj
 0001:0003ec10       ?ApplyOpacity@?$DrawCommon@GGHHMMEE@@AEAAXPEAMHHE@Z 000000018003fc10 f i insertShapeUtilsCore.obj
 0001:0003ec30       ?ApplyOpacity@?$DrawCommon@GGHHMMEH@@AEAAXPEAMHHH@Z 000000018003fc30 f i insertShapeUtilsCore.obj
 0001:0003ec80       ?ApplyOpacity@?$DrawCommon@MMHHMMEE@@AEAAXPEAMHHE@Z 000000018003fc80 f i insertShapeUtilsCore.obj
 0001:0003eca0       ?ApplyOpacity@?$DrawCommon@MMHHMMEH@@AEAAXPEAMHHH@Z 000000018003fca0 f i insertShapeUtilsCore.obj
 0001:0003ecf0       ?ApplyOpacity@?$DrawCommon@NNHHNNEE@@AEAAXPEANHHE@Z 000000018003fcf0 f i insertShapeUtilsCore.obj
 0001:0003ed10       ?ApplyOpacity@?$DrawCommon@NNHHNNEH@@AEAAXPEANHHH@Z 000000018003fd10 f i insertShapeUtilsCore.obj
 0001:0003ed60       ?BresenhamLineIni@?$Polygon@HHE@@AEAAXHHHHH@Z 000000018003fd60 f i insertShapeUtilsCore.obj
 0001:0003eff0       ?BresenhamLineIni@?$Polygon@HHH@@AEAAXHHHHH@Z 000000018003fff0 f i insertShapeUtilsCore.obj
 0001:0003f280       ?BresenhamLineMerge@?$Polygon@HHE@@AEAAEHH@Z 0000000180040280 f i insertShapeUtilsCore.obj
 0001:0003f470       ?BresenhamLineMerge@?$Polygon@HHH@@AEAAEHH@Z 0000000180040470 f i insertShapeUtilsCore.obj
 0001:0003f660       ?BresenhamLineNextColumn@?$Polygon@HHE@@AEAAXH@Z 0000000180040660 f i insertShapeUtilsCore.obj
 0001:0003f7c0       ?BresenhamLineNextColumn@?$Polygon@HHH@@AEAAXH@Z 00000001800407c0 f i insertShapeUtilsCore.obj
 0001:0003f920       ?BresenhamLineStepBack@?$Polygon@HHE@@AEAAXH@Z 0000000180040920 f i insertShapeUtilsCore.obj
 0001:0003f960       ?BresenhamLineStepBack@?$Polygon@HHH@@AEAAXH@Z 0000000180040960 f i insertShapeUtilsCore.obj
 0001:0003f9a0       ?CalculateIndex@?$BresenhamLine@HH@@QEAAHHH@Z 00000001800409a0 f i insertShapeUtilsCore.obj
 0001:0003f9d0       ?CleanUp@?$DrawCommon@EEHHMMEE@@UEAAXXZ 00000001800409d0 f i insertShapeUtilsCore.obj
 0001:0003fa70       ?CleanUp@?$DrawCommon@EEHHMMEH@@UEAAXXZ 0000000180040a70 f i insertShapeUtilsCore.obj
 0001:0003fb10       ?CleanUp@?$DrawCommon@FFHHMMEE@@UEAAXXZ 0000000180040b10 f i insertShapeUtilsCore.obj
 0001:0003fbb0       ?CleanUp@?$DrawCommon@FFHHMMEH@@UEAAXXZ 0000000180040bb0 f i insertShapeUtilsCore.obj
 0001:0003fc50       ?CleanUp@?$DrawCommon@GGHHMMEE@@UEAAXXZ 0000000180040c50 f i insertShapeUtilsCore.obj
 0001:0003fcf0       ?CleanUp@?$DrawCommon@GGHHMMEH@@UEAAXXZ 0000000180040cf0 f i insertShapeUtilsCore.obj
 0001:0003fd90       ?CleanUp@?$DrawCommon@MMHHMMEE@@UEAAXXZ 0000000180040d90 f i insertShapeUtilsCore.obj
 0001:0003fe30       ?CleanUp@?$DrawCommon@MMHHMMEH@@UEAAXXZ 0000000180040e30 f i insertShapeUtilsCore.obj
 0001:0003fed0       ?CleanUp@?$DrawCommon@NNHHNNEE@@UEAAXXZ 0000000180040ed0 f i insertShapeUtilsCore.obj
 0001:0003ff70       ?CleanUp@?$DrawCommon@NNHHNNEH@@UEAAXXZ 0000000180040f70 f i insertShapeUtilsCore.obj
 0001:00040010       ?ConvertVerticesToEdges@?$Polygon@HHE@@AEAAEXZ 0000000180041010 f i insertShapeUtilsCore.obj
 0001:00040650       ?ConvertVerticesToEdges@?$Polygon@HHH@@AEAAEXZ 0000000180041650 f i insertShapeUtilsCore.obj
 0001:00040c90       ?CopyEdge@?$Polygon@HHE@@AEAAXPEAH0HH@Z 0000000180041c90 f i insertShapeUtilsCore.obj
 0001:00040cf0       ?CopyEdge@?$Polygon@HHH@@AEAAXPEAH0HH@Z 0000000180041cf0 f i insertShapeUtilsCore.obj
 0001:00040d50       ?CountSubPixel@?$DrawCommon@EEHHMMEE@@IEAAXHHHHAEAH0HH@Z 0000000180041d50 f i insertShapeUtilsCore.obj
 0001:00040f30       ?CountSubPixel@?$DrawCommon@EEHHMMEH@@IEAAXHHHHAEAH0HH@Z 0000000180041f30 f i insertShapeUtilsCore.obj
 0001:00041110       ?CountSubPixel@?$DrawCommon@FFHHMMEE@@IEAAXHHHHAEAH0HH@Z 0000000180042110 f i insertShapeUtilsCore.obj
 0001:000412f0       ?CountSubPixel@?$DrawCommon@FFHHMMEH@@IEAAXHHHHAEAH0HH@Z 00000001800422f0 f i insertShapeUtilsCore.obj
 0001:000414d0       ?CountSubPixel@?$DrawCommon@GGHHMMEE@@IEAAXHHHHAEAH0HH@Z 00000001800424d0 f i insertShapeUtilsCore.obj
 0001:000416b0       ?CountSubPixel@?$DrawCommon@GGHHMMEH@@IEAAXHHHHAEAH0HH@Z 00000001800426b0 f i insertShapeUtilsCore.obj
 0001:00041890       ?CountSubPixel@?$DrawCommon@MMHHMMEE@@IEAAXHHHHAEAH0HH@Z 0000000180042890 f i insertShapeUtilsCore.obj
 0001:00041a70       ?CountSubPixel@?$DrawCommon@MMHHMMEH@@IEAAXHHHHAEAH0HH@Z 0000000180042a70 f i insertShapeUtilsCore.obj
 0001:00041c50       ?CountSubPixel@?$DrawCommon@NNHHNNEE@@IEAAXHHHHAEAH0HH@Z 0000000180042c50 f i insertShapeUtilsCore.obj
 0001:00041e30       ?CountSubPixel@?$DrawCommon@NNHHNNEH@@IEAAXHHHHAEAH0HH@Z 0000000180042e30 f i insertShapeUtilsCore.obj
 0001:00042010       ?DownScale@?$DrawCommon@EEHHMMEE@@AEAAXAEAM@Z 0000000180043010 f i insertShapeUtilsCore.obj
 0001:00042040       ?DownScale@?$DrawCommon@EEHHMMEH@@AEAAXAEAM@Z 0000000180043040 f i insertShapeUtilsCore.obj
 0001:00042070       ?DownScale@?$DrawCommon@FFHHMMEE@@AEAAXAEAM@Z 0000000180043070 f i insertShapeUtilsCore.obj
 0001:000420a0       ?DownScale@?$DrawCommon@FFHHMMEH@@AEAAXAEAM@Z 00000001800430a0 f i insertShapeUtilsCore.obj
 0001:000420d0       ?DownScale@?$DrawCommon@GGHHMMEE@@AEAAXAEAM@Z 00000001800430d0 f i insertShapeUtilsCore.obj
 0001:00042100       ?DownScale@?$DrawCommon@GGHHMMEH@@AEAAXAEAM@Z 0000000180043100 f i insertShapeUtilsCore.obj
 0001:00042130       ?DownScale@?$DrawCommon@MMHHMMEE@@AEAAXAEAM@Z 0000000180043130 f i insertShapeUtilsCore.obj
 0001:00042160       ?DownScale@?$DrawCommon@MMHHMMEH@@AEAAXAEAM@Z 0000000180043160 f i insertShapeUtilsCore.obj
 0001:00042190       ?DownScale@?$DrawCommon@NNHHNNEE@@AEAAXAEAN@Z 0000000180043190 f i insertShapeUtilsCore.obj
 0001:000421c0       ?DownScale@?$DrawCommon@NNHHNNEH@@AEAAXAEAN@Z 00000001800431c0 f i insertShapeUtilsCore.obj
 0001:000421f0       ?DrawLineAndResetStates@?$DrawCircle@EEHHMMEEE@@AEAAXHHAEAH0H@Z 00000001800431f0 f i insertShapeUtilsCore.obj
 0001:000423d0       ?DrawLineAndResetStates@?$DrawCircle@EEHHMMEEH@@AEAAXHHAEAH0H@Z 00000001800433d0 f i insertShapeUtilsCore.obj
 0001:000425b0       ?DrawLineAndResetStates@?$DrawCircle@EEHHMMEHH@@AEAAXHHAEAH0H@Z 00000001800435b0 f i insertShapeUtilsCore.obj
 0001:00042790       ?DrawLineAndResetStates@?$DrawCircle@FFHHMMEEE@@AEAAXHHAEAH0H@Z 0000000180043790 f i insertShapeUtilsCore.obj
 0001:00042970       ?DrawLineAndResetStates@?$DrawCircle@FFHHMMEEH@@AEAAXHHAEAH0H@Z 0000000180043970 f i insertShapeUtilsCore.obj
 0001:00042b50       ?DrawLineAndResetStates@?$DrawCircle@FFHHMMEHH@@AEAAXHHAEAH0H@Z 0000000180043b50 f i insertShapeUtilsCore.obj
 0001:00042d30       ?DrawLineAndResetStates@?$DrawCircle@GGHHMMEEE@@AEAAXHHAEAH0H@Z 0000000180043d30 f i insertShapeUtilsCore.obj
 0001:00042f10       ?DrawLineAndResetStates@?$DrawCircle@GGHHMMEEH@@AEAAXHHAEAH0H@Z 0000000180043f10 f i insertShapeUtilsCore.obj
 0001:000430f0       ?DrawLineAndResetStates@?$DrawCircle@GGHHMMEHH@@AEAAXHHAEAH0H@Z 00000001800440f0 f i insertShapeUtilsCore.obj
 0001:000432d0       ?DrawLineAndResetStates@?$DrawCircle@MMHHMMEEE@@AEAAXHHAEAH0H@Z 00000001800442d0 f i insertShapeUtilsCore.obj
 0001:000434b0       ?DrawLineAndResetStates@?$DrawCircle@MMHHMMEEH@@AEAAXHHAEAH0H@Z 00000001800444b0 f i insertShapeUtilsCore.obj
 0001:00043690       ?DrawLineAndResetStates@?$DrawCircle@MMHHMMEHH@@AEAAXHHAEAH0H@Z 0000000180044690 f i insertShapeUtilsCore.obj
 0001:00043870       ?DrawLineAndResetStates@?$DrawCircle@NNHHNNEEE@@AEAAXHHAEAH0H@Z 0000000180044870 f i insertShapeUtilsCore.obj
 0001:00043a50       ?DrawLineAndResetStates@?$DrawCircle@NNHHNNEEH@@AEAAXHHAEAH0H@Z 0000000180044a50 f i insertShapeUtilsCore.obj
 0001:00043c30       ?DrawLineAndResetStates@?$DrawCircle@NNHHNNEHH@@AEAAXHHAEAH0H@Z 0000000180044c30 f i insertShapeUtilsCore.obj
 0001:00043e10       ?GetAndAdvanceSeparator@?$Polygon@HHE@@QEAAHXZ 0000000180044e10 f i insertShapeUtilsCore.obj
 0001:00043e50       ?GetAndAdvanceSeparator@?$Polygon@HHH@@QEAAHXZ 0000000180044e50 f i insertShapeUtilsCore.obj
 0001:00043e90       ?GetClrIdx@?$DrawCommon@EEHHMMEE@@AEAAHH@Z 0000000180044e90 f i insertShapeUtilsCore.obj
 0001:00043ea0       ?GetClrIdx@?$DrawCommon@EEHHMMEH@@AEAAHH@Z 0000000180044ea0 f i insertShapeUtilsCore.obj
 0001:00043eb0       ?GetClrIdx@?$DrawCommon@FFHHMMEE@@AEAAHH@Z 0000000180044eb0 f i insertShapeUtilsCore.obj
 0001:00043ec0       ?GetClrIdx@?$DrawCommon@FFHHMMEH@@AEAAHH@Z 0000000180044ec0 f i insertShapeUtilsCore.obj
 0001:00043ed0       ?GetClrIdx@?$DrawCommon@GGHHMMEE@@AEAAHH@Z 0000000180044ed0 f i insertShapeUtilsCore.obj
 0001:00043ee0       ?GetClrIdx@?$DrawCommon@GGHHMMEH@@AEAAHH@Z 0000000180044ee0 f i insertShapeUtilsCore.obj
 0001:00043ef0       ?GetClrIdx@?$DrawCommon@MMHHMMEE@@AEAAHH@Z 0000000180044ef0 f i insertShapeUtilsCore.obj
 0001:00043f00       ?GetClrIdx@?$DrawCommon@MMHHMMEH@@AEAAHH@Z 0000000180044f00 f i insertShapeUtilsCore.obj
 0001:00043f10       ?GetClrIdx@?$DrawCommon@NNHHNNEE@@AEAAHH@Z 0000000180044f10 f i insertShapeUtilsCore.obj
 0001:00043f20       ?GetClrIdx@?$DrawCommon@NNHHNNEH@@AEAAHH@Z 0000000180044f20 f i insertShapeUtilsCore.obj
 0001:00043f30       ?GetFirstCol@?$Polygon@HHE@@QEAAHXZ 0000000180044f30 f i insertShapeUtilsCore.obj
 0001:00043fc0       ?GetFirstCol@?$Polygon@HHH@@QEAAHXZ 0000000180044fc0 f i insertShapeUtilsCore.obj
 0001:00044050       ?GetIdxPix@?$BresenhamLine@HE@@QEAAHXZ 0000000180045050 f i insertShapeUtilsCore.obj
 0001:00044060       ?GetLastCol@?$Polygon@HHE@@QEAAHXZ 0000000180045060 f i insertShapeUtilsCore.obj
 0001:000440f0       ?GetLastCol@?$Polygon@HHH@@QEAAHXZ 00000001800450f0 f i insertShapeUtilsCore.obj
 0001:00044180       ?GetNextClrIdx@?$DrawCommon@EEHHMMEE@@AEAAHH@Z 0000000180045180 f i insertShapeUtilsCore.obj
 0001:00044190       ?GetNextClrIdx@?$DrawCommon@EEHHMMEH@@AEAAHH@Z 0000000180045190 f i insertShapeUtilsCore.obj
 0001:000441a0       ?GetNextClrIdx@?$DrawCommon@FFHHMMEE@@AEAAHH@Z 00000001800451a0 f i insertShapeUtilsCore.obj
 0001:000441b0       ?GetNextClrIdx@?$DrawCommon@FFHHMMEH@@AEAAHH@Z 00000001800451b0 f i insertShapeUtilsCore.obj
 0001:000441c0       ?GetNextClrIdx@?$DrawCommon@GGHHMMEE@@AEAAHH@Z 00000001800451c0 f i insertShapeUtilsCore.obj
 0001:000441d0       ?GetNextClrIdx@?$DrawCommon@GGHHMMEH@@AEAAHH@Z 00000001800451d0 f i insertShapeUtilsCore.obj
 0001:000441e0       ?GetNextClrIdx@?$DrawCommon@MMHHMMEE@@AEAAHH@Z 00000001800451e0 f i insertShapeUtilsCore.obj
 0001:000441f0       ?GetNextClrIdx@?$DrawCommon@MMHHMMEH@@AEAAHH@Z 00000001800451f0 f i insertShapeUtilsCore.obj
 0001:00044200       ?GetNextClrIdx@?$DrawCommon@NNHHNNEE@@AEAAHH@Z 0000000180045200 f i insertShapeUtilsCore.obj
 0001:00044210       ?GetNextClrIdx@?$DrawCommon@NNHHNNEH@@AEAAHH@Z 0000000180045210 f i insertShapeUtilsCore.obj
 0001:00044220       ?GetNextSubClrIdx@?$DrawCommon@EEHHMMEE@@AEAAHH@Z 0000000180045220 f i insertShapeUtilsCore.obj
 0001:00044240       ?GetNextSubClrIdx@?$DrawCommon@EEHHMMEH@@AEAAHH@Z 0000000180045240 f i insertShapeUtilsCore.obj
 0001:00044260       ?GetNextSubClrIdx@?$DrawCommon@FFHHMMEE@@AEAAHH@Z 0000000180045260 f i insertShapeUtilsCore.obj
 0001:00044280       ?GetNextSubClrIdx@?$DrawCommon@FFHHMMEH@@AEAAHH@Z 0000000180045280 f i insertShapeUtilsCore.obj
 0001:000442a0       ?GetNextSubClrIdx@?$DrawCommon@GGHHMMEE@@AEAAHH@Z 00000001800452a0 f i insertShapeUtilsCore.obj
 0001:000442c0       ?GetNextSubClrIdx@?$DrawCommon@GGHHMMEH@@AEAAHH@Z 00000001800452c0 f i insertShapeUtilsCore.obj
 0001:000442e0       ?GetNextSubClrIdx@?$DrawCommon@MMHHMMEE@@AEAAHH@Z 00000001800452e0 f i insertShapeUtilsCore.obj
 0001:00044300       ?GetNextSubClrIdx@?$DrawCommon@MMHHMMEH@@AEAAHH@Z 0000000180045300 f i insertShapeUtilsCore.obj
 0001:00044320       ?GetNextSubClrIdx@?$DrawCommon@NNHHNNEE@@AEAAHH@Z 0000000180045320 f i insertShapeUtilsCore.obj
 0001:00044340       ?GetNextSubClrIdx@?$DrawCommon@NNHHNNEH@@AEAAHH@Z 0000000180045340 f i insertShapeUtilsCore.obj
 0001:00044360       ?GetPolygonBdy@?$ScanLine@HHE@@UEAAPEAV?$Polygon@HHE@@XZ 0000000180045360 f i insertShapeUtilsCore.obj
 0001:00044370       ?GetPolygonBdy@?$ScanLine@HHH@@UEAAPEAV?$Polygon@HHH@@XZ 0000000180045370 f i insertShapeUtilsCore.obj
 0001:00044380       ?GetPosition@?$BresenhamLine@HH@@QEAAHXZ 0000000180045380 f i insertShapeUtilsCore.obj
 0001:00044390       ?GetRow@?$MidPointFullCircle@H@@QEAAHXZ 0000000180045390 f i insertShapeUtilsCore.obj
 0001:000443d0       ?GetScanLine@?$ScanLineBase@HHE@@QEAAXAEAEAEAH11@Z 00000001800453d0 f i insertShapeUtilsCore.obj
 0001:00044750       ?GetScanLine@?$ScanLineBase@HHH@@QEAAXAEAEAEAH11@Z 0000000180045750 f i insertShapeUtilsCore.obj
 0001:00044ad0       ?GetSeparator@?$Polygon@HHE@@QEAAHXZ 0000000180045ad0 f i insertShapeUtilsCore.obj
 0001:00044b00       ?GetSeparator@?$Polygon@HHH@@QEAAHXZ 0000000180045b00 f i insertShapeUtilsCore.obj
 0001:00044b30       ?IniLayer@?$ScanLine@HHE@@UEAAXXZ 0000000180045b30 f i insertShapeUtilsCore.obj
 0001:00044c10       ?IniLayer@?$ScanLine@HHH@@UEAAXXZ 0000000180045c10 f i insertShapeUtilsCore.obj
 0001:00044cf0       ?IniPolygon@?$Polygon@HHE@@QEAAXE@Z 0000000180045cf0 f i insertShapeUtilsCore.obj
 0001:00044e30       ?IniPolygon@?$Polygon@HHH@@QEAAXE@Z 0000000180045e30 f i insertShapeUtilsCore.obj
 0001:00044f70       ?IniStates@?$ScanLine@HHE@@EEAAXXZ 0000000180045f70 f i insertShapeUtilsCore.obj
 0001:00044f90       ?IniStates@?$ScanLine@HHH@@EEAAXXZ 0000000180045f90 f i insertShapeUtilsCore.obj
 0001:00044fb0       ?Initialize@?$BresenhamLine@HE@@QEAAXPEAHH@Z 0000000180045fb0 f i insertShapeUtilsCore.obj
 0001:000452f0       ?Initialize@?$BresenhamLine@HH@@QEAAXPEAHH@Z 00000001800462f0 f i insertShapeUtilsCore.obj
 0001:00045630       ?Initialize@?$MidPointFullCircle@H@@QEAAXH@Z 0000000180046630 f i insertShapeUtilsCore.obj
 0001:00045690       ?InitializeViewPort@?$DrawCommon@EEHHMMEE@@AEAAXHH@Z 0000000180046690 f i insertShapeUtilsCore.obj
 0001:00045710       ?InitializeViewPort@?$DrawCommon@EEHHMMEH@@AEAAXHH@Z 0000000180046710 f i insertShapeUtilsCore.obj
 0001:00045790       ?InitializeViewPort@?$DrawCommon@FFHHMMEE@@AEAAXHH@Z 0000000180046790 f i insertShapeUtilsCore.obj
 0001:00045810       ?InitializeViewPort@?$DrawCommon@FFHHMMEH@@AEAAXHH@Z 0000000180046810 f i insertShapeUtilsCore.obj
 0001:00045890       ?InitializeViewPort@?$DrawCommon@GGHHMMEE@@AEAAXHH@Z 0000000180046890 f i insertShapeUtilsCore.obj
 0001:00045910       ?InitializeViewPort@?$DrawCommon@GGHHMMEH@@AEAAXHH@Z 0000000180046910 f i insertShapeUtilsCore.obj
 0001:00045990       ?InitializeViewPort@?$DrawCommon@MMHHMMEE@@AEAAXHH@Z 0000000180046990 f i insertShapeUtilsCore.obj
 0001:00045a10       ?InitializeViewPort@?$DrawCommon@MMHHMMEH@@AEAAXHH@Z 0000000180046a10 f i insertShapeUtilsCore.obj
 0001:00045a90       ?InitializeViewPort@?$DrawCommon@NNHHNNEE@@AEAAXHH@Z 0000000180046a90 f i insertShapeUtilsCore.obj
 0001:00045b10       ?InitializeViewPort@?$DrawCommon@NNHHNNEH@@AEAAXHH@Z 0000000180046b10 f i insertShapeUtilsCore.obj
 0001:00045b90       ?IsHorizontal@?$BresenhamLine@HH@@QEAAEXZ 0000000180046b90 f i insertShapeUtilsCore.obj
 0001:00045bc0       ?IsInRange@?$BresenhamLine@HE@@QEAAEXZ 0000000180046bc0 f i insertShapeUtilsCore.obj
 0001:00045bf0       ?IsInRange@?$BresenhamLine@HH@@QEAAEXZ 0000000180046bf0 f i insertShapeUtilsCore.obj
 0001:00045c20       ?IsInRange@?$MidPointFullCircle@H@@QEAAEXZ 0000000180046c20 f i insertShapeUtilsCore.obj
 0001:00045c50       ?IsMoreClr@?$DrawCommon@EEHHMMEE@@AEAAHH@Z 0000000180046c50 f i insertShapeUtilsCore.obj
 0001:00045ca0       ?IsMoreClr@?$DrawCommon@EEHHMMEH@@AEAAHH@Z 0000000180046ca0 f i insertShapeUtilsCore.obj
 0001:00045cf0       ?IsMoreClr@?$DrawCommon@FFHHMMEE@@AEAAHH@Z 0000000180046cf0 f i insertShapeUtilsCore.obj
 0001:00045d40       ?IsMoreClr@?$DrawCommon@FFHHMMEH@@AEAAHH@Z 0000000180046d40 f i insertShapeUtilsCore.obj
 0001:00045d90       ?IsMoreClr@?$DrawCommon@GGHHMMEE@@AEAAHH@Z 0000000180046d90 f i insertShapeUtilsCore.obj
 0001:00045de0       ?IsMoreClr@?$DrawCommon@GGHHMMEH@@AEAAHH@Z 0000000180046de0 f i insertShapeUtilsCore.obj
 0001:00045e30       ?IsMoreClr@?$DrawCommon@MMHHMMEE@@AEAAHH@Z 0000000180046e30 f i insertShapeUtilsCore.obj
 0001:00045e80       ?IsMoreClr@?$DrawCommon@MMHHMMEH@@AEAAHH@Z 0000000180046e80 f i insertShapeUtilsCore.obj
 0001:00045ed0       ?IsMoreClr@?$DrawCommon@NNHHNNEE@@AEAAHH@Z 0000000180046ed0 f i insertShapeUtilsCore.obj
 0001:00045f20       ?IsMoreClr@?$DrawCommon@NNHHNNEH@@AEAAHH@Z 0000000180046f20 f i insertShapeUtilsCore.obj
 0001:00045f70       ?IsMoreForeScanLine@?$ScanLineBase@HHE@@QEAAEXZ 0000000180046f70 f i insertShapeUtilsCore.obj
 0001:00045fa0       ?IsMoreForeScanLine@?$ScanLineBase@HHH@@QEAAEXZ 0000000180046fa0 f i insertShapeUtilsCore.obj
 0001:00045fd0       ?IsMoreLayer@?$ScanLineBase@HHE@@QEAAEXZ 0000000180046fd0 f i insertShapeUtilsCore.obj
 0001:00045ff0       ?IsMoreLayer@?$ScanLineBase@HHH@@QEAAEXZ 0000000180046ff0 f i insertShapeUtilsCore.obj
 0001:00046010       ?IsMorePolygon@?$Polygon@HHE@@QEAAEXZ 0000000180047010 f i insertShapeUtilsCore.obj
 0001:00046050       ?IsMorePolygon@?$Polygon@HHH@@QEAAEXZ 0000000180047050 f i insertShapeUtilsCore.obj
 0001:00046090       ?IsMoreSeparator@?$Polygon@HHE@@QEAAEXZ 0000000180047090 f i insertShapeUtilsCore.obj
 0001:000460c0       ?IsMoreSeparator@?$Polygon@HHH@@QEAAEXZ 00000001800470c0 f i insertShapeUtilsCore.obj
 0001:000460f0       ?MoveToColumn@?$Polygon@HHE@@QEAAXH@Z 00000001800470f0 f i insertShapeUtilsCore.obj
 0001:000462b0       ?MoveToColumn@?$Polygon@HHH@@QEAAXH@Z 00000001800472b0 f i insertShapeUtilsCore.obj
 0001:00046470       ?MoveToNextColumn@?$MidPointFullCircle@H@@QEAAXXZ 0000000180047470 f i insertShapeUtilsCore.obj
 0001:000466e0       ?MoveToNextFillColor@?$DrawCommon@EEHHMMEE@@IEAAXXZ 00000001800476e0 f i insertShapeUtilsCore.obj
 0001:00046740       ?MoveToNextFillColor@?$DrawCommon@EEHHMMEH@@IEAAXXZ 0000000180047740 f i insertShapeUtilsCore.obj
 0001:000467a0       ?MoveToNextFillColor@?$DrawCommon@FFHHMMEE@@IEAAXXZ 00000001800477a0 f i insertShapeUtilsCore.obj
 0001:00046800       ?MoveToNextFillColor@?$DrawCommon@FFHHMMEH@@IEAAXXZ 0000000180047800 f i insertShapeUtilsCore.obj
 0001:00046860       ?MoveToNextFillColor@?$DrawCommon@GGHHMMEE@@IEAAXXZ 0000000180047860 f i insertShapeUtilsCore.obj
 0001:000468c0       ?MoveToNextFillColor@?$DrawCommon@GGHHMMEH@@IEAAXXZ 00000001800478c0 f i insertShapeUtilsCore.obj
 0001:00046920       ?MoveToNextFillColor@?$DrawCommon@MMHHMMEE@@IEAAXXZ 0000000180047920 f i insertShapeUtilsCore.obj
 0001:00046980       ?MoveToNextFillColor@?$DrawCommon@MMHHMMEH@@IEAAXXZ 0000000180047980 f i insertShapeUtilsCore.obj
 0001:000469e0       ?MoveToNextFillColor@?$DrawCommon@NNHHNNEE@@IEAAXXZ 00000001800479e0 f i insertShapeUtilsCore.obj
 0001:00046a40       ?MoveToNextFillColor@?$DrawCommon@NNHHNNEH@@IEAAXXZ 0000000180047a40 f i insertShapeUtilsCore.obj
 0001:00046aa0       ?MoveToNextOpacity@?$DrawCommon@EEHHMMEE@@AEAAXE@Z 0000000180047aa0 f i insertShapeUtilsCore.obj
 0001:00046ab0       ?MoveToNextOpacity@?$DrawCommon@EEHHMMEE@@IEAAXXZ 0000000180047ab0 f i insertShapeUtilsCore.obj
 0001:00046ad0       ?MoveToNextOpacity@?$DrawCommon@EEHHMMEH@@AEAAXH@Z 0000000180047ad0 f i insertShapeUtilsCore.obj
 0001:00046b20       ?MoveToNextOpacity@?$DrawCommon@EEHHMMEH@@IEAAXXZ 0000000180047b20 f i insertShapeUtilsCore.obj
 0001:00046b40       ?MoveToNextOpacity@?$DrawCommon@FFHHMMEE@@AEAAXE@Z 0000000180047b40 f i insertShapeUtilsCore.obj
 0001:00046b50       ?MoveToNextOpacity@?$DrawCommon@FFHHMMEE@@IEAAXXZ 0000000180047b50 f i insertShapeUtilsCore.obj
 0001:00046b70       ?MoveToNextOpacity@?$DrawCommon@FFHHMMEH@@AEAAXH@Z 0000000180047b70 f i insertShapeUtilsCore.obj
 0001:00046bc0       ?MoveToNextOpacity@?$DrawCommon@FFHHMMEH@@IEAAXXZ 0000000180047bc0 f i insertShapeUtilsCore.obj
 0001:00046be0       ?MoveToNextOpacity@?$DrawCommon@GGHHMMEE@@AEAAXE@Z 0000000180047be0 f i insertShapeUtilsCore.obj
 0001:00046bf0       ?MoveToNextOpacity@?$DrawCommon@GGHHMMEE@@IEAAXXZ 0000000180047bf0 f i insertShapeUtilsCore.obj
 0001:00046c10       ?MoveToNextOpacity@?$DrawCommon@GGHHMMEH@@AEAAXH@Z 0000000180047c10 f i insertShapeUtilsCore.obj
 0001:00046c60       ?MoveToNextOpacity@?$DrawCommon@GGHHMMEH@@IEAAXXZ 0000000180047c60 f i insertShapeUtilsCore.obj
 0001:00046c80       ?MoveToNextOpacity@?$DrawCommon@MMHHMMEE@@AEAAXE@Z 0000000180047c80 f i insertShapeUtilsCore.obj
 0001:00046c90       ?MoveToNextOpacity@?$DrawCommon@MMHHMMEE@@IEAAXXZ 0000000180047c90 f i insertShapeUtilsCore.obj
 0001:00046cb0       ?MoveToNextOpacity@?$DrawCommon@MMHHMMEH@@AEAAXH@Z 0000000180047cb0 f i insertShapeUtilsCore.obj
 0001:00046d00       ?MoveToNextOpacity@?$DrawCommon@MMHHMMEH@@IEAAXXZ 0000000180047d00 f i insertShapeUtilsCore.obj
 0001:00046d20       ?MoveToNextOpacity@?$DrawCommon@NNHHNNEE@@AEAAXE@Z 0000000180047d20 f i insertShapeUtilsCore.obj
 0001:00046d30       ?MoveToNextOpacity@?$DrawCommon@NNHHNNEE@@IEAAXXZ 0000000180047d30 f i insertShapeUtilsCore.obj
 0001:00046d50       ?MoveToNextOpacity@?$DrawCommon@NNHHNNEH@@AEAAXH@Z 0000000180047d50 f i insertShapeUtilsCore.obj
 0001:00046da0       ?MoveToNextOpacity@?$DrawCommon@NNHHNNEH@@IEAAXXZ 0000000180047da0 f i insertShapeUtilsCore.obj
 0001:00046dc0       ?MoveToNextPosition@?$BresenhamLine@HE@@AEAAXE@Z 0000000180047dc0 f i insertShapeUtilsCore.obj
 0001:00046e50       ?MoveToNextPosition@?$BresenhamLine@HE@@QEAAXXZ 0000000180047e50 f i insertShapeUtilsCore.obj
 0001:00046e70       ?MoveToNextPosition@?$BresenhamLine@HH@@AEAAXH@Z 0000000180047e70 f i insertShapeUtilsCore.obj
 0001:00046ee0       ?MoveToNextPosition@?$BresenhamLine@HH@@QEAAXXZ 0000000180047ee0 f i insertShapeUtilsCore.obj
 0001:00046f00       ?NextColumn@?$Polygon@HHE@@QEAAXXZ 0000000180047f00 f i insertShapeUtilsCore.obj
 0001:00046f30       ?NextColumn@?$Polygon@HHH@@QEAAXXZ 0000000180047f30 f i insertShapeUtilsCore.obj
 0001:00046f60       ?NextColumn@?$ScanLine@HHE@@EEAAXXZ 0000000180047f60 f i insertShapeUtilsCore.obj
 0001:00046f80       ?NextColumn@?$ScanLine@HHH@@EEAAXXZ 0000000180047f80 f i insertShapeUtilsCore.obj
 0001:00046fa0       ?NextLayer@?$ScanLine@HHE@@UEAAXXZ 0000000180047fa0 f i insertShapeUtilsCore.obj
 0001:00046fc0       ?NextLayer@?$ScanLine@HHH@@UEAAXXZ 0000000180047fc0 f i insertShapeUtilsCore.obj
 0001:00046fe0       ?NextPolygon@?$Polygon@HHE@@QEAAXXZ 0000000180047fe0 f i insertShapeUtilsCore.obj
 0001:00047040       ?NextPolygon@?$Polygon@HHH@@QEAAXXZ 0000000180048040 f i insertShapeUtilsCore.obj
 0001:000470a0       ?PlotOnePixel@?$DrawCommon@EEHHMMEE@@AEAAXHHE@Z 00000001800480a0 f i insertShapeUtilsCore.obj
 0001:00047140       ?PlotOnePixel@?$DrawCommon@EEHHMMEE@@IEAAXHH@Z 0000000180048140 f i insertShapeUtilsCore.obj
 0001:00047170       ?PlotOnePixel@?$DrawCommon@FFHHMMEE@@AEAAXHHE@Z 0000000180048170 f i insertShapeUtilsCore.obj
 0001:00047210       ?PlotOnePixel@?$DrawCommon@FFHHMMEE@@IEAAXHH@Z 0000000180048210 f i insertShapeUtilsCore.obj
 0001:00047240       ?PlotOnePixel@?$DrawCommon@GGHHMMEE@@AEAAXHHE@Z 0000000180048240 f i insertShapeUtilsCore.obj
 0001:000472e0       ?PlotOnePixel@?$DrawCommon@GGHHMMEE@@IEAAXHH@Z 00000001800482e0 f i insertShapeUtilsCore.obj
 0001:00047310       ?PlotOnePixel@?$DrawCommon@MMHHMMEE@@AEAAXHHE@Z 0000000180048310 f i insertShapeUtilsCore.obj
 0001:000473b0       ?PlotOnePixel@?$DrawCommon@MMHHMMEE@@IEAAXHH@Z 00000001800483b0 f i insertShapeUtilsCore.obj
 0001:000473e0       ?PlotOnePixel@?$DrawCommon@NNHHNNEE@@AEAAXHHE@Z 00000001800483e0 f i insertShapeUtilsCore.obj
 0001:00047480       ?PlotOnePixel@?$DrawCommon@NNHHNNEE@@IEAAXHH@Z 0000000180048480 f i insertShapeUtilsCore.obj
 0001:000474b0       ?PlotOneSubPixelOneColor@?$DrawCommon@EEHHMMEE@@AEAAXPEAEHEHH@Z 00000001800484b0 f i insertShapeUtilsCore.obj
 0001:000476e0       ?PlotOneSubPixelOneColor@?$DrawCommon@EEHHMMEH@@AEAAXPEAEHEHH@Z 00000001800486e0 f i insertShapeUtilsCore.obj
 0001:00047920       ?PlotOneSubPixelOneColor@?$DrawCommon@FFHHMMEE@@AEAAXPEAFHEHH@Z 0000000180048920 f i insertShapeUtilsCore.obj
 0001:00047b60       ?PlotOneSubPixelOneColor@?$DrawCommon@FFHHMMEH@@AEAAXPEAFHEHH@Z 0000000180048b60 f i insertShapeUtilsCore.obj
 0001:00047da0       ?PlotOneSubPixelOneColor@?$DrawCommon@GGHHMMEE@@AEAAXPEAGHEHH@Z 0000000180048da0 f i insertShapeUtilsCore.obj
 0001:00047fe0       ?PlotOneSubPixelOneColor@?$DrawCommon@GGHHMMEH@@AEAAXPEAGHEHH@Z 0000000180048fe0 f i insertShapeUtilsCore.obj
 0001:00048220       ?PlotOneSubPixelOneColor@?$DrawCommon@MMHHMMEE@@AEAAXPEAMHEHH@Z 0000000180049220 f i insertShapeUtilsCore.obj
 0001:00048430       ?PlotOneSubPixelOneColor@?$DrawCommon@MMHHMMEH@@AEAAXPEAMHEHH@Z 0000000180049430 f i insertShapeUtilsCore.obj
 0001:00048640       ?PlotOneSubPixelOneColor@?$DrawCommon@NNHHNNEE@@AEAAXPEANHEHH@Z 0000000180049640 f i insertShapeUtilsCore.obj
 0001:00048850       ?PlotOneSubPixelOneColor@?$DrawCommon@NNHHNNEH@@AEAAXPEANHEHH@Z 0000000180049850 f i insertShapeUtilsCore.obj
 0001:00048a60       ?PlotPixelsCheckRange@?$DrawCommon@EEHHMMEE@@IEAAXHHH@Z 0000000180049a60 f i insertShapeUtilsCore.obj
 0001:00048b20       ?PlotPixelsCheckRange@?$DrawCommon@FFHHMMEE@@IEAAXHHH@Z 0000000180049b20 f i insertShapeUtilsCore.obj
 0001:00048be0       ?PlotPixelsCheckRange@?$DrawCommon@GGHHMMEE@@IEAAXHHH@Z 0000000180049be0 f i insertShapeUtilsCore.obj
 0001:00048ca0       ?PlotPixelsCheckRange@?$DrawCommon@MMHHMMEE@@IEAAXHHH@Z 0000000180049ca0 f i insertShapeUtilsCore.obj
 0001:00048d60       ?PlotPixelsCheckRange@?$DrawCommon@NNHHNNEE@@IEAAXHHH@Z 0000000180049d60 f i insertShapeUtilsCore.obj
 0001:00048e20       ?PlotSubPixels@?$DrawCommon@EEHHMMEE@@AEAAXHEHHE@Z 0000000180049e20 f i insertShapeUtilsCore.obj
 0001:00048ec0       ?PlotSubPixels@?$DrawCommon@EEHHMMEE@@AEAAXHHHHHE@Z 0000000180049ec0 f i insertShapeUtilsCore.obj
 0001:00048f80       ?PlotSubPixels@?$DrawCommon@EEHHMMEE@@IEAAXHEHH@Z 0000000180049f80 f i insertShapeUtilsCore.obj
 0001:00048fd0       ?PlotSubPixels@?$DrawCommon@EEHHMMEE@@IEAAXHHHHH@Z 0000000180049fd0 f i insertShapeUtilsCore.obj
 0001:00049020       ?PlotSubPixels@?$DrawCommon@EEHHMMEH@@AEAAXHHHHHE@Z 000000018004a020 f i insertShapeUtilsCore.obj
 0001:000490e0       ?PlotSubPixels@?$DrawCommon@EEHHMMEH@@IEAAXHHHHH@Z 000000018004a0e0 f i insertShapeUtilsCore.obj
 0001:00049130       ?PlotSubPixels@?$DrawCommon@FFHHMMEE@@AEAAXHEHHE@Z 000000018004a130 f i insertShapeUtilsCore.obj
 0001:000491d0       ?PlotSubPixels@?$DrawCommon@FFHHMMEE@@AEAAXHHHHHE@Z 000000018004a1d0 f i insertShapeUtilsCore.obj
 0001:00049290       ?PlotSubPixels@?$DrawCommon@FFHHMMEE@@IEAAXHEHH@Z 000000018004a290 f i insertShapeUtilsCore.obj
 0001:000492e0       ?PlotSubPixels@?$DrawCommon@FFHHMMEE@@IEAAXHHHHH@Z 000000018004a2e0 f i insertShapeUtilsCore.obj
 0001:00049330       ?PlotSubPixels@?$DrawCommon@FFHHMMEH@@AEAAXHHHHHE@Z 000000018004a330 f i insertShapeUtilsCore.obj
 0001:000493f0       ?PlotSubPixels@?$DrawCommon@FFHHMMEH@@IEAAXHHHHH@Z 000000018004a3f0 f i insertShapeUtilsCore.obj
 0001:00049440       ?PlotSubPixels@?$DrawCommon@GGHHMMEE@@AEAAXHEHHE@Z 000000018004a440 f i insertShapeUtilsCore.obj
 0001:000494e0       ?PlotSubPixels@?$DrawCommon@GGHHMMEE@@AEAAXHHHHHE@Z 000000018004a4e0 f i insertShapeUtilsCore.obj
 0001:000495a0       ?PlotSubPixels@?$DrawCommon@GGHHMMEE@@IEAAXHEHH@Z 000000018004a5a0 f i insertShapeUtilsCore.obj
 0001:000495f0       ?PlotSubPixels@?$DrawCommon@GGHHMMEE@@IEAAXHHHHH@Z 000000018004a5f0 f i insertShapeUtilsCore.obj
 0001:00049640       ?PlotSubPixels@?$DrawCommon@GGHHMMEH@@AEAAXHHHHHE@Z 000000018004a640 f i insertShapeUtilsCore.obj
 0001:00049700       ?PlotSubPixels@?$DrawCommon@GGHHMMEH@@IEAAXHHHHH@Z 000000018004a700 f i insertShapeUtilsCore.obj
 0001:00049750       ?PlotSubPixels@?$DrawCommon@MMHHMMEE@@AEAAXHEHHE@Z 000000018004a750 f i insertShapeUtilsCore.obj
 0001:000497f0       ?PlotSubPixels@?$DrawCommon@MMHHMMEE@@AEAAXHHHHHE@Z 000000018004a7f0 f i insertShapeUtilsCore.obj
 0001:000498b0       ?PlotSubPixels@?$DrawCommon@MMHHMMEE@@IEAAXHEHH@Z 000000018004a8b0 f i insertShapeUtilsCore.obj
 0001:00049900       ?PlotSubPixels@?$DrawCommon@MMHHMMEE@@IEAAXHHHHH@Z 000000018004a900 f i insertShapeUtilsCore.obj
 0001:00049950       ?PlotSubPixels@?$DrawCommon@MMHHMMEH@@AEAAXHHHHHE@Z 000000018004a950 f i insertShapeUtilsCore.obj
 0001:00049a10       ?PlotSubPixels@?$DrawCommon@MMHHMMEH@@IEAAXHHHHH@Z 000000018004aa10 f i insertShapeUtilsCore.obj
 0001:00049a60       ?PlotSubPixels@?$DrawCommon@NNHHNNEE@@AEAAXHEHHE@Z 000000018004aa60 f i insertShapeUtilsCore.obj
 0001:00049b00       ?PlotSubPixels@?$DrawCommon@NNHHNNEE@@AEAAXHHHHHE@Z 000000018004ab00 f i insertShapeUtilsCore.obj
 0001:00049bc0       ?PlotSubPixels@?$DrawCommon@NNHHNNEE@@IEAAXHEHH@Z 000000018004abc0 f i insertShapeUtilsCore.obj
 0001:00049c10       ?PlotSubPixels@?$DrawCommon@NNHHNNEE@@IEAAXHHHHH@Z 000000018004ac10 f i insertShapeUtilsCore.obj
 0001:00049c60       ?PlotSubPixels@?$DrawCommon@NNHHNNEH@@AEAAXHHHHHE@Z 000000018004ac60 f i insertShapeUtilsCore.obj
 0001:00049d20       ?PlotSubPixels@?$DrawCommon@NNHHNNEH@@IEAAXHHHHH@Z 000000018004ad20 f i insertShapeUtilsCore.obj
 0001:00049d70       ?PlotSubPixelsOneColor@?$DrawCommon@EEHHMMEE@@AEAAXPEAEHHHHH@Z 000000018004ad70 f i insertShapeUtilsCore.obj
 0001:00049e00       ?PlotSubPixelsOneColor@?$DrawCommon@EEHHMMEH@@AEAAXPEAEHHHHH@Z 000000018004ae00 f i insertShapeUtilsCore.obj
 0001:00049e90       ?PlotSubPixelsOneColor@?$DrawCommon@FFHHMMEE@@AEAAXPEAFHHHHH@Z 000000018004ae90 f i insertShapeUtilsCore.obj
 0001:00049f20       ?PlotSubPixelsOneColor@?$DrawCommon@FFHHMMEH@@AEAAXPEAFHHHHH@Z 000000018004af20 f i insertShapeUtilsCore.obj
 0001:00049fb0       ?PlotSubPixelsOneColor@?$DrawCommon@GGHHMMEE@@AEAAXPEAGHHHHH@Z 000000018004afb0 f i insertShapeUtilsCore.obj
 0001:0004a040       ?PlotSubPixelsOneColor@?$DrawCommon@GGHHMMEH@@AEAAXPEAGHHHHH@Z 000000018004b040 f i insertShapeUtilsCore.obj
 0001:0004a0d0       ?PlotSubPixelsOneColor@?$DrawCommon@MMHHMMEE@@AEAAXPEAMHHHHH@Z 000000018004b0d0 f i insertShapeUtilsCore.obj
 0001:0004a160       ?PlotSubPixelsOneColor@?$DrawCommon@MMHHMMEH@@AEAAXPEAMHHHHH@Z 000000018004b160 f i insertShapeUtilsCore.obj
 0001:0004a1f0       ?PlotSubPixelsOneColor@?$DrawCommon@NNHHNNEE@@AEAAXPEANHHHHH@Z 000000018004b1f0 f i insertShapeUtilsCore.obj
 0001:0004a280       ?PlotSubPixelsOneColor@?$DrawCommon@NNHHNNEH@@AEAAXPEANHHHHH@Z 000000018004b280 f i insertShapeUtilsCore.obj
 0001:0004a310       ?PlotVerticalLine@?$DrawCommon@EEHHMMEH@@AEAAXHHHHHE@Z 000000018004b310 f i insertShapeUtilsCore.obj
 0001:0004a3e0       ?PlotVerticalLine@?$DrawCommon@EEHHMMEH@@IEAAXHHHHH@Z 000000018004b3e0 f i insertShapeUtilsCore.obj
 0001:0004a430       ?PlotVerticalLine@?$DrawCommon@FFHHMMEH@@AEAAXHHHHHE@Z 000000018004b430 f i insertShapeUtilsCore.obj
 0001:0004a500       ?PlotVerticalLine@?$DrawCommon@FFHHMMEH@@IEAAXHHHHH@Z 000000018004b500 f i insertShapeUtilsCore.obj
 0001:0004a550       ?PlotVerticalLine@?$DrawCommon@GGHHMMEH@@AEAAXHHHHHE@Z 000000018004b550 f i insertShapeUtilsCore.obj
 0001:0004a620       ?PlotVerticalLine@?$DrawCommon@GGHHMMEH@@IEAAXHHHHH@Z 000000018004b620 f i insertShapeUtilsCore.obj
 0001:0004a670       ?PlotVerticalLine@?$DrawCommon@MMHHMMEH@@AEAAXHHHHHE@Z 000000018004b670 f i insertShapeUtilsCore.obj
 0001:0004a740       ?PlotVerticalLine@?$DrawCommon@MMHHMMEH@@IEAAXHHHHH@Z 000000018004b740 f i insertShapeUtilsCore.obj
 0001:0004a790       ?PlotVerticalLine@?$DrawCommon@NNHHNNEH@@AEAAXHHHHHE@Z 000000018004b790 f i insertShapeUtilsCore.obj
 0001:0004a860       ?PlotVerticalLine@?$DrawCommon@NNHHNNEH@@IEAAXHHHHH@Z 000000018004b860 f i insertShapeUtilsCore.obj
 0001:0004a8b0       ?PlotVerticalLineCheckRange@?$DrawCommon@EEHHMMEH@@IEAAXHHHHH@Z 000000018004b8b0 f i insertShapeUtilsCore.obj
 0001:0004a990       ?PlotVerticalLineCheckRange@?$DrawCommon@FFHHMMEH@@IEAAXHHHHH@Z 000000018004b990 f i insertShapeUtilsCore.obj
 0001:0004aa70       ?PlotVerticalLineCheckRange@?$DrawCommon@GGHHMMEH@@IEAAXHHHHH@Z 000000018004ba70 f i insertShapeUtilsCore.obj
 0001:0004ab50       ?PlotVerticalLineCheckRange@?$DrawCommon@MMHHMMEH@@IEAAXHHHHH@Z 000000018004bb50 f i insertShapeUtilsCore.obj
 0001:0004ac30       ?PlotVerticalLineCheckRange@?$DrawCommon@NNHHNNEH@@IEAAXHHHHH@Z 000000018004bc30 f i insertShapeUtilsCore.obj
 0001:0004ad10       ?PlotVerticalLineOneColor@?$DrawCommon@EEHHMMEH@@AEAAXPEAEHHHHH@Z 000000018004bd10 f i insertShapeUtilsCore.obj
 0001:0004ae50       ?PlotVerticalLineOneColor@?$DrawCommon@FFHHMMEH@@AEAAXPEAFHHHHH@Z 000000018004be50 f i insertShapeUtilsCore.obj
 0001:0004afa0       ?PlotVerticalLineOneColor@?$DrawCommon@GGHHMMEH@@AEAAXPEAGHHHHH@Z 000000018004bfa0 f i insertShapeUtilsCore.obj
 0001:0004b0f0       ?PlotVerticalLineOneColor@?$DrawCommon@MMHHMMEH@@AEAAXPEAMHHHHH@Z 000000018004c0f0 f i insertShapeUtilsCore.obj
 0001:0004b240       ?PlotVerticalLineOneColor@?$DrawCommon@NNHHNNEH@@AEAAXPEANHHHHH@Z 000000018004c240 f i insertShapeUtilsCore.obj
 0001:0004b390       ?ProcessOneShape@?$DrawCircle@EEHHMMEEE@@AEAAXHHHEE@Z 000000018004c390 f i insertShapeUtilsCore.obj
 0001:0004b660       ?ProcessOneShape@?$DrawCircle@EEHHMMEEE@@AEAAXHHHEH@Z 000000018004c660 f i insertShapeUtilsCore.obj
 0001:0004bbd0       ?ProcessOneShape@?$DrawCircle@EEHHMMEEE@@QEAAXXZ 000000018004cbd0 f i insertShapeUtilsCore.obj
 0001:0004bcf0       ?ProcessOneShape@?$DrawCircle@EEHHMMEEH@@AEAAXHHHEH@Z 000000018004ccf0 f i insertShapeUtilsCore.obj
 0001:0004c260       ?ProcessOneShape@?$DrawCircle@EEHHMMEEH@@QEAAXXZ 000000018004d260 f i insertShapeUtilsCore.obj
 0001:0004c380       ?ProcessOneShape@?$DrawCircle@EEHHMMEHE@@AEAAXHHHHE@Z 000000018004d380 f i insertShapeUtilsCore.obj
 0001:0004c660       ?ProcessOneShape@?$DrawCircle@EEHHMMEHE@@QEAAXXZ 000000018004d660 f i insertShapeUtilsCore.obj
 0001:0004c780       ?ProcessOneShape@?$DrawCircle@EEHHMMEHH@@AEAAXHHHHH@Z 000000018004d780 f i insertShapeUtilsCore.obj
 0001:0004c9c0       ?ProcessOneShape@?$DrawCircle@EEHHMMEHH@@QEAAXXZ 000000018004d9c0 f i insertShapeUtilsCore.obj
 0001:0004cae0       ?ProcessOneShape@?$DrawCircle@FFHHMMEEE@@AEAAXHHHEE@Z 000000018004dae0 f i insertShapeUtilsCore.obj
 0001:0004cdb0       ?ProcessOneShape@?$DrawCircle@FFHHMMEEE@@AEAAXHHHEH@Z 000000018004ddb0 f i insertShapeUtilsCore.obj
 0001:0004d320       ?ProcessOneShape@?$DrawCircle@FFHHMMEEE@@QEAAXXZ 000000018004e320 f i insertShapeUtilsCore.obj
 0001:0004d440       ?ProcessOneShape@?$DrawCircle@FFHHMMEEH@@AEAAXHHHEH@Z 000000018004e440 f i insertShapeUtilsCore.obj
 0001:0004d9b0       ?ProcessOneShape@?$DrawCircle@FFHHMMEEH@@QEAAXXZ 000000018004e9b0 f i insertShapeUtilsCore.obj
 0001:0004dad0       ?ProcessOneShape@?$DrawCircle@FFHHMMEHE@@AEAAXHHHHE@Z 000000018004ead0 f i insertShapeUtilsCore.obj
 0001:0004ddb0       ?ProcessOneShape@?$DrawCircle@FFHHMMEHE@@QEAAXXZ 000000018004edb0 f i insertShapeUtilsCore.obj
 0001:0004ded0       ?ProcessOneShape@?$DrawCircle@FFHHMMEHH@@AEAAXHHHHH@Z 000000018004eed0 f i insertShapeUtilsCore.obj
 0001:0004e110       ?ProcessOneShape@?$DrawCircle@FFHHMMEHH@@QEAAXXZ 000000018004f110 f i insertShapeUtilsCore.obj
 0001:0004e230       ?ProcessOneShape@?$DrawCircle@GGHHMMEEE@@AEAAXHHHEE@Z 000000018004f230 f i insertShapeUtilsCore.obj
 0001:0004e500       ?ProcessOneShape@?$DrawCircle@GGHHMMEEE@@AEAAXHHHEH@Z 000000018004f500 f i insertShapeUtilsCore.obj
 0001:0004ea70       ?ProcessOneShape@?$DrawCircle@GGHHMMEEE@@QEAAXXZ 000000018004fa70 f i insertShapeUtilsCore.obj
 0001:0004eb90       ?ProcessOneShape@?$DrawCircle@GGHHMMEEH@@AEAAXHHHEH@Z 000000018004fb90 f i insertShapeUtilsCore.obj
 0001:0004f100       ?ProcessOneShape@?$DrawCircle@GGHHMMEEH@@QEAAXXZ 0000000180050100 f i insertShapeUtilsCore.obj
 0001:0004f220       ?ProcessOneShape@?$DrawCircle@GGHHMMEHE@@AEAAXHHHHE@Z 0000000180050220 f i insertShapeUtilsCore.obj
 0001:0004f500       ?ProcessOneShape@?$DrawCircle@GGHHMMEHE@@QEAAXXZ 0000000180050500 f i insertShapeUtilsCore.obj
 0001:0004f620       ?ProcessOneShape@?$DrawCircle@GGHHMMEHH@@AEAAXHHHHH@Z 0000000180050620 f i insertShapeUtilsCore.obj
 0001:0004f860       ?ProcessOneShape@?$DrawCircle@GGHHMMEHH@@QEAAXXZ 0000000180050860 f i insertShapeUtilsCore.obj
 0001:0004f980       ?ProcessOneShape@?$DrawCircle@MMHHMMEEE@@AEAAXHHHEE@Z 0000000180050980 f i insertShapeUtilsCore.obj
 0001:0004fc50       ?ProcessOneShape@?$DrawCircle@MMHHMMEEE@@AEAAXHHHEH@Z 0000000180050c50 f i insertShapeUtilsCore.obj
 0001:000501c0       ?ProcessOneShape@?$DrawCircle@MMHHMMEEE@@QEAAXXZ 00000001800511c0 f i insertShapeUtilsCore.obj
 0001:000502e0       ?ProcessOneShape@?$DrawCircle@MMHHMMEEH@@AEAAXHHHEH@Z 00000001800512e0 f i insertShapeUtilsCore.obj
 0001:00050850       ?ProcessOneShape@?$DrawCircle@MMHHMMEEH@@QEAAXXZ 0000000180051850 f i insertShapeUtilsCore.obj
 0001:00050970       ?ProcessOneShape@?$DrawCircle@MMHHMMEHE@@AEAAXHHHHE@Z 0000000180051970 f i insertShapeUtilsCore.obj
 0001:00050c50       ?ProcessOneShape@?$DrawCircle@MMHHMMEHE@@QEAAXXZ 0000000180051c50 f i insertShapeUtilsCore.obj
 0001:00050d70       ?ProcessOneShape@?$DrawCircle@MMHHMMEHH@@AEAAXHHHHH@Z 0000000180051d70 f i insertShapeUtilsCore.obj
 0001:00050fb0       ?ProcessOneShape@?$DrawCircle@MMHHMMEHH@@QEAAXXZ 0000000180051fb0 f i insertShapeUtilsCore.obj
 0001:000510d0       ?ProcessOneShape@?$DrawCircle@NNHHNNEEE@@AEAAXHHHEE@Z 00000001800520d0 f i insertShapeUtilsCore.obj
 0001:000513a0       ?ProcessOneShape@?$DrawCircle@NNHHNNEEE@@AEAAXHHHEH@Z 00000001800523a0 f i insertShapeUtilsCore.obj
 0001:00051910       ?ProcessOneShape@?$DrawCircle@NNHHNNEEE@@QEAAXXZ 0000000180052910 f i insertShapeUtilsCore.obj
 0001:00051a30       ?ProcessOneShape@?$DrawCircle@NNHHNNEEH@@AEAAXHHHEH@Z 0000000180052a30 f i insertShapeUtilsCore.obj
 0001:00051fa0       ?ProcessOneShape@?$DrawCircle@NNHHNNEEH@@QEAAXXZ 0000000180052fa0 f i insertShapeUtilsCore.obj
 0001:000520c0       ?ProcessOneShape@?$DrawCircle@NNHHNNEHE@@AEAAXHHHHE@Z 00000001800530c0 f i insertShapeUtilsCore.obj
 0001:000523a0       ?ProcessOneShape@?$DrawCircle@NNHHNNEHE@@QEAAXXZ 00000001800533a0 f i insertShapeUtilsCore.obj
 0001:000524c0       ?ProcessOneShape@?$DrawCircle@NNHHNNEHH@@AEAAXHHHHH@Z 00000001800534c0 f i insertShapeUtilsCore.obj
 0001:00052700       ?ProcessOneShape@?$DrawCircle@NNHHNNEHH@@QEAAXXZ 0000000180053700 f i insertShapeUtilsCore.obj
 0001:00052820       ?ProcessOneShape@?$DrawFilledRectangle@EEHHMME@@QEAAXXZ 0000000180053820 f i insertShapeUtilsCore.obj
 0001:00052920       ?ProcessOneShape@?$DrawFilledRectangle@FFHHMME@@QEAAXXZ 0000000180053920 f i insertShapeUtilsCore.obj
 0001:00052a20       ?ProcessOneShape@?$DrawFilledRectangle@GGHHMME@@QEAAXXZ 0000000180053a20 f i insertShapeUtilsCore.obj
 0001:00052b20       ?ProcessOneShape@?$DrawFilledRectangle@MMHHMME@@QEAAXXZ 0000000180053b20 f i insertShapeUtilsCore.obj
 0001:00052c20       ?ProcessOneShape@?$DrawFilledRectangle@NNHHNNE@@QEAAXXZ 0000000180053c20 f i insertShapeUtilsCore.obj
 0001:00052d20       ?ProcessOneShape@?$DrawLine@EEHHMMEE@@QEAAXE@Z 0000000180053d20 f i insertShapeUtilsCore.obj
 0001:00052e20       ?ProcessOneShape@?$DrawLine@EEHHMMEE@@QEAAXXZ 0000000180053e20 f i insertShapeUtilsCore.obj
 0001:00052e40       ?ProcessOneShape@?$DrawLine@EEHHMMEH@@QEAAXH@Z 0000000180053e40 f i insertShapeUtilsCore.obj
 0001:000532e0       ?ProcessOneShape@?$DrawLine@EEHHMMEH@@QEAAXXZ 00000001800542e0 f i insertShapeUtilsCore.obj
 0001:00053300       ?ProcessOneShape@?$DrawLine@FFHHMMEE@@QEAAXE@Z 0000000180054300 f i insertShapeUtilsCore.obj
 0001:00053400       ?ProcessOneShape@?$DrawLine@FFHHMMEE@@QEAAXXZ 0000000180054400 f i insertShapeUtilsCore.obj
 0001:00053420       ?ProcessOneShape@?$DrawLine@FFHHMMEH@@QEAAXH@Z 0000000180054420 f i insertShapeUtilsCore.obj
 0001:000538c0       ?ProcessOneShape@?$DrawLine@FFHHMMEH@@QEAAXXZ 00000001800548c0 f i insertShapeUtilsCore.obj
 0001:000538e0       ?ProcessOneShape@?$DrawLine@GGHHMMEE@@QEAAXE@Z 00000001800548e0 f i insertShapeUtilsCore.obj
 0001:000539e0       ?ProcessOneShape@?$DrawLine@GGHHMMEE@@QEAAXXZ 00000001800549e0 f i insertShapeUtilsCore.obj
 0001:00053a00       ?ProcessOneShape@?$DrawLine@GGHHMMEH@@QEAAXH@Z 0000000180054a00 f i insertShapeUtilsCore.obj
 0001:00053ea0       ?ProcessOneShape@?$DrawLine@GGHHMMEH@@QEAAXXZ 0000000180054ea0 f i insertShapeUtilsCore.obj
 0001:00053ec0       ?ProcessOneShape@?$DrawLine@MMHHMMEE@@QEAAXE@Z 0000000180054ec0 f i insertShapeUtilsCore.obj
 0001:00053fc0       ?ProcessOneShape@?$DrawLine@MMHHMMEE@@QEAAXXZ 0000000180054fc0 f i insertShapeUtilsCore.obj
 0001:00053fe0       ?ProcessOneShape@?$DrawLine@MMHHMMEH@@QEAAXH@Z 0000000180054fe0 f i insertShapeUtilsCore.obj
 0001:00054480       ?ProcessOneShape@?$DrawLine@MMHHMMEH@@QEAAXXZ 0000000180055480 f i insertShapeUtilsCore.obj
 0001:000544a0       ?ProcessOneShape@?$DrawLine@NNHHNNEE@@QEAAXE@Z 00000001800554a0 f i insertShapeUtilsCore.obj
 0001:000545a0       ?ProcessOneShape@?$DrawLine@NNHHNNEE@@QEAAXXZ 00000001800555a0 f i insertShapeUtilsCore.obj
 0001:000545c0       ?ProcessOneShape@?$DrawLine@NNHHNNEH@@QEAAXH@Z 00000001800555c0 f i insertShapeUtilsCore.obj
 0001:00054a60       ?ProcessOneShape@?$DrawLine@NNHHNNEH@@QEAAXXZ 0000000180055a60 f i insertShapeUtilsCore.obj
 0001:00054a80       ?ProcessOneShape@?$DrawMarkerLine@EEHHMMEE@@QEAAXE@Z 0000000180055a80 f i insertShapeUtilsCore.obj
 0001:00054c70       ?ProcessOneShape@?$DrawMarkerLine@EEHHMMEE@@QEAAXXZ 0000000180055c70 f i insertShapeUtilsCore.obj
 0001:00054c90       ?ProcessOneShape@?$DrawMarkerLine@FFHHMMEE@@QEAAXE@Z 0000000180055c90 f i insertShapeUtilsCore.obj
 0001:00054e80       ?ProcessOneShape@?$DrawMarkerLine@FFHHMMEE@@QEAAXXZ 0000000180055e80 f i insertShapeUtilsCore.obj
 0001:00054ea0       ?ProcessOneShape@?$DrawMarkerLine@GGHHMMEE@@QEAAXE@Z 0000000180055ea0 f i insertShapeUtilsCore.obj
 0001:00055090       ?ProcessOneShape@?$DrawMarkerLine@GGHHMMEE@@QEAAXXZ 0000000180056090 f i insertShapeUtilsCore.obj
 0001:000550b0       ?ProcessOneShape@?$DrawMarkerLine@MMHHMMEE@@QEAAXE@Z 00000001800560b0 f i insertShapeUtilsCore.obj
 0001:000552a0       ?ProcessOneShape@?$DrawMarkerLine@MMHHMMEE@@QEAAXXZ 00000001800562a0 f i insertShapeUtilsCore.obj
 0001:000552c0       ?ProcessOneShape@?$DrawMarkerLine@NNHHNNEE@@QEAAXE@Z 00000001800562c0 f i insertShapeUtilsCore.obj
 0001:000554b0       ?ProcessOneShape@?$DrawMarkerLine@NNHHNNEE@@QEAAXXZ 00000001800564b0 f i insertShapeUtilsCore.obj
 0001:000554d0       ?ProcessStep@?$DrawAnyLine@EEHHMMEE@@UEAAXXZ 00000001800564d0 f i insertShapeUtilsCore.obj
 0001:000556f0       ?ProcessStep@?$DrawAnyLine@EEHHMMEH@@UEAAXXZ 00000001800566f0 f i insertShapeUtilsCore.obj
 0001:00055910       ?ProcessStep@?$DrawAnyLine@FFHHMMEE@@UEAAXXZ 0000000180056910 f i insertShapeUtilsCore.obj
 0001:00055b30       ?ProcessStep@?$DrawAnyLine@FFHHMMEH@@UEAAXXZ 0000000180056b30 f i insertShapeUtilsCore.obj
 0001:00055d50       ?ProcessStep@?$DrawAnyLine@GGHHMMEE@@UEAAXXZ 0000000180056d50 f i insertShapeUtilsCore.obj
 0001:00055f70       ?ProcessStep@?$DrawAnyLine@GGHHMMEH@@UEAAXXZ 0000000180056f70 f i insertShapeUtilsCore.obj
 0001:00056190       ?ProcessStep@?$DrawAnyLine@MMHHMMEE@@UEAAXXZ 0000000180057190 f i insertShapeUtilsCore.obj
 0001:000563b0       ?ProcessStep@?$DrawAnyLine@MMHHMMEH@@UEAAXXZ 00000001800573b0 f i insertShapeUtilsCore.obj
 0001:000565d0       ?ProcessStep@?$DrawAnyLine@NNHHNNEE@@UEAAXXZ 00000001800575d0 f i insertShapeUtilsCore.obj
 0001:000567f0       ?ProcessStep@?$DrawAnyLine@NNHHNNEH@@UEAAXXZ 00000001800577f0 f i insertShapeUtilsCore.obj
 0001:00056a10       ?ProcessStep@?$DrawCircleAnySize@EEHHMMEEE@@UEAAXXZ 0000000180057a10 f i insertShapeUtilsCore.obj
 0001:00056b00       ?ProcessStep@?$DrawCircleAnySize@EEHHMMEEH@@UEAAXXZ 0000000180057b00 f i insertShapeUtilsCore.obj
 0001:00056bf0       ?ProcessStep@?$DrawCircleAnySize@EEHHMMEHE@@UEAAXXZ 0000000180057bf0 f i insertShapeUtilsCore.obj
 0001:00056ce0       ?ProcessStep@?$DrawCircleAnySize@EEHHMMEHH@@UEAAXXZ 0000000180057ce0 f i insertShapeUtilsCore.obj
 0001:00056dd0       ?ProcessStep@?$DrawCircleAnySize@FFHHMMEEE@@UEAAXXZ 0000000180057dd0 f i insertShapeUtilsCore.obj
 0001:00056ec0       ?ProcessStep@?$DrawCircleAnySize@FFHHMMEEH@@UEAAXXZ 0000000180057ec0 f i insertShapeUtilsCore.obj
 0001:00056fb0       ?ProcessStep@?$DrawCircleAnySize@FFHHMMEHE@@UEAAXXZ 0000000180057fb0 f i insertShapeUtilsCore.obj
 0001:000570a0       ?ProcessStep@?$DrawCircleAnySize@FFHHMMEHH@@UEAAXXZ 00000001800580a0 f i insertShapeUtilsCore.obj
 0001:00057190       ?ProcessStep@?$DrawCircleAnySize@GGHHMMEEE@@UEAAXXZ 0000000180058190 f i insertShapeUtilsCore.obj
 0001:00057280       ?ProcessStep@?$DrawCircleAnySize@GGHHMMEEH@@UEAAXXZ 0000000180058280 f i insertShapeUtilsCore.obj
 0001:00057370       ?ProcessStep@?$DrawCircleAnySize@GGHHMMEHE@@UEAAXXZ 0000000180058370 f i insertShapeUtilsCore.obj
 0001:00057460       ?ProcessStep@?$DrawCircleAnySize@GGHHMMEHH@@UEAAXXZ 0000000180058460 f i insertShapeUtilsCore.obj
 0001:00057550       ?ProcessStep@?$DrawCircleAnySize@MMHHMMEEE@@UEAAXXZ 0000000180058550 f i insertShapeUtilsCore.obj
 0001:00057640       ?ProcessStep@?$DrawCircleAnySize@MMHHMMEEH@@UEAAXXZ 0000000180058640 f i insertShapeUtilsCore.obj
 0001:00057730       ?ProcessStep@?$DrawCircleAnySize@MMHHMMEHE@@UEAAXXZ 0000000180058730 f i insertShapeUtilsCore.obj
 0001:00057820       ?ProcessStep@?$DrawCircleAnySize@MMHHMMEHH@@UEAAXXZ 0000000180058820 f i insertShapeUtilsCore.obj
 0001:00057910       ?ProcessStep@?$DrawCircleAnySize@NNHHNNEEE@@UEAAXXZ 0000000180058910 f i insertShapeUtilsCore.obj
 0001:00057a00       ?ProcessStep@?$DrawCircleAnySize@NNHHNNEEH@@UEAAXXZ 0000000180058a00 f i insertShapeUtilsCore.obj
 0001:00057af0       ?ProcessStep@?$DrawCircleAnySize@NNHHNNEHE@@UEAAXXZ 0000000180058af0 f i insertShapeUtilsCore.obj
 0001:00057be0       ?ProcessStep@?$DrawCircleAnySize@NNHHNNEHH@@UEAAXXZ 0000000180058be0 f i insertShapeUtilsCore.obj
 0001:00057cd0       ?ProcessStep@?$DrawFilledPolygon@EEHHMMEE@@AEAAXE@Z 0000000180058cd0 f i insertShapeUtilsCore.obj
 0001:00057f60       ?ProcessStep@?$DrawFilledPolygon@EEHHMMEE@@UEAAXXZ 0000000180058f60 f i insertShapeUtilsCore.obj
 0001:00057f80       ?ProcessStep@?$DrawFilledPolygon@EEHHMMEH@@AEAAXH@Z 0000000180058f80 f i insertShapeUtilsCore.obj
 0001:00058440       ?ProcessStep@?$DrawFilledPolygon@EEHHMMEH@@UEAAXXZ 0000000180059440 f i insertShapeUtilsCore.obj
 0001:00058460       ?ProcessStep@?$DrawFilledPolygon@FFHHMMEE@@AEAAXE@Z 0000000180059460 f i insertShapeUtilsCore.obj
 0001:000586f0       ?ProcessStep@?$DrawFilledPolygon@FFHHMMEE@@UEAAXXZ 00000001800596f0 f i insertShapeUtilsCore.obj
 0001:00058710       ?ProcessStep@?$DrawFilledPolygon@FFHHMMEH@@AEAAXH@Z 0000000180059710 f i insertShapeUtilsCore.obj
 0001:00058bd0       ?ProcessStep@?$DrawFilledPolygon@FFHHMMEH@@UEAAXXZ 0000000180059bd0 f i insertShapeUtilsCore.obj
 0001:00058bf0       ?ProcessStep@?$DrawFilledPolygon@GGHHMMEE@@AEAAXE@Z 0000000180059bf0 f i insertShapeUtilsCore.obj
 0001:00058e80       ?ProcessStep@?$DrawFilledPolygon@GGHHMMEE@@UEAAXXZ 0000000180059e80 f i insertShapeUtilsCore.obj
 0001:00058ea0       ?ProcessStep@?$DrawFilledPolygon@GGHHMMEH@@AEAAXH@Z 0000000180059ea0 f i insertShapeUtilsCore.obj
 0001:00059360       ?ProcessStep@?$DrawFilledPolygon@GGHHMMEH@@UEAAXXZ 000000018005a360 f i insertShapeUtilsCore.obj
 0001:00059380       ?ProcessStep@?$DrawFilledPolygon@MMHHMMEE@@AEAAXE@Z 000000018005a380 f i insertShapeUtilsCore.obj
 0001:00059610       ?ProcessStep@?$DrawFilledPolygon@MMHHMMEE@@UEAAXXZ 000000018005a610 f i insertShapeUtilsCore.obj
 0001:00059630       ?ProcessStep@?$DrawFilledPolygon@MMHHMMEH@@AEAAXH@Z 000000018005a630 f i insertShapeUtilsCore.obj
 0001:00059af0       ?ProcessStep@?$DrawFilledPolygon@MMHHMMEH@@UEAAXXZ 000000018005aaf0 f i insertShapeUtilsCore.obj
 0001:00059b10       ?ProcessStep@?$DrawFilledPolygon@NNHHNNEE@@AEAAXE@Z 000000018005ab10 f i insertShapeUtilsCore.obj
 0001:00059da0       ?ProcessStep@?$DrawFilledPolygon@NNHHNNEE@@UEAAXXZ 000000018005ada0 f i insertShapeUtilsCore.obj
 0001:00059dc0       ?ProcessStep@?$DrawFilledPolygon@NNHHNNEH@@AEAAXH@Z 000000018005adc0 f i insertShapeUtilsCore.obj
 0001:0005a280       ?ProcessStep@?$DrawFilledPolygon@NNHHNNEH@@UEAAXXZ 000000018005b280 f i insertShapeUtilsCore.obj
 0001:0005a2a0       ?ProcessStep@?$DrawFilledRectangleAnySize@EEHHMME@@UEAAXXZ 000000018005b2a0 f i insertShapeUtilsCore.obj
 0001:0005a400       ?ProcessStep@?$DrawFilledRectangleAnySize@FFHHMME@@UEAAXXZ 000000018005b400 f i insertShapeUtilsCore.obj
 0001:0005a560       ?ProcessStep@?$DrawFilledRectangleAnySize@GGHHMME@@UEAAXXZ 000000018005b560 f i insertShapeUtilsCore.obj
 0001:0005a6c0       ?ProcessStep@?$DrawFilledRectangleAnySize@MMHHMME@@UEAAXXZ 000000018005b6c0 f i insertShapeUtilsCore.obj
 0001:0005a820       ?ProcessStep@?$DrawFilledRectangleAnySize@NNHHNNE@@UEAAXXZ 000000018005b820 f i insertShapeUtilsCore.obj
 0001:0005a980       ?ProcessStep@?$DrawPolygon@EEHHMMEE@@UEAAXXZ 000000018005b980 f i insertShapeUtilsCore.obj
 0001:0005ac10       ?ProcessStep@?$DrawPolygon@EEHHMMEH@@UEAAXXZ 000000018005bc10 f i insertShapeUtilsCore.obj
 0001:0005aea0       ?ProcessStep@?$DrawPolygon@FFHHMMEE@@UEAAXXZ 000000018005bea0 f i insertShapeUtilsCore.obj
 0001:0005b130       ?ProcessStep@?$DrawPolygon@FFHHMMEH@@UEAAXXZ 000000018005c130 f i insertShapeUtilsCore.obj
 0001:0005b3c0       ?ProcessStep@?$DrawPolygon@GGHHMMEE@@UEAAXXZ 000000018005c3c0 f i insertShapeUtilsCore.obj
 0001:0005b650       ?ProcessStep@?$DrawPolygon@GGHHMMEH@@UEAAXXZ 000000018005c650 f i insertShapeUtilsCore.obj
 0001:0005b8e0       ?ProcessStep@?$DrawPolygon@MMHHMMEE@@UEAAXXZ 000000018005c8e0 f i insertShapeUtilsCore.obj
 0001:0005bb70       ?ProcessStep@?$DrawPolygon@MMHHMMEH@@UEAAXXZ 000000018005cb70 f i insertShapeUtilsCore.obj
 0001:0005be00       ?ProcessStep@?$DrawPolygon@NNHHNNEE@@UEAAXXZ 000000018005ce00 f i insertShapeUtilsCore.obj
 0001:0005c090       ?ProcessStep@?$DrawPolygon@NNHHNNEH@@UEAAXXZ 000000018005d090 f i insertShapeUtilsCore.obj
 0001:0005c320       ?ProcessStep@?$DrawRectangleAnySize@EEHHMME@@UEAAXXZ 000000018005d320 f i insertShapeUtilsCore.obj
 0001:0005c720       ?ProcessStep@?$DrawRectangleAnySize@FFHHMME@@UEAAXXZ 000000018005d720 f i insertShapeUtilsCore.obj
 0001:0005cb20       ?ProcessStep@?$DrawRectangleAnySize@GGHHMME@@UEAAXXZ 000000018005db20 f i insertShapeUtilsCore.obj
 0001:0005cf20       ?ProcessStep@?$DrawRectangleAnySize@MMHHMME@@UEAAXXZ 000000018005df20 f i insertShapeUtilsCore.obj
 0001:0005d320       ?ProcessStep@?$DrawRectangleAnySize@NNHHNNE@@UEAAXXZ 000000018005e320 f i insertShapeUtilsCore.obj
 0001:0005d720       ?Reset@?$Polygon@HHE@@QEAAXXZ 000000018005e720 f i insertShapeUtilsCore.obj
 0001:0005d750       ?Reset@?$Polygon@HHH@@QEAAXXZ 000000018005e750 f i insertShapeUtilsCore.obj
 0001:0005d780       ?Reset@?$ScanLine@HHE@@UEAAXXZ 000000018005e780 f i insertShapeUtilsCore.obj
 0001:0005d7b0       ?Reset@?$ScanLine@HHH@@UEAAXXZ 000000018005e7b0 f i insertShapeUtilsCore.obj
 0001:0005d7e0       ?ResetFillColorOpacityIndices@?$DrawCommon@EEHHMMEE@@IEAAXXZ 000000018005e7e0 f i insertShapeUtilsCore.obj
 0001:0005d810       ?ResetFillColorOpacityIndices@?$DrawCommon@EEHHMMEH@@IEAAXXZ 000000018005e810 f i insertShapeUtilsCore.obj
 0001:0005d840       ?ResetFillColorOpacityIndices@?$DrawCommon@FFHHMMEE@@IEAAXXZ 000000018005e840 f i insertShapeUtilsCore.obj
 0001:0005d870       ?ResetFillColorOpacityIndices@?$DrawCommon@FFHHMMEH@@IEAAXXZ 000000018005e870 f i insertShapeUtilsCore.obj
 0001:0005d8a0       ?ResetFillColorOpacityIndices@?$DrawCommon@GGHHMMEE@@IEAAXXZ 000000018005e8a0 f i insertShapeUtilsCore.obj
 0001:0005d8d0       ?ResetFillColorOpacityIndices@?$DrawCommon@GGHHMMEH@@IEAAXXZ 000000018005e8d0 f i insertShapeUtilsCore.obj
 0001:0005d900       ?ResetFillColorOpacityIndices@?$DrawCommon@MMHHMMEE@@IEAAXXZ 000000018005e900 f i insertShapeUtilsCore.obj
 0001:0005d930       ?ResetFillColorOpacityIndices@?$DrawCommon@MMHHMMEH@@IEAAXXZ 000000018005e930 f i insertShapeUtilsCore.obj
 0001:0005d960       ?ResetFillColorOpacityIndices@?$DrawCommon@NNHHNNEE@@IEAAXXZ 000000018005e960 f i insertShapeUtilsCore.obj
 0001:0005d990       ?ResetFillColorOpacityIndices@?$DrawCommon@NNHHNNEH@@IEAAXXZ 000000018005e990 f i insertShapeUtilsCore.obj
 0001:0005d9c0       ?ResetStates@?$Polygon@HHE@@AEAAXXZ 000000018005e9c0 f i insertShapeUtilsCore.obj
 0001:0005da10       ?ResetStates@?$Polygon@HHH@@AEAAXXZ 000000018005ea10 f i insertShapeUtilsCore.obj
 0001:0005da60       ?SortEdges@?$Polygon@HHE@@AEAAXHHH@Z 000000018005ea60 f i insertShapeUtilsCore.obj
 0001:0005dbc0       ?SortEdges@?$Polygon@HHH@@AEAAXHHH@Z 000000018005ebc0 f i insertShapeUtilsCore.obj
 0001:0005dd20       ?SwapValues@?$BresenhamLine@HE@@AEAAXAEAH0@Z 000000018005ed20 f i insertShapeUtilsCore.obj
 0001:0005dd60       ?SwapValues@?$BresenhamLine@HH@@AEAAXAEAH0@Z 000000018005ed60 f i insertShapeUtilsCore.obj
 0001:0005dda0       ?UpdateFillColor@DrawBase@@UEAAXPEAX@Z 000000018005eda0 f i insertShapeUtilsCore.obj
 0001:0005ddb0       ?UpdateFillColorOpacity@?$DrawCommon@EEHHMMEE@@UEAAXE@Z 000000018005edb0 f i insertShapeUtilsCore.obj
 0001:0005dfe0       ?UpdateFillColorOpacity@?$DrawCommon@EEHHMMEH@@UEAAXE@Z 000000018005efe0 f i insertShapeUtilsCore.obj
 0001:0005e210       ?UpdateFillColorOpacity@?$DrawCommon@FFHHMMEE@@UEAAXE@Z 000000018005f210 f i insertShapeUtilsCore.obj
 0001:0005e440       ?UpdateFillColorOpacity@?$DrawCommon@FFHHMMEH@@UEAAXE@Z 000000018005f440 f i insertShapeUtilsCore.obj
 0001:0005e670       ?UpdateFillColorOpacity@?$DrawCommon@GGHHMMEE@@UEAAXE@Z 000000018005f670 f i insertShapeUtilsCore.obj
 0001:0005e8a0       ?UpdateFillColorOpacity@?$DrawCommon@GGHHMMEH@@UEAAXE@Z 000000018005f8a0 f i insertShapeUtilsCore.obj
 0001:0005ead0       ?UpdateFillColorOpacity@?$DrawCommon@MMHHMMEE@@UEAAXE@Z 000000018005fad0 f i insertShapeUtilsCore.obj
 0001:0005ed00       ?UpdateFillColorOpacity@?$DrawCommon@MMHHMMEH@@UEAAXE@Z 000000018005fd00 f i insertShapeUtilsCore.obj
 0001:0005ef30       ?UpdateFillColorOpacity@?$DrawCommon@NNHHNNEE@@UEAAXE@Z 000000018005ff30 f i insertShapeUtilsCore.obj
 0001:0005f160       ?UpdateFillColorOpacity@?$DrawCommon@NNHHNNEH@@UEAAXE@Z 0000000180060160 f i insertShapeUtilsCore.obj
 0001:0005f390       ?UpdateFillColorSrc@DrawBase@@UEAAXPEAX@Z 0000000180060390 f i insertShapeUtilsCore.obj
 0001:0005f3a0       ?UpdateImageBoundary@?$DrawCommon@EEHHMMEE@@UEAAXHH@Z 00000001800603a0 f i insertShapeUtilsCore.obj
 0001:0005f400       ?UpdateImageBoundary@?$DrawCommon@EEHHMMEH@@UEAAXHH@Z 0000000180060400 f i insertShapeUtilsCore.obj
 0001:0005f460       ?UpdateImageBoundary@?$DrawCommon@FFHHMMEE@@UEAAXHH@Z 0000000180060460 f i insertShapeUtilsCore.obj
 0001:0005f4c0       ?UpdateImageBoundary@?$DrawCommon@FFHHMMEH@@UEAAXHH@Z 00000001800604c0 f i insertShapeUtilsCore.obj
 0001:0005f520       ?UpdateImageBoundary@?$DrawCommon@GGHHMMEE@@UEAAXHH@Z 0000000180060520 f i insertShapeUtilsCore.obj
 0001:0005f580       ?UpdateImageBoundary@?$DrawCommon@GGHHMMEH@@UEAAXHH@Z 0000000180060580 f i insertShapeUtilsCore.obj
 0001:0005f5e0       ?UpdateImageBoundary@?$DrawCommon@MMHHMMEE@@UEAAXHH@Z 00000001800605e0 f i insertShapeUtilsCore.obj
 0001:0005f640       ?UpdateImageBoundary@?$DrawCommon@MMHHMMEH@@UEAAXHH@Z 0000000180060640 f i insertShapeUtilsCore.obj
 0001:0005f6a0       ?UpdateImageBoundary@?$DrawCommon@NNHHNNEE@@UEAAXHH@Z 00000001800606a0 f i insertShapeUtilsCore.obj
 0001:0005f700       ?UpdateImageBoundary@?$DrawCommon@NNHHNNEH@@UEAAXHH@Z 0000000180060700 f i insertShapeUtilsCore.obj
 0001:0005f760       ?UpdateImageBoundary@DrawBase@@UEAAXHH@Z 0000000180060760 f i insertShapeUtilsCore.obj
 0001:0005f770       ?UpdateLineWidthSrc@?$DrawCommon@EEHHMMEE@@UEAAXPEAH@Z 0000000180060770 f i insertShapeUtilsCore.obj
 0001:0005f790       ?UpdateLineWidthSrc@?$DrawCommon@EEHHMMEH@@UEAAXPEAH@Z 0000000180060790 f i insertShapeUtilsCore.obj
 0001:0005f7b0       ?UpdateLineWidthSrc@?$DrawCommon@FFHHMMEE@@UEAAXPEAH@Z 00000001800607b0 f i insertShapeUtilsCore.obj
 0001:0005f7d0       ?UpdateLineWidthSrc@?$DrawCommon@FFHHMMEH@@UEAAXPEAH@Z 00000001800607d0 f i insertShapeUtilsCore.obj
 0001:0005f7f0       ?UpdateLineWidthSrc@?$DrawCommon@GGHHMMEE@@UEAAXPEAH@Z 00000001800607f0 f i insertShapeUtilsCore.obj
 0001:0005f810       ?UpdateLineWidthSrc@?$DrawCommon@GGHHMMEH@@UEAAXPEAH@Z 0000000180060810 f i insertShapeUtilsCore.obj
 0001:0005f830       ?UpdateLineWidthSrc@?$DrawCommon@MMHHMMEE@@UEAAXPEAH@Z 0000000180060830 f i insertShapeUtilsCore.obj
 0001:0005f850       ?UpdateLineWidthSrc@?$DrawCommon@MMHHMMEH@@UEAAXPEAH@Z 0000000180060850 f i insertShapeUtilsCore.obj
 0001:0005f870       ?UpdateLineWidthSrc@?$DrawCommon@NNHHNNEE@@UEAAXPEAH@Z 0000000180060870 f i insertShapeUtilsCore.obj
 0001:0005f890       ?UpdateLineWidthSrc@?$DrawCommon@NNHHNNEH@@UEAAXPEAH@Z 0000000180060890 f i insertShapeUtilsCore.obj
 0001:0005f8b0       ?UpdateLineWidthSrc@DrawBase@@UEAAXPEAH@Z 00000001800608b0 f i insertShapeUtilsCore.obj
 0001:0005f8c0       ?UpdateNumFillColor@?$DrawCommon@EEHHMMEE@@UEAAXH@Z 00000001800608c0 f i insertShapeUtilsCore.obj
 0001:0005f8e0       ?UpdateNumFillColor@?$DrawCommon@EEHHMMEH@@UEAAXH@Z 00000001800608e0 f i insertShapeUtilsCore.obj
 0001:0005f900       ?UpdateNumFillColor@?$DrawCommon@FFHHMMEE@@UEAAXH@Z 0000000180060900 f i insertShapeUtilsCore.obj
 0001:0005f920       ?UpdateNumFillColor@?$DrawCommon@FFHHMMEH@@UEAAXH@Z 0000000180060920 f i insertShapeUtilsCore.obj
 0001:0005f940       ?UpdateNumFillColor@?$DrawCommon@GGHHMMEE@@UEAAXH@Z 0000000180060940 f i insertShapeUtilsCore.obj
 0001:0005f960       ?UpdateNumFillColor@?$DrawCommon@GGHHMMEH@@UEAAXH@Z 0000000180060960 f i insertShapeUtilsCore.obj
 0001:0005f980       ?UpdateNumFillColor@?$DrawCommon@MMHHMMEE@@UEAAXH@Z 0000000180060980 f i insertShapeUtilsCore.obj
 0001:0005f9a0       ?UpdateNumFillColor@?$DrawCommon@MMHHMMEH@@UEAAXH@Z 00000001800609a0 f i insertShapeUtilsCore.obj
 0001:0005f9c0       ?UpdateNumFillColor@?$DrawCommon@NNHHNNEE@@UEAAXH@Z 00000001800609c0 f i insertShapeUtilsCore.obj
 0001:0005f9e0       ?UpdateNumFillColor@?$DrawCommon@NNHHNNEH@@UEAAXH@Z 00000001800609e0 f i insertShapeUtilsCore.obj
 0001:0005fa00       ?UpdateNumFillColor@DrawBase@@UEAAXH@Z 0000000180060a00 f i insertShapeUtilsCore.obj
 0001:0005fa10       ?UpdateNumOpacity@?$DrawCommon@EEHHMMEE@@UEAAXH@Z 0000000180060a10 f i insertShapeUtilsCore.obj
 0001:0005fa30       ?UpdateNumOpacity@?$DrawCommon@EEHHMMEH@@UEAAXH@Z 0000000180060a30 f i insertShapeUtilsCore.obj
 0001:0005fa50       ?UpdateNumOpacity@?$DrawCommon@FFHHMMEE@@UEAAXH@Z 0000000180060a50 f i insertShapeUtilsCore.obj
 0001:0005fa70       ?UpdateNumOpacity@?$DrawCommon@FFHHMMEH@@UEAAXH@Z 0000000180060a70 f i insertShapeUtilsCore.obj
 0001:0005fa90       ?UpdateNumOpacity@?$DrawCommon@GGHHMMEE@@UEAAXH@Z 0000000180060a90 f i insertShapeUtilsCore.obj
 0001:0005fab0       ?UpdateNumOpacity@?$DrawCommon@GGHHMMEH@@UEAAXH@Z 0000000180060ab0 f i insertShapeUtilsCore.obj
 0001:0005fad0       ?UpdateNumOpacity@?$DrawCommon@MMHHMMEE@@UEAAXH@Z 0000000180060ad0 f i insertShapeUtilsCore.obj
 0001:0005faf0       ?UpdateNumOpacity@?$DrawCommon@MMHHMMEH@@UEAAXH@Z 0000000180060af0 f i insertShapeUtilsCore.obj
 0001:0005fb10       ?UpdateNumOpacity@?$DrawCommon@NNHHNNEE@@UEAAXH@Z 0000000180060b10 f i insertShapeUtilsCore.obj
 0001:0005fb30       ?UpdateNumOpacity@?$DrawCommon@NNHHNNEH@@UEAAXH@Z 0000000180060b30 f i insertShapeUtilsCore.obj
 0001:0005fb50       ?UpdateNumOpacity@DrawBase@@UEAAXH@Z 0000000180060b50 f i insertShapeUtilsCore.obj
 0001:0005fb60       ?UpdateNumShape@?$DrawCommon@EEHHMMEE@@UEAAXH@Z 0000000180060b60 f i insertShapeUtilsCore.obj
 0001:0005fb80       ?UpdateNumShape@?$DrawCommon@EEHHMMEH@@UEAAXH@Z 0000000180060b80 f i insertShapeUtilsCore.obj
 0001:0005fba0       ?UpdateNumShape@?$DrawCommon@FFHHMMEE@@UEAAXH@Z 0000000180060ba0 f i insertShapeUtilsCore.obj
 0001:0005fbc0       ?UpdateNumShape@?$DrawCommon@FFHHMMEH@@UEAAXH@Z 0000000180060bc0 f i insertShapeUtilsCore.obj
 0001:0005fbe0       ?UpdateNumShape@?$DrawCommon@GGHHMMEE@@UEAAXH@Z 0000000180060be0 f i insertShapeUtilsCore.obj
 0001:0005fc00       ?UpdateNumShape@?$DrawCommon@GGHHMMEH@@UEAAXH@Z 0000000180060c00 f i insertShapeUtilsCore.obj
 0001:0005fc20       ?UpdateNumShape@?$DrawCommon@MMHHMMEE@@UEAAXH@Z 0000000180060c20 f i insertShapeUtilsCore.obj
 0001:0005fc40       ?UpdateNumShape@?$DrawCommon@MMHHMMEH@@UEAAXH@Z 0000000180060c40 f i insertShapeUtilsCore.obj
 0001:0005fc60       ?UpdateNumShape@?$DrawCommon@NNHHNNEE@@UEAAXH@Z 0000000180060c60 f i insertShapeUtilsCore.obj
 0001:0005fc80       ?UpdateNumShape@?$DrawCommon@NNHHNNEH@@UEAAXH@Z 0000000180060c80 f i insertShapeUtilsCore.obj
 0001:0005fca0       ?UpdateNumShape@DrawBase@@UEAAXH@Z 0000000180060ca0 f i insertShapeUtilsCore.obj
 0001:0005fcb0       ?UpdateNumSubShape@?$DrawCommon@EEHHMMEE@@UEAAXH@Z 0000000180060cb0 f i insertShapeUtilsCore.obj
 0001:0005fcd0       ?UpdateNumSubShape@?$DrawCommon@EEHHMMEH@@UEAAXH@Z 0000000180060cd0 f i insertShapeUtilsCore.obj
 0001:0005fcf0       ?UpdateNumSubShape@?$DrawCommon@FFHHMMEE@@UEAAXH@Z 0000000180060cf0 f i insertShapeUtilsCore.obj
 0001:0005fd10       ?UpdateNumSubShape@?$DrawCommon@FFHHMMEH@@UEAAXH@Z 0000000180060d10 f i insertShapeUtilsCore.obj
 0001:0005fd30       ?UpdateNumSubShape@?$DrawCommon@GGHHMMEE@@UEAAXH@Z 0000000180060d30 f i insertShapeUtilsCore.obj
 0001:0005fd50       ?UpdateNumSubShape@?$DrawCommon@GGHHMMEH@@UEAAXH@Z 0000000180060d50 f i insertShapeUtilsCore.obj
 0001:0005fd70       ?UpdateNumSubShape@?$DrawCommon@MMHHMMEE@@UEAAXH@Z 0000000180060d70 f i insertShapeUtilsCore.obj
 0001:0005fd90       ?UpdateNumSubShape@?$DrawCommon@MMHHMMEH@@UEAAXH@Z 0000000180060d90 f i insertShapeUtilsCore.obj
 0001:0005fdb0       ?UpdateNumSubShape@?$DrawCommon@NNHHNNEE@@UEAAXH@Z 0000000180060db0 f i insertShapeUtilsCore.obj
 0001:0005fdd0       ?UpdateNumSubShape@?$DrawCommon@NNHHNNEH@@UEAAXH@Z 0000000180060dd0 f i insertShapeUtilsCore.obj
 0001:0005fdf0       ?UpdateNumSubShape@DrawBase@@UEAAXH@Z 0000000180060df0 f i insertShapeUtilsCore.obj
 0001:0005fe00       ?UpdateOpacity@DrawBase@@UEAAXPEAX@Z 0000000180060e00 f i insertShapeUtilsCore.obj
 0001:0005fe10       ?UpdateOpacitySrc@DrawBase@@UEAAXPEAX@Z 0000000180060e10 f i insertShapeUtilsCore.obj
 0001:0005fe20       ?UpdatePolygonNumbers@?$Polygon@HHE@@QEAAXHHH@Z 0000000180060e20 f i insertShapeUtilsCore.obj
 0001:0005fe60       ?UpdatePolygonNumbers@?$Polygon@HHH@@QEAAXHHH@Z 0000000180060e60 f i insertShapeUtilsCore.obj
 0001:0005fea0       ?UpdatePolygonNumbers@?$ScanLineBase@HHE@@QEAAXHHH@Z 0000000180060ea0 f i insertShapeUtilsCore.obj
 0001:0005fee0       ?UpdatePolygonNumbers@?$ScanLineBase@HHH@@QEAAXHHH@Z 0000000180060ee0 f i insertShapeUtilsCore.obj
 0001:0005ff20       ?UpdateSize@?$DrawCommon@EEHHMMEE@@UEAAXPEAX@Z 0000000180060f20 f i insertShapeUtilsCore.obj
 0001:0005ff40       ?UpdateSize@?$DrawCommon@EEHHMMEH@@UEAAXPEAX@Z 0000000180060f40 f i insertShapeUtilsCore.obj
 0001:0005ff60       ?UpdateSize@?$DrawCommon@FFHHMMEE@@UEAAXPEAX@Z 0000000180060f60 f i insertShapeUtilsCore.obj
 0001:0005ff80       ?UpdateSize@?$DrawCommon@FFHHMMEH@@UEAAXPEAX@Z 0000000180060f80 f i insertShapeUtilsCore.obj
 0001:0005ffa0       ?UpdateSize@?$DrawCommon@GGHHMMEE@@UEAAXPEAX@Z 0000000180060fa0 f i insertShapeUtilsCore.obj
 0001:0005ffc0       ?UpdateSize@?$DrawCommon@GGHHMMEH@@UEAAXPEAX@Z 0000000180060fc0 f i insertShapeUtilsCore.obj
 0001:0005ffe0       ?UpdateSize@?$DrawCommon@MMHHMMEE@@UEAAXPEAX@Z 0000000180060fe0 f i insertShapeUtilsCore.obj
 0001:00060000       ?UpdateSize@?$DrawCommon@MMHHMMEH@@UEAAXPEAX@Z 0000000180061000 f i insertShapeUtilsCore.obj
 0001:00060020       ?UpdateSize@?$DrawCommon@NNHHNNEE@@UEAAXPEAX@Z 0000000180061020 f i insertShapeUtilsCore.obj
 0001:00060040       ?UpdateSize@?$DrawCommon@NNHHNNEH@@UEAAXPEAX@Z 0000000180061040 f i insertShapeUtilsCore.obj
 0001:00060060       ?UpdateSize@DrawBase@@UEAAXPEAX@Z 0000000180061060 f i insertShapeUtilsCore.obj
 0001:00060070       ?UpdateViewPort@?$DrawCommon@EEHHMMEE@@UEAAXPEAH@Z 0000000180061070 f i insertShapeUtilsCore.obj
 0001:000600d0       ?UpdateViewPort@?$DrawCommon@EEHHMMEH@@UEAAXPEAH@Z 00000001800610d0 f i insertShapeUtilsCore.obj
 0001:00060130       ?UpdateViewPort@?$DrawCommon@FFHHMMEE@@UEAAXPEAH@Z 0000000180061130 f i insertShapeUtilsCore.obj
 0001:00060190       ?UpdateViewPort@?$DrawCommon@FFHHMMEH@@UEAAXPEAH@Z 0000000180061190 f i insertShapeUtilsCore.obj
 0001:000601f0       ?UpdateViewPort@?$DrawCommon@GGHHMMEE@@UEAAXPEAH@Z 00000001800611f0 f i insertShapeUtilsCore.obj
 0001:00060250       ?UpdateViewPort@?$DrawCommon@GGHHMMEH@@UEAAXPEAH@Z 0000000180061250 f i insertShapeUtilsCore.obj
 0001:000602b0       ?UpdateViewPort@?$DrawCommon@MMHHMMEE@@UEAAXPEAH@Z 00000001800612b0 f i insertShapeUtilsCore.obj
 0001:00060310       ?UpdateViewPort@?$DrawCommon@MMHHMMEH@@UEAAXPEAH@Z 0000000180061310 f i insertShapeUtilsCore.obj
 0001:00060370       ?UpdateViewPort@?$DrawCommon@NNHHNNEE@@UEAAXPEAH@Z 0000000180061370 f i insertShapeUtilsCore.obj
 0001:000603d0       ?UpdateViewPort@?$DrawCommon@NNHHNNEH@@UEAAXPEAH@Z 00000001800613d0 f i insertShapeUtilsCore.obj
 0001:00060430       ?UpdateViewPort@?$ScanLineBase@HHE@@QEAAXHHHH@Z 0000000180061430 f i insertShapeUtilsCore.obj
 0001:000604b0       ?UpdateViewPort@?$ScanLineBase@HHH@@QEAAXHHHH@Z 00000001800614b0 f i insertShapeUtilsCore.obj
 0001:00060530       ?UpdateViewPort@DrawBase@@UEAAXPEAH@Z 0000000180061530 f i insertShapeUtilsCore.obj
 0001:00060540       ?UpdateViewPortSub@?$DrawCommon@EEHHMMEE@@AEAAXXZ 0000000180061540 f i insertShapeUtilsCore.obj
 0001:00060610       ?UpdateViewPortSub@?$DrawCommon@EEHHMMEH@@AEAAXXZ 0000000180061610 f i insertShapeUtilsCore.obj
 0001:000606e0       ?UpdateViewPortSub@?$DrawCommon@FFHHMMEE@@AEAAXXZ 00000001800616e0 f i insertShapeUtilsCore.obj
 0001:000607b0       ?UpdateViewPortSub@?$DrawCommon@FFHHMMEH@@AEAAXXZ 00000001800617b0 f i insertShapeUtilsCore.obj
 0001:00060880       ?UpdateViewPortSub@?$DrawCommon@GGHHMMEE@@AEAAXXZ 0000000180061880 f i insertShapeUtilsCore.obj
 0001:00060950       ?UpdateViewPortSub@?$DrawCommon@GGHHMMEH@@AEAAXXZ 0000000180061950 f i insertShapeUtilsCore.obj
 0001:00060a20       ?UpdateViewPortSub@?$DrawCommon@MMHHMMEE@@AEAAXXZ 0000000180061a20 f i insertShapeUtilsCore.obj
 0001:00060af0       ?UpdateViewPortSub@?$DrawCommon@MMHHMMEH@@AEAAXXZ 0000000180061af0 f i insertShapeUtilsCore.obj
 0001:00060bc0       ?UpdateViewPortSub@?$DrawCommon@NNHHNNEE@@AEAAXXZ 0000000180061bc0 f i insertShapeUtilsCore.obj
 0001:00060c90       ?UpdateViewPortSub@?$DrawCommon@NNHHNNEH@@AEAAXXZ 0000000180061c90 f i insertShapeUtilsCore.obj
 0001:00060d60       ?UpsamplePoints@?$Polygon@HHE@@AEAAXAEAH000E@Z 0000000180061d60 f i insertShapeUtilsCore.obj
 0001:00060d80       ?UpsamplePoints@?$Polygon@HHH@@AEAAXAEAH000H@Z 0000000180061d80 f i insertShapeUtilsCore.obj
 0001:00060df0       ?cast@@YAXPEAEHPEBM@Z      0000000180061df0 f i insertShapeUtilsCore.obj
 0001:00060e20       ?cast@@YAXPEAFHPEBM@Z      0000000180061e20 f i insertShapeUtilsCore.obj
 0001:00060e50       ?cast@@YAXPEAGHPEBM@Z      0000000180061e50 f i insertShapeUtilsCore.obj
 0001:00060e80       ?cast@@YAXPEAMHPEBM@Z      0000000180061e80 f i insertShapeUtilsCore.obj
 0001:00060ec0       ?cast@@YAXPEANHPEBN@Z      0000000180061ec0 f i insertShapeUtilsCore.obj
 0001:00060f00       ?converPolygonPts2TwoPolygonPts@?$DrawFilledPolygon@EEHHMMEE@@AEAAXXZ 0000000180061f00 f i insertShapeUtilsCore.obj
 0001:00061640       ?converPolygonPts2TwoPolygonPts@?$DrawFilledPolygon@EEHHMMEH@@AEAAXXZ 0000000180062640 f i insertShapeUtilsCore.obj
 0001:00061d80       ?converPolygonPts2TwoPolygonPts@?$DrawFilledPolygon@FFHHMMEE@@AEAAXXZ 0000000180062d80 f i insertShapeUtilsCore.obj
 0001:000624c0       ?converPolygonPts2TwoPolygonPts@?$DrawFilledPolygon@FFHHMMEH@@AEAAXXZ 00000001800634c0 f i insertShapeUtilsCore.obj
 0001:00062c00       ?converPolygonPts2TwoPolygonPts@?$DrawFilledPolygon@GGHHMMEE@@AEAAXXZ 0000000180063c00 f i insertShapeUtilsCore.obj
 0001:00063340       ?converPolygonPts2TwoPolygonPts@?$DrawFilledPolygon@GGHHMMEH@@AEAAXXZ 0000000180064340 f i insertShapeUtilsCore.obj
 0001:00063a80       ?converPolygonPts2TwoPolygonPts@?$DrawFilledPolygon@MMHHMMEE@@AEAAXXZ 0000000180064a80 f i insertShapeUtilsCore.obj
 0001:000641c0       ?converPolygonPts2TwoPolygonPts@?$DrawFilledPolygon@MMHHMMEH@@AEAAXXZ 00000001800651c0 f i insertShapeUtilsCore.obj
 0001:00064900       ?converPolygonPts2TwoPolygonPts@?$DrawFilledPolygon@NNHHNNEE@@AEAAXXZ 0000000180065900 f i insertShapeUtilsCore.obj
 0001:00065040       ?converPolygonPts2TwoPolygonPts@?$DrawFilledPolygon@NNHHNNEH@@AEAAXXZ 0000000180066040 f i insertShapeUtilsCore.obj
 0001:00065780       ?convertLinePts2PolygonPts@?$DrawFilledPolygon@EEHHMMEE@@AEAAXXZ 0000000180066780 f i insertShapeUtilsCore.obj
 0001:00066380       ?convertLinePts2PolygonPts@?$DrawFilledPolygon@EEHHMMEH@@AEAAXXZ 0000000180067380 f i insertShapeUtilsCore.obj
 0001:00066f80       ?convertLinePts2PolygonPts@?$DrawFilledPolygon@FFHHMMEE@@AEAAXXZ 0000000180067f80 f i insertShapeUtilsCore.obj
 0001:00067b80       ?convertLinePts2PolygonPts@?$DrawFilledPolygon@FFHHMMEH@@AEAAXXZ 0000000180068b80 f i insertShapeUtilsCore.obj
 0001:00068780       ?convertLinePts2PolygonPts@?$DrawFilledPolygon@GGHHMMEE@@AEAAXXZ 0000000180069780 f i insertShapeUtilsCore.obj
 0001:00069380       ?convertLinePts2PolygonPts@?$DrawFilledPolygon@GGHHMMEH@@AEAAXXZ 000000018006a380 f i insertShapeUtilsCore.obj
 0001:00069f80       ?convertLinePts2PolygonPts@?$DrawFilledPolygon@MMHHMMEE@@AEAAXXZ 000000018006af80 f i insertShapeUtilsCore.obj
 0001:0006ab80       ?convertLinePts2PolygonPts@?$DrawFilledPolygon@MMHHMMEH@@AEAAXXZ 000000018006bb80 f i insertShapeUtilsCore.obj
 0001:0006b780       ?convertLinePts2PolygonPts@?$DrawFilledPolygon@NNHHNNEE@@AEAAXXZ 000000018006c780 f i insertShapeUtilsCore.obj
 0001:0006c380       ?convertLinePts2PolygonPts@?$DrawFilledPolygon@NNHHNNEH@@AEAAXXZ 000000018006d380 f i insertShapeUtilsCore.obj
 0001:0006cf80       ?findPointOfIntersection@?$DrawFilledPolygon@EEHHMMEE@@AEAAXEPEAM0AEAH1W4Paral_T@@2HH@Z 000000018006df80 f i insertShapeUtilsCore.obj
 0001:0006d320       ?findPointOfIntersection@?$DrawFilledPolygon@EEHHMMEH@@AEAAXEPEAM0AEAH1W4Paral_T@@2HH@Z 000000018006e320 f i insertShapeUtilsCore.obj
 0001:0006d6c0       ?findPointOfIntersection@?$DrawFilledPolygon@FFHHMMEE@@AEAAXEPEAM0AEAH1W4Paral_T@@2HH@Z 000000018006e6c0 f i insertShapeUtilsCore.obj
 0001:0006da60       ?findPointOfIntersection@?$DrawFilledPolygon@FFHHMMEH@@AEAAXEPEAM0AEAH1W4Paral_T@@2HH@Z 000000018006ea60 f i insertShapeUtilsCore.obj
 0001:0006de00       ?findPointOfIntersection@?$DrawFilledPolygon@GGHHMMEE@@AEAAXEPEAM0AEAH1W4Paral_T@@2HH@Z 000000018006ee00 f i insertShapeUtilsCore.obj
 0001:0006e1a0       ?findPointOfIntersection@?$DrawFilledPolygon@GGHHMMEH@@AEAAXEPEAM0AEAH1W4Paral_T@@2HH@Z 000000018006f1a0 f i insertShapeUtilsCore.obj
 0001:0006e540       ?findPointOfIntersection@?$DrawFilledPolygon@MMHHMMEE@@AEAAXEPEAM0AEAH1W4Paral_T@@2HH@Z 000000018006f540 f i insertShapeUtilsCore.obj
 0001:0006e8e0       ?findPointOfIntersection@?$DrawFilledPolygon@MMHHMMEH@@AEAAXEPEAM0AEAH1W4Paral_T@@2HH@Z 000000018006f8e0 f i insertShapeUtilsCore.obj
 0001:0006ec80       ?findPointOfIntersection@?$DrawFilledPolygon@NNHHNNEE@@AEAAXEPEAN0AEAH1W4Paral_T@@2HH@Z 000000018006fc80 f i insertShapeUtilsCore.obj
 0001:0006f020       ?findPointOfIntersection@?$DrawFilledPolygon@NNHHNNEH@@AEAAXEPEAN0AEAH1W4Paral_T@@2HH@Z 0000000180070020 f i insertShapeUtilsCore.obj
 0001:0006f3c0       ?findPointOfIntersectionNormal@?$DrawFilledPolygon@EEHHMMEE@@AEAAXEPEAMAEAH1W4Paral_T@@@Z 00000001800703c0 f i insertShapeUtilsCore.obj
 0001:0006f650       ?findPointOfIntersectionNormal@?$DrawFilledPolygon@EEHHMMEH@@AEAAXEPEAMAEAH1W4Paral_T@@@Z 0000000180070650 f i insertShapeUtilsCore.obj
 0001:0006f8e0       ?findPointOfIntersectionNormal@?$DrawFilledPolygon@FFHHMMEE@@AEAAXEPEAMAEAH1W4Paral_T@@@Z 00000001800708e0 f i insertShapeUtilsCore.obj
 0001:0006fb70       ?findPointOfIntersectionNormal@?$DrawFilledPolygon@FFHHMMEH@@AEAAXEPEAMAEAH1W4Paral_T@@@Z 0000000180070b70 f i insertShapeUtilsCore.obj
 0001:0006fe00       ?findPointOfIntersectionNormal@?$DrawFilledPolygon@GGHHMMEE@@AEAAXEPEAMAEAH1W4Paral_T@@@Z 0000000180070e00 f i insertShapeUtilsCore.obj
 0001:00070090       ?findPointOfIntersectionNormal@?$DrawFilledPolygon@GGHHMMEH@@AEAAXEPEAMAEAH1W4Paral_T@@@Z 0000000180071090 f i insertShapeUtilsCore.obj
 0001:00070320       ?findPointOfIntersectionNormal@?$DrawFilledPolygon@MMHHMMEE@@AEAAXEPEAMAEAH1W4Paral_T@@@Z 0000000180071320 f i insertShapeUtilsCore.obj
 0001:000705b0       ?findPointOfIntersectionNormal@?$DrawFilledPolygon@MMHHMMEH@@AEAAXEPEAMAEAH1W4Paral_T@@@Z 00000001800715b0 f i insertShapeUtilsCore.obj
 0001:00070840       ?findPointOfIntersectionNormal@?$DrawFilledPolygon@NNHHNNEE@@AEAAXEPEANAEAH1W4Paral_T@@@Z 0000000180071840 f i insertShapeUtilsCore.obj
 0001:00070ae0       ?findPointOfIntersectionNormal@?$DrawFilledPolygon@NNHHNNEH@@AEAAXEPEANAEAH1W4Paral_T@@@Z 0000000180071ae0 f i insertShapeUtilsCore.obj
 0001:00070d80       ?floor@@YAMM@Z             0000000180071d80 f i insertShapeUtilsCore.obj
 0001:00070db0       ?getCoordinate@?$Polygon@HHE@@AEAAHH@Z 0000000180071db0 f i insertShapeUtilsCore.obj
 0001:00070e00       ?getCoordinate@?$Polygon@HHH@@AEAAHH@Z 0000000180071e00 f i insertShapeUtilsCore.obj
 0001:00070e50       ?getLineParams@?$DrawFilledPolygon@EEHHMMEE@@AEAAXHHHHHHPEAMAEAW4Paral_T@@@Z 0000000180071e50 f i insertShapeUtilsCore.obj
 0001:00071440       ?getLineParams@?$DrawFilledPolygon@EEHHMMEH@@AEAAXHHHHHHPEAMAEAW4Paral_T@@@Z 0000000180072440 f i insertShapeUtilsCore.obj
 0001:00071a30       ?getLineParams@?$DrawFilledPolygon@FFHHMMEE@@AEAAXHHHHHHPEAMAEAW4Paral_T@@@Z 0000000180072a30 f i insertShapeUtilsCore.obj
 0001:00072020       ?getLineParams@?$DrawFilledPolygon@FFHHMMEH@@AEAAXHHHHHHPEAMAEAW4Paral_T@@@Z 0000000180073020 f i insertShapeUtilsCore.obj
 0001:00072610       ?getLineParams@?$DrawFilledPolygon@GGHHMMEE@@AEAAXHHHHHHPEAMAEAW4Paral_T@@@Z 0000000180073610 f i insertShapeUtilsCore.obj
 0001:00072c00       ?getLineParams@?$DrawFilledPolygon@GGHHMMEH@@AEAAXHHHHHHPEAMAEAW4Paral_T@@@Z 0000000180073c00 f i insertShapeUtilsCore.obj
 0001:000731f0       ?getLineParams@?$DrawFilledPolygon@MMHHMMEE@@AEAAXHHHHHHPEAMAEAW4Paral_T@@@Z 00000001800741f0 f i insertShapeUtilsCore.obj
 0001:000737e0       ?getLineParams@?$DrawFilledPolygon@MMHHMMEH@@AEAAXHHHHHHPEAMAEAW4Paral_T@@@Z 00000001800747e0 f i insertShapeUtilsCore.obj
 0001:00073dd0       ?getLineParams@?$DrawFilledPolygon@NNHHNNEE@@AEAAXHHHHHHPEANAEAW4Paral_T@@@Z 0000000180074dd0 f i insertShapeUtilsCore.obj
 0001:000743d0       ?getLineParams@?$DrawFilledPolygon@NNHHNNEH@@AEAAXHHHHHHPEANAEAW4Paral_T@@@Z 00000001800753d0 f i insertShapeUtilsCore.obj
 0001:000749d0       ?idxCol@?$Polygon@HHE@@AEAAHHH@Z 00000001800759d0 f i insertShapeUtilsCore.obj
 0001:00074a20       ?idxCol@?$Polygon@HHH@@AEAAHHH@Z 0000000180075a20 f i insertShapeUtilsCore.obj
 0001:00074a70       ?idxNextPoint@?$Polygon@HHE@@AEAAHH@Z 0000000180075a70 f i insertShapeUtilsCore.obj
 0001:00074ab0       ?idxNextPoint@?$Polygon@HHH@@AEAAHH@Z 0000000180075ab0 f i insertShapeUtilsCore.obj
 0001:00074af0       ?idxRow@?$Polygon@HHE@@AEAAHHH@Z 0000000180075af0 f i insertShapeUtilsCore.obj
 0001:00074b40       ?idxRow@?$Polygon@HHH@@AEAAHHH@Z 0000000180075b40 f i insertShapeUtilsCore.obj
 0001:00074b90       ?isValidPair@?$DrawFilledPolygon@EEHHMMEE@@AEAAEHHHHHHPEAM0W4Paral_T@@1@Z 0000000180075b90 f i insertShapeUtilsCore.obj
 0001:00074db0       ?isValidPair@?$DrawFilledPolygon@EEHHMMEH@@AEAAEHHHHHHPEAM0W4Paral_T@@1@Z 0000000180075db0 f i insertShapeUtilsCore.obj
 0001:00074fd0       ?isValidPair@?$DrawFilledPolygon@FFHHMMEE@@AEAAEHHHHHHPEAM0W4Paral_T@@1@Z 0000000180075fd0 f i insertShapeUtilsCore.obj
 0001:000751f0       ?isValidPair@?$DrawFilledPolygon@FFHHMMEH@@AEAAEHHHHHHPEAM0W4Paral_T@@1@Z 00000001800761f0 f i insertShapeUtilsCore.obj
 0001:00075410       ?isValidPair@?$DrawFilledPolygon@GGHHMMEE@@AEAAEHHHHHHPEAM0W4Paral_T@@1@Z 0000000180076410 f i insertShapeUtilsCore.obj
 0001:00075630       ?isValidPair@?$DrawFilledPolygon@GGHHMMEH@@AEAAEHHHHHHPEAM0W4Paral_T@@1@Z 0000000180076630 f i insertShapeUtilsCore.obj
 0001:00075850       ?isValidPair@?$DrawFilledPolygon@MMHHMMEE@@AEAAEHHHHHHPEAM0W4Paral_T@@1@Z 0000000180076850 f i insertShapeUtilsCore.obj
 0001:00075a70       ?isValidPair@?$DrawFilledPolygon@MMHHMMEH@@AEAAEHHHHHHPEAM0W4Paral_T@@1@Z 0000000180076a70 f i insertShapeUtilsCore.obj
 0001:00075c90       ?isValidPair@?$DrawFilledPolygon@NNHHNNEE@@AEAAEHHHHHHPEAN0W4Paral_T@@1@Z 0000000180076c90 f i insertShapeUtilsCore.obj
 0001:00075eb0       ?isValidPair@?$DrawFilledPolygon@NNHHNNEH@@AEAAEHHHHHHPEAN0W4Paral_T@@1@Z 0000000180076eb0 f i insertShapeUtilsCore.obj
 0001:000760d0       ?is_RightOfLine_CtrToRef@?$DrawFilledPolygon@EEHHMMEE@@AEAAEUXY_T@@00@Z 00000001800770d0 f i insertShapeUtilsCore.obj
 0001:000761f0       ?is_RightOfLine_CtrToRef@?$DrawFilledPolygon@EEHHMMEH@@AEAAEUXY_T@@00@Z 00000001800771f0 f i insertShapeUtilsCore.obj
 0001:00076310       ?is_RightOfLine_CtrToRef@?$DrawFilledPolygon@FFHHMMEE@@AEAAEUXY_T@@00@Z 0000000180077310 f i insertShapeUtilsCore.obj
 0001:00076430       ?is_RightOfLine_CtrToRef@?$DrawFilledPolygon@FFHHMMEH@@AEAAEUXY_T@@00@Z 0000000180077430 f i insertShapeUtilsCore.obj
 0001:00076550       ?is_RightOfLine_CtrToRef@?$DrawFilledPolygon@GGHHMMEE@@AEAAEUXY_T@@00@Z 0000000180077550 f i insertShapeUtilsCore.obj
 0001:00076670       ?is_RightOfLine_CtrToRef@?$DrawFilledPolygon@GGHHMMEH@@AEAAEUXY_T@@00@Z 0000000180077670 f i insertShapeUtilsCore.obj
 0001:00076790       ?is_RightOfLine_CtrToRef@?$DrawFilledPolygon@MMHHMMEE@@AEAAEUXY_T@@00@Z 0000000180077790 f i insertShapeUtilsCore.obj
 0001:000768b0       ?is_RightOfLine_CtrToRef@?$DrawFilledPolygon@MMHHMMEH@@AEAAEUXY_T@@00@Z 00000001800778b0 f i insertShapeUtilsCore.obj
 0001:000769d0       ?is_RightOfLine_CtrToRef@?$DrawFilledPolygon@NNHHNNEE@@AEAAEUXY_T@@00@Z 00000001800779d0 f i insertShapeUtilsCore.obj
 0001:00076af0       ?is_RightOfLine_CtrToRef@?$DrawFilledPolygon@NNHHNNEH@@AEAAEUXY_T@@00@Z 0000000180077af0 f i insertShapeUtilsCore.obj
 0001:00076c10       ?lclAssign@?$DrawFilledPolygon@EEHHMMEE@@AEAAXAEAMH@Z 0000000180077c10 f i insertShapeUtilsCore.obj
 0001:00076c30       ?lclAssign@?$DrawFilledPolygon@EEHHMMEH@@AEAAXAEAMH@Z 0000000180077c30 f i insertShapeUtilsCore.obj
 0001:00076c50       ?lclAssign@?$DrawFilledPolygon@FFHHMMEE@@AEAAXAEAMH@Z 0000000180077c50 f i insertShapeUtilsCore.obj
 0001:00076c70       ?lclAssign@?$DrawFilledPolygon@FFHHMMEH@@AEAAXAEAMH@Z 0000000180077c70 f i insertShapeUtilsCore.obj
 0001:00076c90       ?lclAssign@?$DrawFilledPolygon@GGHHMMEE@@AEAAXAEAMH@Z 0000000180077c90 f i insertShapeUtilsCore.obj
 0001:00076cb0       ?lclAssign@?$DrawFilledPolygon@GGHHMMEH@@AEAAXAEAMH@Z 0000000180077cb0 f i insertShapeUtilsCore.obj
 0001:00076cd0       ?lclAssign@?$DrawFilledPolygon@MMHHMMEE@@AEAAXAEAMH@Z 0000000180077cd0 f i insertShapeUtilsCore.obj
 0001:00076cf0       ?lclAssign@?$DrawFilledPolygon@MMHHMMEH@@AEAAXAEAMH@Z 0000000180077cf0 f i insertShapeUtilsCore.obj
 0001:00076d10       ?lclAssign@?$DrawFilledPolygon@NNHHNNEE@@AEAAXAEANH@Z 0000000180077d10 f i insertShapeUtilsCore.obj
 0001:00076d30       ?lclAssign@?$DrawFilledPolygon@NNHHNNEH@@AEAAXAEANH@Z 0000000180077d30 f i insertShapeUtilsCore.obj
 0001:00076d50       ?lclDSPFixptDivide@?$DrawFilledPolygon@EEHHMMEE@@AEAAXAEAMAEBM1@Z 0000000180077d50 f i insertShapeUtilsCore.obj
 0001:00076d80       ?lclDSPFixptDivide@?$DrawFilledPolygon@EEHHMMEH@@AEAAXAEAMAEBM1@Z 0000000180077d80 f i insertShapeUtilsCore.obj
 0001:00076db0       ?lclDSPFixptDivide@?$DrawFilledPolygon@FFHHMMEE@@AEAAXAEAMAEBM1@Z 0000000180077db0 f i insertShapeUtilsCore.obj
 0001:00076de0       ?lclDSPFixptDivide@?$DrawFilledPolygon@FFHHMMEH@@AEAAXAEAMAEBM1@Z 0000000180077de0 f i insertShapeUtilsCore.obj
 0001:00076e10       ?lclDSPFixptDivide@?$DrawFilledPolygon@GGHHMMEE@@AEAAXAEAMAEBM1@Z 0000000180077e10 f i insertShapeUtilsCore.obj
 0001:00076e40       ?lclDSPFixptDivide@?$DrawFilledPolygon@GGHHMMEH@@AEAAXAEAMAEBM1@Z 0000000180077e40 f i insertShapeUtilsCore.obj
 0001:00076e70       ?lclDSPFixptDivide@?$DrawFilledPolygon@MMHHMMEE@@AEAAXAEAMAEBM1@Z 0000000180077e70 f i insertShapeUtilsCore.obj
 0001:00076ea0       ?lclDSPFixptDivide@?$DrawFilledPolygon@MMHHMMEH@@AEAAXAEAMAEBM1@Z 0000000180077ea0 f i insertShapeUtilsCore.obj
 0001:00076ed0       ?lclDSPFixptDivide@?$DrawFilledPolygon@NNHHNNEE@@AEAAXAEANAEBN1@Z 0000000180077ed0 f i insertShapeUtilsCore.obj
 0001:00076f00       ?lclDSPFixptDivide@?$DrawFilledPolygon@NNHHNNEH@@AEAAXAEANAEBN1@Z 0000000180077f00 f i insertShapeUtilsCore.obj
 0001:00076f30       ?lclDSPFixptSqrt@?$DrawFilledPolygon@EEHHMMEE@@AEAAXAEAMM@Z 0000000180077f30 f i insertShapeUtilsCore.obj
 0001:00076f60       ?lclDSPFixptSqrt@?$DrawFilledPolygon@EEHHMMEH@@AEAAXAEAMM@Z 0000000180077f60 f i insertShapeUtilsCore.obj
 0001:00076f90       ?lclDSPFixptSqrt@?$DrawFilledPolygon@FFHHMMEE@@AEAAXAEAMM@Z 0000000180077f90 f i insertShapeUtilsCore.obj
 0001:00076fc0       ?lclDSPFixptSqrt@?$DrawFilledPolygon@FFHHMMEH@@AEAAXAEAMM@Z 0000000180077fc0 f i insertShapeUtilsCore.obj
 0001:00076ff0       ?lclDSPFixptSqrt@?$DrawFilledPolygon@GGHHMMEE@@AEAAXAEAMM@Z 0000000180077ff0 f i insertShapeUtilsCore.obj
 0001:00077020       ?lclDSPFixptSqrt@?$DrawFilledPolygon@GGHHMMEH@@AEAAXAEAMM@Z 0000000180078020 f i insertShapeUtilsCore.obj
 0001:00077050       ?lclDSPFixptSqrt@?$DrawFilledPolygon@MMHHMMEE@@AEAAXAEAMM@Z 0000000180078050 f i insertShapeUtilsCore.obj
 0001:00077080       ?lclDSPFixptSqrt@?$DrawFilledPolygon@MMHHMMEH@@AEAAXAEAMM@Z 0000000180078080 f i insertShapeUtilsCore.obj
 0001:000770b0       ?lclDSPFixptSqrt@?$DrawFilledPolygon@NNHHNNEE@@AEAAXAEANN@Z 00000001800780b0 f i insertShapeUtilsCore.obj
 0001:000770e0       ?lclDSPFixptSqrt@?$DrawFilledPolygon@NNHHNNEH@@AEAAXAEANN@Z 00000001800780e0 f i insertShapeUtilsCore.obj
 0001:00077110       ?nearest@?$DrawFilledPolygon@EEHHMMEE@@AEAAHM@Z 0000000180078110 f i insertShapeUtilsCore.obj
 0001:000771a0       ?nearest@?$DrawFilledPolygon@EEHHMMEH@@AEAAHM@Z 00000001800781a0 f i insertShapeUtilsCore.obj
 0001:00077230       ?nearest@?$DrawFilledPolygon@FFHHMMEE@@AEAAHM@Z 0000000180078230 f i insertShapeUtilsCore.obj
 0001:000772c0       ?nearest@?$DrawFilledPolygon@FFHHMMEH@@AEAAHM@Z 00000001800782c0 f i insertShapeUtilsCore.obj
 0001:00077350       ?nearest@?$DrawFilledPolygon@GGHHMMEE@@AEAAHM@Z 0000000180078350 f i insertShapeUtilsCore.obj
 0001:000773e0       ?nearest@?$DrawFilledPolygon@GGHHMMEH@@AEAAHM@Z 00000001800783e0 f i insertShapeUtilsCore.obj
 0001:00077470       ?nearest@?$DrawFilledPolygon@MMHHMMEE@@AEAAHM@Z 0000000180078470 f i insertShapeUtilsCore.obj
 0001:00077500       ?nearest@?$DrawFilledPolygon@MMHHMMEH@@AEAAHM@Z 0000000180078500 f i insertShapeUtilsCore.obj
 0001:00077590       ?nearest@?$DrawFilledPolygon@NNHHNNEE@@AEAAHN@Z 0000000180078590 f i insertShapeUtilsCore.obj
 0001:00077620       ?nearest@?$DrawFilledPolygon@NNHHNNEH@@AEAAHN@Z 0000000180078620 f i insertShapeUtilsCore.obj
 0001:000776b0       ?sqrt@@YAMM@Z              00000001800786b0 f i insertShapeUtilsCore.obj
 0001:000776e0       ?multiplyEqual@@YAXPEANHPEBNH@Z 00000001800786e0 f   cvstDraw.obj
 0001:00077730       ?multiplyEqual@@YAXPEAMHPEBMH@Z 0000000180078730 f   cvstDraw.obj
 0001:00077780       ?multiplyEqual@@YAXPEAEHPEBMH@Z 0000000180078780 f   cvstDraw.obj
 0001:000777f0       ?multiplyEqual@@YAXPEAGHPEBMH@Z 00000001800787f0 f   cvstDraw.obj
 0001:00077860       ?multiplyEqual@@YAXPEAFHPEBMH@Z 0000000180078860 f   cvstDraw.obj
 0001:000778c0       ?checkAntiAlias@@YAEHE@Z   00000001800788c0 f   insertShapeAndMarkerUtils.obj
 0001:000778f0       ?isLineWidthApplicable@@YAEHE@Z 00000001800788f0 f   insertShapeAndMarkerUtils.obj
 0001:00077930       ?useFillShapePolygonCodeX@@YAEHEE@Z 0000000180078930 f   insertShapeAndMarkerUtils.obj
 0001:00077990       ?isLineOrNonFilledPolygon@@YAEHE@Z 0000000180078990 f   insertShapeAndMarkerUtils.obj
 0001:000779e0       ?drawShapes@@YAXPEAPEAVDrawBase@@EEHHHH@Z 00000001800789e0 f   insertShapeAndMarkerUtils.obj
 0001:00077b20       ?copyInputImageToOutput@@YAXPEAXPEBX_K@Z 0000000180078b20 f   insertShapeAndMarkerUtils.obj
 0001:00077b50       getBitfieldFromFloat       0000000180078b50 f   half_type.obj
 0001:00077b80       getFloatFromBitfield       0000000180078b80 f   half_type.obj
 0001:00077bb0       getBitfieldFromHalf        0000000180078bb0 f   half_type.obj
 0001:00077bd0       getHalfFromBitfield        0000000180078bd0 f   half_type.obj
 0001:00077c00       halfToFloat                0000000180078c00 f   half_type.obj
 0001:00077cb0       halfToDouble               0000000180078cb0 f   half_type.obj
 0001:00077ce0       floatToHalf                0000000180078ce0 f   half_type.obj
 0001:00077f40       doubleToHalf               0000000180078f40 f   half_type.obj
 0001:0007822c       rgb2gray_tbb_uint8         000000018007922c f   libmwrgb2gray_tbb:libmwrgb2gray_tbb.dll
 0001:00078232       initialiseOutput           0000000180079232 f   libmwreadAprilTag:libmwreadAprilTag.dll
 0001:00078238       initialisePoses            0000000180079238 f   libmwreadAprilTag:libmwreadAprilTag.dll
 0001:0007823e       getAprilTagIdPoseDetections 000000018007923e f   libmwreadAprilTag:libmwreadAprilTag.dll
 0001:00078244       drotg                      0000000180079244 f   libmwblas:libmwblas.dll
 0001:0007824a       sf_load_rtw_optimization_info 000000018007924a f   sf_runtime:sf_runtime.dll
 0001:00078250       sf_mex_decode              0000000180079250 f   sf_runtime:sf_runtime.dll
 0001:00078256       sf_init_ChartRunTimeInfo   0000000180079256 f   sf_runtime:sf_runtime.dll
 0001:0007825c       sf_free_ChartRunTimeInfo   000000018007925c f   sf_runtime:sf_runtime.dll
 0001:00078262       sfrtGetEmlrtCtx            0000000180079262 f   sf_runtime:sf_runtime.dll
 0001:00078268       sfrtGetCovrtInstance       0000000180079268 f   sf_runtime:sf_runtime.dll
 0001:0007826e       sf_get_chart_instance_ptr  000000018007926e f   sf_runtime:sf_runtime.dll
 0001:00078274       sim_mode_is_rtw_gen        0000000180079274 f   sf_runtime:sf_runtime.dll
 0001:0007827a       sim_mode_is_external       000000018007927a f   sf_runtime:sf_runtime.dll
 0001:00078280       sf_mex_listen_for_ctrl_c   0000000180079280 f   sf_runtime:sf_runtime.dll
 0001:00078286       sf_clear_rtw_identifier    0000000180079286 f   sf_runtime:sf_runtime.dll
 0001:0007828c       sf_get_time                000000018007928c f   sf_runtime:sf_runtime.dll
 0001:00078292       sfDoAnimationWrapper       0000000180079292 f   sf_runtime:sf_runtime.dll
 0001:00078298       setDataBrowseFcn           0000000180079298 f   sf_runtime:sf_runtime.dll
 0001:0007829e       setDebuggerFlag            000000018007929e f   sf_runtime:sf_runtime.dll
 0001:000782a4       sf_warn_if_symbolic_dimension_param_changed 00000001800792a4 f   sf_runtime:sf_runtime.dll
 0001:000782aa       sf_set_work_widths         00000001800792aa f   sf_runtime:sf_runtime.dll
 0001:000782b0       sfListenerCacheSimStruct   00000001800792b0 f   sf_runtime:sf_runtime.dll
 0001:000782b6       sfListenerLightTerminate   00000001800792b6 f   sf_runtime:sf_runtime.dll
 0001:000782bc       sfListenerInitializeRuntimeVars 00000001800792bc f   sf_runtime:sf_runtime.dll
 0001:000782c2       sf_mex_printf              00000001800792c2 f   sf_runtime:sf_runtime.dll
 0001:000782c8       sf_mex_call                00000001800792c8 f   sf_runtime:sf_runtime.dll
 0001:000782ce       sf_mex_error_message       00000001800792ce f   sf_runtime:sf_runtime.dll
 0001:000782d4       sf_mex_create_class_instance 00000001800792d4 f   sf_runtime:sf_runtime.dll
 0001:000782da       sf_mex_set_all_properties  00000001800792da f   sf_runtime:sf_runtime.dll
 0001:000782e0       sf_mex_convert_to_redirect_source 00000001800792e0 f   sf_runtime:sf_runtime.dll
 0001:000782e6       sf_mex_create              00000001800792e6 f   sf_runtime:sf_runtime.dll
 0001:000782ec       sf_mex_createcellarray     00000001800792ec f   sf_runtime:sf_runtime.dll
 0001:000782f2       sf_mex_createcellmatrix    00000001800792f2 f   sf_runtime:sf_runtime.dll
 0001:000782f8       sf_mex_setcell             00000001800792f8 f   sf_runtime:sf_runtime.dll
 0001:000782fe       sf_mex_getcell             00000001800792fe f   sf_runtime:sf_runtime.dll
 0001:00078304       sf_mex_assign              0000000180079304 f   sf_runtime:sf_runtime.dll
 0001:0007830a       sf_mex_dup                 000000018007930a f   sf_runtime:sf_runtime.dll
 0001:00078310       sf_mex_destroy             0000000180079310 f   sf_runtime:sf_runtime.dll
 0001:00078316       sf_mex_import              0000000180079316 f   sf_runtime:sf_runtime.dll
 0001:0007831c       ssGetInputPortSignal_wrapper 000000018007931c f   sf_runtime:sf_runtime.dll
 0001:00078322       ssGetOutputPortSignal_wrapper 0000000180079322 f   sf_runtime:sf_runtime.dll
 0001:00078328       sf_data_overflow_error     0000000180079328 f   sf_runtime:sf_runtime.dll
 0001:0007832e       sf_get_ChartInfoStruct_CodeGen 000000018007932e f   sf_runtime:sf_runtime.dll
 0001:00078334       sf_get_hasSeparateUpdateOutputs 0000000180079334 f   sf_runtime:sf_runtime.dll
 0001:0007833a       callMdlMethodAndReportError 000000018007933a f   sf_runtime:sf_runtime.dll
 0001:00078340       call_sf_machine_global_method_dispatcher 0000000180079340 f   sf_runtime:sf_runtime.dll
 0001:00078346       getRuntimeInstanceInfoAsVoid 0000000180079346 f   sf_runtime:sf_runtime.dll
 0001:0007834c       sf_mex_error_direct_call   000000018007934c f   sf_runtime:sf_runtime.dll
 0001:00078352       sf_clear_error_manager_info 0000000180079352 f   sf_runtime:sf_runtime.dll
 0001:00078358       mxIsChar_800               0000000180079358 f   libmx:libmx.dll
 0001:0007835e       mxGetScalar_800            000000018007935e f   libmx:libmx.dll
 0001:00078364       mxGetPr_800                0000000180079364 f   libmx:libmx.dll
 0001:0007836a       mxDestroyArray_800         000000018007936a f   libmx:libmx.dll
 0001:00078370       mxCreateDoubleMatrix_800   0000000180079370 f   libmx:libmx.dll
 0001:00078376       mxGetString_800            0000000180079376 f   libmx:libmx.dll
 0001:0007837c       mxDuplicateArray_800       000000018007937c f   libmx:libmx.dll
 0001:00078382       mxSetCell_800              0000000180079382 f   libmx:libmx.dll
 0001:00078388       mxSetField_800             0000000180079388 f   libmx:libmx.dll
 0001:0007838e       mxCreateString_800         000000018007938e f   libmx:libmx.dll
 0001:00078394       mxCreateCellMatrix_800     0000000180079394 f   libmx:libmx.dll
 0001:0007839a       mxCreateStructMatrix_800   000000018007939a f   libmx:libmx.dll
 0001:000783a0       mxGetNaN_800               00000001800793a0 f   libmx:libmx.dll
 0001:000783a6       mxCalloc_800               00000001800793a6 f   libmx:libmx.dll
 0001:000783ac       mxGetM_800                 00000001800793ac f   libmx:libmx.dll
 0001:000783b2       mxGetClassID_800           00000001800793b2 f   libmx:libmx.dll
 0001:000783b8       mxIsNumeric_800            00000001800793b8 f   libmx:libmx.dll
 0001:000783be       mxIsComplex_800            00000001800793be f   libmx:libmx.dll
 0001:000783c4       mxGetN_800                 00000001800793c4 f   libmx:libmx.dll
 0001:000783ca       mxCreateDoubleScalar_800   00000001800793ca f   libmx:libmx.dll
 0001:000783d0       mexMakeArrayPersistent_800 00000001800793d0 f   libmex:libmex.dll
 0001:000783d6       mexErrMsgTxt_800           00000001800793d6 f   libmex:libmex.dll
 0001:000783dc       mexWarnMsgTxt_800          00000001800793dc f   libmex:libmex.dll
 0001:000783e2       mexCallMATLAB_800          00000001800793e2 f   libmex:libmex.dll
 0001:000783e8       mexLock_800                00000001800793e8 f   libmex:libmex.dll
 0001:000783ee       mexUnlock_800              00000001800793ee f   libmex:libmex.dll
 0001:000783f4       mexIsLocked_800            00000001800793f4 f   libmex:libmex.dll
 0001:000783fa       utMalloc                   00000001800793fa f   libut:libut.dll
 0001:00078400       utFree                     0000000180079400 f   libut:libut.dll
 0001:00078406       muDoubleScalarAbs          0000000180079406 f   libmwmathutil:libmwmathutil.dll
 0001:0007840c       muDoubleScalarFloor        000000018007940c f   libmwmathutil:libmwmathutil.dll
 0001:00078412       muDoubleScalarRound        0000000180079412 f   libmwmathutil:libmwmathutil.dll
 0001:00078418       muDoubleScalarMax          0000000180079418 f   libmwmathutil:libmwmathutil.dll
 0001:0007841e       muDoubleScalarMin          000000018007941e f   libmwmathutil:libmwmathutil.dll
 0001:00078424       muDoubleScalarSqrt         0000000180079424 f   libmwmathutil:libmwmathutil.dll
 0001:0007842a       muIntScalarMin_sint32      000000018007942a f   libmwmathutil:libmwmathutil.dll
 0001:00078430       muDoubleScalarIsNaN        0000000180079430 f   libmwmathutil:libmwmathutil.dll
 0001:00078436       muDoubleScalarIsInf        0000000180079436 f   libmwmathutil:libmwmathutil.dll
 0001:0007843c       muSingleScalarIsNaN        000000018007943c f   libmwmathutil:libmwmathutil.dll
 0001:00078442       muSingleScalarIsInf        0000000180079442 f   libmwmathutil:libmwmathutil.dll
 0001:00078448       emlrtLicenseCheckR2022a    0000000180079448 f   libemlrt:libemlrt.dll
 0001:0007844e       emlrtDynamicBoundsCheckR2012b 000000018007944e f   libemlrt:libemlrt.dll
 0001:00078454       emlrtSizeMulR2012b         0000000180079454 f   libemlrt:libemlrt.dll
 0001:0007845a       emlrtIntegerCheckR2012b    000000018007945a f   libemlrt:libemlrt.dll
 0001:00078460       emlrtNonNegativeCheckR2012b 0000000180079460 f   libemlrt:libemlrt.dll
 0001:00078466       emlrtForLoopVectorCheckR2021a 0000000180079466 f   libemlrt:libemlrt.dll
 0001:0007846c       emlrtMallocMex             000000018007946c f   libemlrt:libemlrt.dll
 0001:00078472       emlrtCallocMex             0000000180079472 f   libemlrt:libemlrt.dll
 0001:00078478       emlrtFreeMex               0000000180079478 f   libemlrt:libemlrt.dll
 0001:0007847e       emlrtHeapAllocationErrorR2012b 000000018007947e f   libemlrt:libemlrt.dll
 0001:00078484       covrtCreateStateflowInstanceData 0000000180079484 f   libcovrt:libcovrt.dll
 0001:0007848a       covrtDeleteStateflowInstanceData 000000018007948a f   libcovrt:libcovrt.dll
 0001:00078490       covrtTransInitFcn          0000000180079490 f   libcovrt:libcovrt.dll
 0001:00078496       covrtStateInitFcn          0000000180079496 f   libcovrt:libcovrt.dll
 0001:0007849c       covrtChartInitFcn          000000018007949c f   libcovrt:libcovrt.dll
 0001:000784a2       covrtSaturationUpdateFcn   00000001800794a2 f   libcovrt:libcovrt.dll
 0001:000784a8       covrtSigUpdateFcn          00000001800794a8 f   libcovrt:libcovrt.dll
 0001:000784ae       covrtEmlInitFcn            00000001800794ae f   libcovrt:libcovrt.dll
 0001:000784b4       covrtEmlFcnInitFcn         00000001800794b4 f   libcovrt:libcovrt.dll
 0001:000784ba       covrtEmlSaturationInitFcn  00000001800794ba f   libcovrt:libcovrt.dll
 0001:000784c0       covrtEmlForInitFcn         00000001800794c0 f   libcovrt:libcovrt.dll
 0001:000784c6       covrtEmlFcnEval            00000001800794c6 f   libcovrt:libcovrt.dll
 0001:000784cc       covrtEmlForEval            00000001800794cc f   libcovrt:libcovrt.dll
 0001:000784d4       __raise_securityfailure    00000001800794d4 f   MSVCRT:gs_report.obj
 0001:00078508       __report_gsfailure         0000000180079508 f   MSVCRT:gs_report.obj
 0001:000785dc       __report_rangecheckfailure 00000001800795dc f   MSVCRT:gs_report.obj
 0001:000785f0       __report_securityfailure   00000001800795f0 f   MSVCRT:gs_report.obj
 0001:0007868c       __report_securityfailureEx 000000018007968c f   MSVCRT:gs_report.obj
 0001:00078880       __GSHandlerCheck           0000000180079880 f   MSVCRT:gshandler.obj
 0001:000788a0       __GSHandlerCheckCommon     00000001800798a0 f   MSVCRT:gshandler.obj
 0001:00078910       __security_check_cookie    0000000180079910 f   MSVCRT:amdsecgs.obj
 0001:00078934       ??2@YAPEAX_K@Z             0000000180079934 f   MSVCRT:new_scalar.obj
 0001:00078970       ??3@YAXPEAX_K@Z            0000000180079970 f   MSVCRT:delete_scalar_size.obj
 0001:00078978       ??_U@YAPEAX_K@Z            0000000180079978 f   MSVCRT:new_array.obj
 0001:00078980       ??_V@YAXPEAX@Z             0000000180079980 f   MSVCRT:delete_array.obj
 0001:00078988       ??1type_info@@UEAA@XZ      0000000180079988 f   MSVCRT:std_type_info_static.obj
 0001:00078994       ??_Etype_info@@UEAAPEAXI@Z 0000000180079994 f i MSVCRT:std_type_info_static.obj
 0001:00078994       ??_Gtype_info@@UEAAPEAXI@Z 0000000180079994 f i MSVCRT:std_type_info_static.obj
 0001:00078d0c       _CRT_INIT                  0000000180079d0c f   MSVCRT:dll_dllmain.obj
 0001:00078d14       _DllMainCRTStartup         0000000180079d14 f   MSVCRT:dll_dllmain.obj
 0001:00078d54       ??0bad_alloc@std@@AEAA@QEBD@Z 0000000180079d54 f i MSVCRT:throw_bad_alloc.obj
 0001:00078d6c       ??0bad_alloc@std@@QEAA@AEBV01@@Z 0000000180079d6c f i MSVCRT:throw_bad_alloc.obj
 0001:00078dac       ??0bad_alloc@std@@QEAA@XZ  0000000180079dac f i MSVCRT:throw_bad_alloc.obj
 0001:00078dcc       ??0bad_array_new_length@std@@QEAA@AEBV01@@Z 0000000180079dcc f i MSVCRT:throw_bad_alloc.obj
 0001:00078e0c       ??0bad_array_new_length@std@@QEAA@XZ 0000000180079e0c f i MSVCRT:throw_bad_alloc.obj
 0001:00078e2c       ??0exception@std@@QEAA@AEBV01@@Z 0000000180079e2c f i MSVCRT:throw_bad_alloc.obj
 0001:00078e64       ??0exception@std@@QEAA@QEBDH@Z 0000000180079e64 f i MSVCRT:throw_bad_alloc.obj
 0001:00078e7c       ??1bad_alloc@std@@UEAA@XZ  0000000180079e7c f i MSVCRT:throw_bad_alloc.obj
 0001:00078e90       ??1bad_array_new_length@std@@UEAA@XZ 0000000180079e90 f i MSVCRT:throw_bad_alloc.obj
 0001:00078ea4       ??1exception@std@@UEAA@XZ  0000000180079ea4 f i MSVCRT:throw_bad_alloc.obj
 0001:00078eb8       ??_Ebad_alloc@std@@UEAAPEAXI@Z 0000000180079eb8 f i MSVCRT:throw_bad_alloc.obj
 0001:00078eb8       ??_Gbad_alloc@std@@UEAAPEAXI@Z 0000000180079eb8 f i MSVCRT:throw_bad_alloc.obj
 0001:00078efc       ??_Ebad_array_new_length@std@@UEAAPEAXI@Z 0000000180079efc f i MSVCRT:throw_bad_alloc.obj
 0001:00078efc       ??_Gbad_array_new_length@std@@UEAAPEAXI@Z 0000000180079efc f i MSVCRT:throw_bad_alloc.obj
 0001:00078f40       ??_Gexception@std@@UEAAPEAXI@Z 0000000180079f40 f i MSVCRT:throw_bad_alloc.obj
 0001:00078f40       ??_Eexception@std@@UEAAPEAXI@Z 0000000180079f40 f i MSVCRT:throw_bad_alloc.obj
 0001:00078f84       ?__scrt_throw_std_bad_alloc@@YAXXZ 0000000180079f84 f   MSVCRT:throw_bad_alloc.obj
 0001:00078fa4       ?__scrt_throw_std_bad_array_new_length@@YAXXZ 0000000180079fa4 f   MSVCRT:throw_bad_alloc.obj
 0001:00078fc4       ?what@exception@std@@UEBAPEBDXZ 0000000180079fc4 f i MSVCRT:throw_bad_alloc.obj
 0001:00078fd8       ??3@YAXPEAX@Z              0000000180079fd8 f   MSVCRT:delete_scalar.obj
 0001:0007904c       __security_init_cookie     000000018007a04c f   MSVCRT:gs_support.obj
 0001:000790f8       DllMain                    000000018007a0f8 f   MSVCRT:dll_dllmain_stub.obj
 0001:0007911c       ?__scrt_initialize_type_info@@YAXXZ 000000018007a11c f   MSVCRT:tncleanup.obj
 0001:0007912c       ?__scrt_uninitialize_type_info@@YAXXZ 000000018007a12c f   MSVCRT:tncleanup.obj
 0001:00079138       __local_stdio_scanf_options 000000018007a138 f i MSVCRT:default_local_stdio_options.obj
 0001:00079140       __scrt_initialize_default_local_stdio_options 000000018007a140 f   MSVCRT:default_local_stdio_options.obj
 0001:0007915c       ??$__crt_fast_decode_pointer@PEAP6AXXZ@@YAPEAP6AXXZQEAP6AXXZ@Z 000000018007a15c f i MSVCRT:utility.obj
 0001:00079174       ??$__crt_fast_encode_pointer@PEAP6AXXZ@@YAPEAP6AXXZQEAP6AXXZ@Z 000000018007a174 f i MSVCRT:utility.obj
 0001:00079194       ?__crt_rotate_pointer_value@@YA_K_KH@Z 000000018007a194 f i MSVCRT:utility.obj
 0001:000791a0       ?configure_argv@__scrt_narrow_argv_policy@@SAHXZ 000000018007a1a0 f i MSVCRT:utility.obj
 0001:00079200       ?initialize_environment@__scrt_narrow_environment_policy@@SAHXZ 000000018007a200 f i MSVCRT:utility.obj
 0001:00079238       NtCurrentTeb               000000018007a238 f i MSVCRT:utility.obj
 0001:00079244       __scrt_acquire_startup_lock 000000018007a244 f   MSVCRT:utility.obj
 0001:00079280       __scrt_dllmain_after_initialize_c 000000018007a280 f   MSVCRT:utility.obj
 0001:000792b4       __scrt_dllmain_before_initialize_c 000000018007a2b4 f   MSVCRT:utility.obj
 0001:000792cc       __scrt_dllmain_crt_thread_attach 000000018007a2cc f   MSVCRT:utility.obj
 0001:000792f4       __scrt_dllmain_crt_thread_detach 000000018007a2f4 f   MSVCRT:utility.obj
 0001:0007930c       __scrt_dllmain_exception_filter 000000018007a30c f   MSVCRT:utility.obj
 0001:0007936c       __scrt_dllmain_uninitialize_c 000000018007a36c f   MSVCRT:utility.obj
 0001:0007939c       __scrt_dllmain_uninitialize_critical 000000018007a39c f   MSVCRT:utility.obj
 0001:000793b0       __scrt_initialize_crt      000000018007a3b0 f   MSVCRT:utility.obj
 0001:000793fc       __scrt_initialize_onexit_tables 000000018007a3fc f   MSVCRT:utility.obj
 0001:000794d4       __scrt_is_nonwritable_in_current_image 000000018007a4d4 f   MSVCRT:utility.obj
 0001:00079570       __scrt_release_startup_lock 000000018007a570 f   MSVCRT:utility.obj
 0001:00079594       __scrt_uninitialize_crt    000000018007a594 f   MSVCRT:utility.obj
 0001:000795c0       _onexit                    000000018007a5c0 f   MSVCRT:utility.obj
 0001:00079610       at_quick_exit              000000018007a610 f   MSVCRT:utility.obj
 0001:00079648       atexit                     000000018007a648 f   MSVCRT:utility.obj
 0001:00079660       __scrt_get_dyn_tls_init_callback 000000018007a660 f   MSVCRT:dyn_tls_init.obj
 0001:00079668       __crt_debugger_hook        000000018007a668 f   MSVCRT:utility_desktop.obj
 0001:00079670       __scrt_fastfail            000000018007a670 f   MSVCRT:utility_desktop.obj
 0001:000797bc       __scrt_get_show_window_mode 000000018007a7bc f   MSVCRT:utility_desktop.obj
 0001:000797f8       __scrt_initialize_mta      000000018007a7f8 f   MSVCRT:utility_desktop.obj
 0001:00079800       __scrt_initialize_winrt    000000018007a800 f   MSVCRT:utility_desktop.obj
 0001:00079804       __scrt_is_managed_app      000000018007a804 f   MSVCRT:utility_desktop.obj
 0001:00079858       __scrt_set_unhandled_exception_filter 000000018007a858 f   MSVCRT:utility_desktop.obj
 0001:00079868       __scrt_stub_for_initialize_mta 000000018007a868 f   MSVCRT:utility_desktop.obj
 0001:00079868       __scrt_exe_initialize_mta  000000018007a868 f   MSVCRT:utility_desktop.obj
 0001:0007986c       __scrt_unhandled_exception_filter 000000018007a86c f   MSVCRT:utility_desktop.obj
 0001:000798a4       _RTC_Initialize            000000018007a8a4 f   MSVCRT:initsect.obj
 0001:000798e0       _RTC_Terminate             000000018007a8e0 f   MSVCRT:initsect.obj
 0001:0007991c       _guard_check_icall_nop     000000018007a91c f i MSVCRT:guard_support.obj
 0001:00079920       ReadNoFence64              000000018007a920 f i MSVCRT:guard_support.obj
 0001:00079924       ReadPointerNoFence         000000018007a924 f i MSVCRT:guard_support.obj
 0001:00079928       _guard_icall_checks_enforced 000000018007a928 f i MSVCRT:guard_support.obj
 0001:00079940       _guard_rf_checks_enforced  000000018007a940 f i MSVCRT:guard_support.obj
 0001:00079944       __isa_available_init       000000018007a944 f   MSVCRT:cpu_disp.obj
 0001:00079ac0       _get_startup_argv_mode     000000018007aac0 f   MSVCRT:argv_mode.obj
 0001:00079ac8       __scrt_is_ucrt_dll_in_use  000000018007aac8 f   MSVCRT:ucrt_detection.obj
 0001:00079ae0       RtlCaptureContext          000000018007aae0 f   kernel32:KERNEL32.dll
 0001:00079ae6       RtlLookupFunctionEntry     000000018007aae6 f   kernel32:KERNEL32.dll
 0001:00079aec       RtlVirtualUnwind           000000018007aaec f   kernel32:KERNEL32.dll
 0001:00079af2       UnhandledExceptionFilter   000000018007aaf2 f   kernel32:KERNEL32.dll
 0001:00079af8       SetUnhandledExceptionFilter 000000018007aaf8 f   kernel32:KERNEL32.dll
 0001:00079afe       GetCurrentProcess          000000018007aafe f   kernel32:KERNEL32.dll
 0001:00079b04       TerminateProcess           000000018007ab04 f   kernel32:KERNEL32.dll
 0001:00079b0a       IsProcessorFeaturePresent  000000018007ab0a f   kernel32:KERNEL32.dll
 0001:00079b10       QueryPerformanceCounter    000000018007ab10 f   kernel32:KERNEL32.dll
 0001:00079b16       GetCurrentProcessId        000000018007ab16 f   kernel32:KERNEL32.dll
 0001:00079b1c       GetCurrentThreadId         000000018007ab1c f   kernel32:KERNEL32.dll
 0001:00079b22       GetSystemTimeAsFileTime    000000018007ab22 f   kernel32:KERNEL32.dll
 0001:00079b28       DisableThreadLibraryCalls  000000018007ab28 f   kernel32:KERNEL32.dll
 0001:00079b2e       InitializeSListHead        000000018007ab2e f   kernel32:KERNEL32.dll
 0001:00079b34       IsDebuggerPresent          000000018007ab34 f   kernel32:KERNEL32.dll
 0001:00079b3a       GetStartupInfoW            000000018007ab3a f   kernel32:KERNEL32.dll
 0001:00079b40       GetModuleHandleW           000000018007ab40 f   kernel32:KERNEL32.dll
 0001:00079b46       memcpy                     000000018007ab46 f   vcruntime:VCRUNTIME140.dll
 0001:00079b4c       memset                     000000018007ab4c f   vcruntime:VCRUNTIME140.dll
 0001:00079b52       _purecall                  000000018007ab52 f   vcruntime:VCRUNTIME140.dll
 0001:00079b58       __CxxFrameHandler3         000000018007ab58 f   vcruntime:VCRUNTIME140.dll
 0001:00079b5e       __C_specific_handler       000000018007ab5e f   vcruntime:VCRUNTIME140.dll
 0001:00079b64       __std_exception_copy       000000018007ab64 f   vcruntime:VCRUNTIME140.dll
 0001:00079b6a       __std_exception_destroy    000000018007ab6a f   vcruntime:VCRUNTIME140.dll
 0001:00079b70       _CxxThrowException         000000018007ab70 f   vcruntime:VCRUNTIME140.dll
 0001:00079b76       __std_type_info_destroy_list 000000018007ab76 f   vcruntime:VCRUNTIME140.dll
 0001:00079b7c       strcmp                     000000018007ab7c f   ucrt:api-ms-win-crt-string-l1-1-0.dll
 0001:00079b82       strcat                     000000018007ab82 f   ucrt:api-ms-win-crt-string-l1-1-0.dll
 0001:00079b88       __stdio_common_vsprintf    000000018007ab88 f   ucrt:api-ms-win-crt-stdio-l1-1-0.dll
 0001:00079b8e       free                       000000018007ab8e f   ucrt:api-ms-win-crt-heap-l1-1-0.dll
 0001:00079b94       malloc                     000000018007ab94 f   ucrt:api-ms-win-crt-heap-l1-1-0.dll
 0001:00079b9a       strlen                     000000018007ab9a f   ucrt:api-ms-win-crt-string-l1-1-0.dll
 0001:00079ba0       sqrt                       000000018007aba0 f   ucrt:api-ms-win-crt-math-l1-1-0.dll
 0001:00079ba6       floor                      000000018007aba6 f   ucrt:api-ms-win-crt-math-l1-1-0.dll
 0001:00079bac       floorf                     000000018007abac f   ucrt:api-ms-win-crt-math-l1-1-0.dll
 0001:00079bb2       sqrtf                      000000018007abb2 f   ucrt:api-ms-win-crt-math-l1-1-0.dll
 0001:00079bb8       _callnewh                  000000018007abb8 f   ucrt:api-ms-win-crt-heap-l1-1-0.dll
 0001:00079bbe       _initterm                  000000018007abbe f   ucrt:api-ms-win-crt-runtime-l1-1-0.dll
 0001:00079bc4       _initterm_e                000000018007abc4 f   ucrt:api-ms-win-crt-runtime-l1-1-0.dll
 0001:00079bca       _seh_filter_dll            000000018007abca f   ucrt:api-ms-win-crt-runtime-l1-1-0.dll
 0001:00079bd0       _configure_narrow_argv     000000018007abd0 f   ucrt:api-ms-win-crt-runtime-l1-1-0.dll
 0001:00079bd6       _initialize_narrow_environment 000000018007abd6 f   ucrt:api-ms-win-crt-runtime-l1-1-0.dll
 0001:00079bdc       _initialize_onexit_table   000000018007abdc f   ucrt:api-ms-win-crt-runtime-l1-1-0.dll
 0001:00079be2       _register_onexit_function  000000018007abe2 f   ucrt:api-ms-win-crt-runtime-l1-1-0.dll
 0001:00079be8       _execute_onexit_table      000000018007abe8 f   ucrt:api-ms-win-crt-runtime-l1-1-0.dll
 0001:00079bee       _crt_atexit                000000018007abee f   ucrt:api-ms-win-crt-runtime-l1-1-0.dll
 0001:00079bf4       _crt_at_quick_exit         000000018007abf4 f   ucrt:api-ms-win-crt-runtime-l1-1-0.dll
 0001:00079bfa       _cexit                     000000018007abfa f   ucrt:api-ms-win-crt-runtime-l1-1-0.dll
 0001:00079c00       terminate                  000000018007ac00 f   ucrt:api-ms-win-crt-runtime-l1-1-0.dll
 0001:00079c08       __acrt_initialize          000000018007ac08 f   MSVCRT:ucrt_stubs.obj
 0001:00079c08       __vcrt_initialize          000000018007ac08 f   MSVCRT:ucrt_stubs.obj
 0001:00079c08       __scrt_stub_for_acrt_initialize 000000018007ac08 f   MSVCRT:ucrt_stubs.obj
 0001:00079c0c       __vcrt_thread_attach       000000018007ac0c f   MSVCRT:ucrt_stubs.obj
 0001:00079c0c       __acrt_thread_attach       000000018007ac0c f   MSVCRT:ucrt_stubs.obj
 0001:00079c0c       __scrt_stub_for_acrt_thread_attach 000000018007ac0c f   MSVCRT:ucrt_stubs.obj
 0001:00079c10       __vcrt_thread_detach       000000018007ac10 f   MSVCRT:ucrt_stubs.obj
 0001:00079c10       __acrt_thread_detach       000000018007ac10 f   MSVCRT:ucrt_stubs.obj
 0001:00079c10       __scrt_stub_for_acrt_thread_detach 000000018007ac10 f   MSVCRT:ucrt_stubs.obj
 0001:00079c14       __vcrt_uninitialize        000000018007ac14 f   MSVCRT:ucrt_stubs.obj
 0001:00079c14       __acrt_uninitialize        000000018007ac14 f   MSVCRT:ucrt_stubs.obj
 0001:00079c14       __scrt_stub_for_acrt_uninitialize 000000018007ac14 f   MSVCRT:ucrt_stubs.obj
 0001:00079c18       __scrt_stub_for_acrt_uninitialize_critical 000000018007ac18 f   MSVCRT:ucrt_stubs.obj
 0001:00079c18       __vcrt_uninitialize_critical 000000018007ac18 f   MSVCRT:ucrt_stubs.obj
 0001:00079c18       __acrt_uninitialize_critical 000000018007ac18 f   MSVCRT:ucrt_stubs.obj
 0001:00079c1c       __scrt_stub_for_is_c_termination_complete 000000018007ac1c f   MSVCRT:ucrt_stubs.obj
 0001:00079c1c       _is_c_termination_complete 000000018007ac1c f   MSVCRT:ucrt_stubs.obj
 0001:00079c30       _guard_dispatch_icall_nop  000000018007ac30 f   MSVCRT:guard_dispatch.obj
 0002:00000000       __imp_TerminateProcess     000000018007c000     kernel32:KERNEL32.dll
 0002:00000008       __imp_GetCurrentProcessId  000000018007c008     kernel32:KERNEL32.dll
 0002:00000010       __imp_GetCurrentThreadId   000000018007c010     kernel32:KERNEL32.dll
 0002:00000018       __imp_RtlCaptureContext    000000018007c018     kernel32:KERNEL32.dll
 0002:00000020       __imp_RtlLookupFunctionEntry 000000018007c020     kernel32:KERNEL32.dll
 0002:00000028       __imp_GetSystemTimeAsFileTime 000000018007c028     kernel32:KERNEL32.dll
 0002:00000030       __imp_RtlVirtualUnwind     000000018007c030     kernel32:KERNEL32.dll
 0002:00000038       __imp_UnhandledExceptionFilter 000000018007c038     kernel32:KERNEL32.dll
 0002:00000040       __imp_DisableThreadLibraryCalls 000000018007c040     kernel32:KERNEL32.dll
 0002:00000048       __imp_InitializeSListHead  000000018007c048     kernel32:KERNEL32.dll
 0002:00000050       __imp_IsDebuggerPresent    000000018007c050     kernel32:KERNEL32.dll
 0002:00000058       __imp_GetStartupInfoW      000000018007c058     kernel32:KERNEL32.dll
 0002:00000060       __imp_GetModuleHandleW     000000018007c060     kernel32:KERNEL32.dll
 0002:00000068       __imp_IsProcessorFeaturePresent 000000018007c068     kernel32:KERNEL32.dll
 0002:00000070       __imp_GetCurrentProcess    000000018007c070     kernel32:KERNEL32.dll
 0002:00000078       __imp_QueryPerformanceCounter 000000018007c078     kernel32:KERNEL32.dll
 0002:00000080       __imp_SetUnhandledExceptionFilter 000000018007c080     kernel32:KERNEL32.dll
 0002:00000088       \177KERNEL32_NULL_THUNK_DATA 000000018007c088     kernel32:KERNEL32.dll
 0002:00000090       __imp___std_exception_destroy 000000018007c090     vcruntime:VCRUNTIME140.dll
 0002:00000098       __imp___std_type_info_destroy_list 000000018007c098     vcruntime:VCRUNTIME140.dll
 0002:000000a0       __imp_memcpy               000000018007c0a0     vcruntime:VCRUNTIME140.dll
 0002:000000a8       __imp_memset               000000018007c0a8     vcruntime:VCRUNTIME140.dll
 0002:000000b0       __imp__purecall            000000018007c0b0     vcruntime:VCRUNTIME140.dll
 0002:000000b8       __imp___CxxFrameHandler3   000000018007c0b8     vcruntime:VCRUNTIME140.dll
 0002:000000c0       __imp___C_specific_handler 000000018007c0c0     vcruntime:VCRUNTIME140.dll
 0002:000000c8       __imp___std_exception_copy 000000018007c0c8     vcruntime:VCRUNTIME140.dll
 0002:000000d0       __imp__CxxThrowException   000000018007c0d0     vcruntime:VCRUNTIME140.dll
 0002:000000d8       \177VCRUNTIME140_NULL_THUNK_DATA 000000018007c0d8     vcruntime:VCRUNTIME140.dll
 0002:000000e0       __imp__callnewh            000000018007c0e0     ucrt:api-ms-win-crt-heap-l1-1-0.dll
 0002:000000e8       __imp_free                 000000018007c0e8     ucrt:api-ms-win-crt-heap-l1-1-0.dll
 0002:000000f0       __imp_malloc               000000018007c0f0     ucrt:api-ms-win-crt-heap-l1-1-0.dll
 0002:000000f8       \177api-ms-win-crt-heap-l1-1-0_NULL_THUNK_DATA 000000018007c0f8     ucrt:api-ms-win-crt-heap-l1-1-0.dll
 0002:00000100       __imp_sqrtf                000000018007c100     ucrt:api-ms-win-crt-math-l1-1-0.dll
 0002:00000108       __imp_floorf               000000018007c108     ucrt:api-ms-win-crt-math-l1-1-0.dll
 0002:00000110       __imp_floor                000000018007c110     ucrt:api-ms-win-crt-math-l1-1-0.dll
 0002:00000118       __imp_sqrt                 000000018007c118     ucrt:api-ms-win-crt-math-l1-1-0.dll
 0002:00000120       \177api-ms-win-crt-math-l1-1-0_NULL_THUNK_DATA 000000018007c120     ucrt:api-ms-win-crt-math-l1-1-0.dll
 0002:00000128       __imp__initialize_narrow_environment 000000018007c128     ucrt:api-ms-win-crt-runtime-l1-1-0.dll
 0002:00000130       __imp__configure_narrow_argv 000000018007c130     ucrt:api-ms-win-crt-runtime-l1-1-0.dll
 0002:00000138       __imp__seh_filter_dll      000000018007c138     ucrt:api-ms-win-crt-runtime-l1-1-0.dll
 0002:00000140       __imp__initterm            000000018007c140     ucrt:api-ms-win-crt-runtime-l1-1-0.dll
 0002:00000148       __imp__register_onexit_function 000000018007c148     ucrt:api-ms-win-crt-runtime-l1-1-0.dll
 0002:00000150       __imp__execute_onexit_table 000000018007c150     ucrt:api-ms-win-crt-runtime-l1-1-0.dll
 0002:00000158       __imp__crt_atexit          000000018007c158     ucrt:api-ms-win-crt-runtime-l1-1-0.dll
 0002:00000160       __imp__crt_at_quick_exit   000000018007c160     ucrt:api-ms-win-crt-runtime-l1-1-0.dll
 0002:00000168       __imp__cexit               000000018007c168     ucrt:api-ms-win-crt-runtime-l1-1-0.dll
 0002:00000170       __imp_terminate            000000018007c170     ucrt:api-ms-win-crt-runtime-l1-1-0.dll
 0002:00000178       __imp__initialize_onexit_table 000000018007c178     ucrt:api-ms-win-crt-runtime-l1-1-0.dll
 0002:00000180       __imp__initterm_e          000000018007c180     ucrt:api-ms-win-crt-runtime-l1-1-0.dll
 0002:00000188       \177api-ms-win-crt-runtime-l1-1-0_NULL_THUNK_DATA 000000018007c188     ucrt:api-ms-win-crt-runtime-l1-1-0.dll
 0002:00000190       __imp___stdio_common_vsprintf 000000018007c190     ucrt:api-ms-win-crt-stdio-l1-1-0.dll
 0002:00000198       \177api-ms-win-crt-stdio-l1-1-0_NULL_THUNK_DATA 000000018007c198     ucrt:api-ms-win-crt-stdio-l1-1-0.dll
 0002:000001a0       __imp_strlen               000000018007c1a0     ucrt:api-ms-win-crt-string-l1-1-0.dll
 0002:000001a8       __imp_strcat               000000018007c1a8     ucrt:api-ms-win-crt-string-l1-1-0.dll
 0002:000001b0       __imp_strcmp               000000018007c1b0     ucrt:api-ms-win-crt-string-l1-1-0.dll
 0002:000001b8       \177api-ms-win-crt-string-l1-1-0_NULL_THUNK_DATA 000000018007c1b8     ucrt:api-ms-win-crt-string-l1-1-0.dll
 0002:000001c0       __imp_covrtTransInitFcn    000000018007c1c0     libcovrt:libcovrt.dll
 0002:000001c8       __imp_covrtDeleteStateflowInstanceData 000000018007c1c8     libcovrt:libcovrt.dll
 0002:000001d0       __imp_covrtStateInitFcn    000000018007c1d0     libcovrt:libcovrt.dll
 0002:000001d8       __imp_covrtEmlForEval      000000018007c1d8     libcovrt:libcovrt.dll
 0002:000001e0       __imp_covrtEmlFcnEval      000000018007c1e0     libcovrt:libcovrt.dll
 0002:000001e8       __imp_covrtEmlForInitFcn   000000018007c1e8     libcovrt:libcovrt.dll
 0002:000001f0       __imp_covrtEmlSaturationInitFcn 000000018007c1f0     libcovrt:libcovrt.dll
 0002:000001f8       __imp_covrtEmlFcnInitFcn   000000018007c1f8     libcovrt:libcovrt.dll
 0002:00000200       __imp_covrtEmlInitFcn      000000018007c200     libcovrt:libcovrt.dll
 0002:00000208       __imp_covrtSigUpdateFcn    000000018007c208     libcovrt:libcovrt.dll
 0002:00000210       __imp_covrtSaturationUpdateFcn 000000018007c210     libcovrt:libcovrt.dll
 0002:00000218       __imp_covrtChartInitFcn    000000018007c218     libcovrt:libcovrt.dll
 0002:00000220       __imp_covrtCreateStateflowInstanceData 000000018007c220     libcovrt:libcovrt.dll
 0002:00000228       \177libcovrt_NULL_THUNK_DATA 000000018007c228     libcovrt:libcovrt.dll
 0002:00000230       __imp_emlrtSizeMulR2012b   000000018007c230     libemlrt:libemlrt.dll
 0002:00000238       __imp_emlrtDynamicBoundsCheckR2012b 000000018007c238     libemlrt:libemlrt.dll
 0002:00000240       __imp_emlrtLicenseCheckR2022a 000000018007c240     libemlrt:libemlrt.dll
 0002:00000248       __imp_emlrtHeapAllocationErrorR2012b 000000018007c248     libemlrt:libemlrt.dll
 0002:00000250       __imp_emlrtFreeMex         000000018007c250     libemlrt:libemlrt.dll
 0002:00000258       __imp_emlrtNonNegativeCheckR2012b 000000018007c258     libemlrt:libemlrt.dll
 0002:00000260       __imp_emlrtIntegerCheckR2012b 000000018007c260     libemlrt:libemlrt.dll
 0002:00000268       __imp_emlrtForLoopVectorCheckR2021a 000000018007c268     libemlrt:libemlrt.dll
 0002:00000270       __imp_emlrtMallocMex       000000018007c270     libemlrt:libemlrt.dll
 0002:00000278       __imp_emlrtCallocMex       000000018007c278     libemlrt:libemlrt.dll
 0002:00000280       \177libemlrt_NULL_THUNK_DATA 000000018007c280     libemlrt:libemlrt.dll
 0002:00000288       __imp_mexIsLocked_800      000000018007c288     libmex:libmex.dll
 0002:00000290       __imp_mexUnlock_800        000000018007c290     libmex:libmex.dll
 0002:00000298       __imp_mexLock_800          000000018007c298     libmex:libmex.dll
 0002:000002a0       __imp_mexCallMATLAB_800    000000018007c2a0     libmex:libmex.dll
 0002:000002a8       __imp_mexWarnMsgTxt_800    000000018007c2a8     libmex:libmex.dll
 0002:000002b0       __imp_mexMakeArrayPersistent_800 000000018007c2b0     libmex:libmex.dll
 0002:000002b8       __imp_mexErrMsgTxt_800     000000018007c2b8     libmex:libmex.dll
 0002:000002c0       \177libmex_NULL_THUNK_DATA 000000018007c2c0     libmex:libmex.dll
 0002:000002c8       __imp_drotg                000000018007c2c8     libmwblas:libmwblas.dll
 0002:000002d0       \177libmwblas_NULL_THUNK_DATA 000000018007c2d0     libmwblas:libmwblas.dll
 0002:000002d8       __imp_muDoubleScalarFloor  000000018007c2d8     libmwmathutil:libmwmathutil.dll
 0002:000002e0       __imp_muIntScalarMin_sint32 000000018007c2e0     libmwmathutil:libmwmathutil.dll
 0002:000002e8       __imp_muDoubleScalarIsNaN  000000018007c2e8     libmwmathutil:libmwmathutil.dll
 0002:000002f0       __imp_muDoubleScalarMin    000000018007c2f0     libmwmathutil:libmwmathutil.dll
 0002:000002f8       __imp_muSingleScalarIsNaN  000000018007c2f8     libmwmathutil:libmwmathutil.dll
 0002:00000300       __imp_muSingleScalarIsInf  000000018007c300     libmwmathutil:libmwmathutil.dll
 0002:00000308       __imp_muDoubleScalarAbs    000000018007c308     libmwmathutil:libmwmathutil.dll
 0002:00000310       __imp_muDoubleScalarMax    000000018007c310     libmwmathutil:libmwmathutil.dll
 0002:00000318       __imp_muDoubleScalarIsInf  000000018007c318     libmwmathutil:libmwmathutil.dll
 0002:00000320       __imp_muDoubleScalarRound  000000018007c320     libmwmathutil:libmwmathutil.dll
 0002:00000328       __imp_muDoubleScalarSqrt   000000018007c328     libmwmathutil:libmwmathutil.dll
 0002:00000330       \177libmwmathutil_NULL_THUNK_DATA 000000018007c330     libmwmathutil:libmwmathutil.dll
 0002:00000338       __imp_initialisePoses      000000018007c338     libmwreadAprilTag:libmwreadAprilTag.dll
 0002:00000340       __imp_getAprilTagIdPoseDetections 000000018007c340     libmwreadAprilTag:libmwreadAprilTag.dll
 0002:00000348       __imp_initialiseOutput     000000018007c348     libmwreadAprilTag:libmwreadAprilTag.dll
 0002:00000350       \177libmwreadAprilTag_NULL_THUNK_DATA 000000018007c350     libmwreadAprilTag:libmwreadAprilTag.dll
 0002:00000358       __imp_rgb2gray_tbb_uint8   000000018007c358     libmwrgb2gray_tbb:libmwrgb2gray_tbb.dll
 0002:00000360       \177libmwrgb2gray_tbb_NULL_THUNK_DATA 000000018007c360     libmwrgb2gray_tbb:libmwrgb2gray_tbb.dll
 0002:00000368       __imp_mxIsComplex_800      000000018007c368     libmx:libmx.dll
 0002:00000370       __imp_mxIsNumeric_800      000000018007c370     libmx:libmx.dll
 0002:00000378       __imp_mxGetClassID_800     000000018007c378     libmx:libmx.dll
 0002:00000380       __imp_mxGetM_800           000000018007c380     libmx:libmx.dll
 0002:00000388       __imp_mxCalloc_800         000000018007c388     libmx:libmx.dll
 0002:00000390       __imp_mxGetNaN_800         000000018007c390     libmx:libmx.dll
 0002:00000398       __imp_mxCreateStructMatrix_800 000000018007c398     libmx:libmx.dll
 0002:000003a0       __imp_mxCreateCellMatrix_800 000000018007c3a0     libmx:libmx.dll
 0002:000003a8       __imp_mxCreateString_800   000000018007c3a8     libmx:libmx.dll
 0002:000003b0       __imp_mxSetField_800       000000018007c3b0     libmx:libmx.dll
 0002:000003b8       __imp_mxSetCell_800        000000018007c3b8     libmx:libmx.dll
 0002:000003c0       __imp_mxDuplicateArray_800 000000018007c3c0     libmx:libmx.dll
 0002:000003c8       __imp_mxGetString_800      000000018007c3c8     libmx:libmx.dll
 0002:000003d0       __imp_mxCreateDoubleMatrix_800 000000018007c3d0     libmx:libmx.dll
 0002:000003d8       __imp_mxDestroyArray_800   000000018007c3d8     libmx:libmx.dll
 0002:000003e0       __imp_mxGetPr_800          000000018007c3e0     libmx:libmx.dll
 0002:000003e8       __imp_mxGetScalar_800      000000018007c3e8     libmx:libmx.dll
 0002:000003f0       __imp_mxIsChar_800         000000018007c3f0     libmx:libmx.dll
 0002:000003f8       __imp_mxGetN_800           000000018007c3f8     libmx:libmx.dll
 0002:00000400       __imp_mxCreateDoubleScalar_800 000000018007c400     libmx:libmx.dll
 0002:00000408       \177libmx_NULL_THUNK_DATA  000000018007c408     libmx:libmx.dll
 0002:00000410       __imp_utMalloc             000000018007c410     libut:libut.dll
 0002:00000418       __imp_utFree               000000018007c418     libut:libut.dll
 0002:00000420       \177libut_NULL_THUNK_DATA  000000018007c420     libut:libut.dll
 0002:00000428       __imp_sf_get_hasSeparateUpdateOutputs 000000018007c428     sf_runtime:sf_runtime.dll
 0002:00000430       __imp_sf_get_ChartInfoStruct_CodeGen 000000018007c430     sf_runtime:sf_runtime.dll
 0002:00000438       __imp_sf_data_overflow_error 000000018007c438     sf_runtime:sf_runtime.dll
 0002:00000440       __imp_ssGetOutputPortSignal_wrapper 000000018007c440     sf_runtime:sf_runtime.dll
 0002:00000448       __imp_ssGetInputPortSignal_wrapper 000000018007c448     sf_runtime:sf_runtime.dll
 0002:00000450       __imp_sf_mex_import        000000018007c450     sf_runtime:sf_runtime.dll
 0002:00000458       __imp_sf_mex_destroy       000000018007c458     sf_runtime:sf_runtime.dll
 0002:00000460       __imp_callMdlMethodAndReportError 000000018007c460     sf_runtime:sf_runtime.dll
 0002:00000468       __imp_sf_mex_assign        000000018007c468     sf_runtime:sf_runtime.dll
 0002:00000470       __imp_call_sf_machine_global_method_dispatcher 000000018007c470     sf_runtime:sf_runtime.dll
 0002:00000478       __imp_sf_mex_setcell       000000018007c478     sf_runtime:sf_runtime.dll
 0002:00000480       __imp_sf_mex_createcellmatrix 000000018007c480     sf_runtime:sf_runtime.dll
 0002:00000488       __imp_sf_mex_createcellarray 000000018007c488     sf_runtime:sf_runtime.dll
 0002:00000490       __imp_sf_mex_create        000000018007c490     sf_runtime:sf_runtime.dll
 0002:00000498       __imp_sf_mex_convert_to_redirect_source 000000018007c498     sf_runtime:sf_runtime.dll
 0002:000004a0       __imp_sf_mex_set_all_properties 000000018007c4a0     sf_runtime:sf_runtime.dll
 0002:000004a8       __imp_sf_mex_create_class_instance 000000018007c4a8     sf_runtime:sf_runtime.dll
 0002:000004b0       __imp_sf_mex_error_message 000000018007c4b0     sf_runtime:sf_runtime.dll
 0002:000004b8       __imp_sf_mex_call          000000018007c4b8     sf_runtime:sf_runtime.dll
 0002:000004c0       __imp_sf_mex_printf        000000018007c4c0     sf_runtime:sf_runtime.dll
 0002:000004c8       __imp_sfListenerInitializeRuntimeVars 000000018007c4c8     sf_runtime:sf_runtime.dll
 0002:000004d0       __imp_sfListenerLightTerminate 000000018007c4d0     sf_runtime:sf_runtime.dll
 0002:000004d8       __imp_sfListenerCacheSimStruct 000000018007c4d8     sf_runtime:sf_runtime.dll
 0002:000004e0       __imp_sf_set_work_widths   000000018007c4e0     sf_runtime:sf_runtime.dll
 0002:000004e8       __imp_sf_warn_if_symbolic_dimension_param_changed 000000018007c4e8     sf_runtime:sf_runtime.dll
 0002:000004f0       __imp_setDebuggerFlag      000000018007c4f0     sf_runtime:sf_runtime.dll
 0002:000004f8       __imp_setDataBrowseFcn     000000018007c4f8     sf_runtime:sf_runtime.dll
 0002:00000500       __imp_sfDoAnimationWrapper 000000018007c500     sf_runtime:sf_runtime.dll
 0002:00000508       __imp_sf_get_time          000000018007c508     sf_runtime:sf_runtime.dll
 0002:00000510       __imp_sf_clear_rtw_identifier 000000018007c510     sf_runtime:sf_runtime.dll
 0002:00000518       __imp_sf_mex_listen_for_ctrl_c 000000018007c518     sf_runtime:sf_runtime.dll
 0002:00000520       __imp_sim_mode_is_external 000000018007c520     sf_runtime:sf_runtime.dll
 0002:00000528       __imp_sim_mode_is_rtw_gen  000000018007c528     sf_runtime:sf_runtime.dll
 0002:00000530       __imp_sf_get_chart_instance_ptr 000000018007c530     sf_runtime:sf_runtime.dll
 0002:00000538       __imp_sfrtGetCovrtInstance 000000018007c538     sf_runtime:sf_runtime.dll
 0002:00000540       __imp_sfrtGetEmlrtCtx      000000018007c540     sf_runtime:sf_runtime.dll
 0002:00000548       __imp_sf_free_ChartRunTimeInfo 000000018007c548     sf_runtime:sf_runtime.dll
 0002:00000550       __imp_sf_init_ChartRunTimeInfo 000000018007c550     sf_runtime:sf_runtime.dll
 0002:00000558       __imp_sf_mex_decode        000000018007c558     sf_runtime:sf_runtime.dll
 0002:00000560       __imp_sf_load_rtw_optimization_info 000000018007c560     sf_runtime:sf_runtime.dll
 0002:00000568       __imp_getRuntimeInstanceInfoAsVoid 000000018007c568     sf_runtime:sf_runtime.dll
 0002:00000570       __imp_sf_mex_error_direct_call 000000018007c570     sf_runtime:sf_runtime.dll
 0002:00000578       __imp_sf_clear_error_manager_info 000000018007c578     sf_runtime:sf_runtime.dll
 0002:00000580       __imp_sf_mex_getcell       000000018007c580     sf_runtime:sf_runtime.dll
 0002:00000588       __imp_sf_mex_dup           000000018007c588     sf_runtime:sf_runtime.dll
 0002:00000590       \177sf_runtime_NULL_THUNK_DATA 000000018007c590     sf_runtime:sf_runtime.dll
 0002:00000598       __guard_check_icall_fptr   000000018007c598     MSVCRT:guard_support.obj
 0002:000005a0       __guard_dispatch_icall_fptr 000000018007c5a0     MSVCRT:guard_support.obj
 0002:000005a8       __xc_a                     000000018007c5a8     MSVCRT:initializers.obj
 0002:000005b0       __xc_z                     000000018007c5b0     MSVCRT:initializers.obj
 0002:000005b8       __xi_a                     000000018007c5b8     MSVCRT:initializers.obj
 0002:000005c0       __xi_z                     000000018007c5c0     MSVCRT:initializers.obj
 0002:000005c8       __xp_a                     000000018007c5c8     MSVCRT:initializers.obj
 0002:000005d0       __xp_z                     000000018007c5d0     MSVCRT:initializers.obj
 0002:000005d8       __xt_a                     000000018007c5d8     MSVCRT:initializers.obj
 0002:000005e0       __xt_z                     000000018007c5e0     MSVCRT:initializers.obj
 0002:000005f0       __real@41b676d8cb000000    000000018007c5f0     CameraCalImageCapture_sfun.obj
 0002:000005f8       __real@41bfbc03f7000000    000000018007c5f8     CameraCalImageCapture_sfun.obj
 0002:00000600       __real@41c10e978c000000    000000018007c600     CameraCalImageCapture_sfun.obj
 0002:00000608       __real@41c5e4ce15000000    000000018007c608     CameraCalImageCapture_sfun.obj
 0002:00000610       __real@41ca0a6762000000    000000018007c610     CameraCalImageCapture_sfun.obj
 0002:00000618       __real@41d573e654000000    000000018007c618     CameraCalImageCapture_sfun.obj
 0002:00000620       __real@41d816d7e5800000    000000018007c620     CameraCalImageCapture_sfun.obj
 0002:00000628       __real@41d8b3264c000000    000000018007c628     CameraCalImageCapture_sfun.obj
 0002:00000630       __real@41e6ee9e7c800000    000000018007c630     CameraCalImageCapture_sfun.obj
 0002:00000638       __real@41e941b00d000000    000000018007c638     CameraCalImageCapture_sfun.obj
 0002:00000640       __real@41ea0499f3600000    000000018007c640     CameraCalImageCapture_sfun.obj
 0002:00000648       __real@41ee04c326400000    000000018007c648     CameraCalImageCapture_sfun.obj
 0002:00000658       __real@00000000            000000018007c658     c2_CameraCalImageCapture.obj
 0002:00000660       __real@0000000000000000    000000018007c660     c2_CameraCalImageCapture.obj
 0002:00000668       __real@02e9000000000000    000000018007c668     c2_CameraCalImageCapture.obj
 0002:00000670       __real@0350000000000000    000000018007c670     c2_CameraCalImageCapture.obj
 0002:00000678       __real@1cc0000000000000    000000018007c678     c2_CameraCalImageCapture.obj
 0002:00000680       __real@3cb0000000000000    000000018007c680     c2_CameraCalImageCapture.obj
 0002:00000688       __real@3d80000000000000    000000018007c688     c2_CameraCalImageCapture.obj
 0002:00000690       __real@3f50624dd2f1a9fc    000000018007c690     c2_CameraCalImageCapture.obj
 0002:00000698       __real@3ff0000000000000    000000018007c698     c2_CameraCalImageCapture.obj
 0002:000006a0       __real@40000000            000000018007c6a0     c2_CameraCalImageCapture.obj
 0002:000006a8       __real@4000000000000000    000000018007c6a8     c2_CameraCalImageCapture.obj
 0002:000006b0       __real@4008000000000000    000000018007c6b0     c2_CameraCalImageCapture.obj
 0002:000006b8       __real@4010000000000000    000000018007c6b8     c2_CameraCalImageCapture.obj
 0002:000006c0       __real@4020000000000000    000000018007c6c0     c2_CameraCalImageCapture.obj
 0002:000006c8       __real@4024000000000000    000000018007c6c8     c2_CameraCalImageCapture.obj
 0002:000006d0       __real@4034000000000000    000000018007c6d0     c2_CameraCalImageCapture.obj
 0002:000006d8       __real@404d400000000000    000000018007c6d8     c2_CameraCalImageCapture.obj
 0002:000006e0       __real@4052c00000000000    000000018007c6e0     c2_CameraCalImageCapture.obj
 0002:000006e8       __real@4064000000000000    000000018007c6e8     c2_CameraCalImageCapture.obj
 0002:000006f0       __real@407e000000000000    000000018007c6f0     c2_CameraCalImageCapture.obj
 0002:000006f8       __real@40e0000000000000    000000018007c6f8     c2_CameraCalImageCapture.obj
 0002:00000700       __real@4112c00000000000    000000018007c700     c2_CameraCalImageCapture.obj
 0002:00000708       __real@41d0b4fabb800000    000000018007c708     c2_CameraCalImageCapture.obj
 0002:00000710       __real@41d5645065c00000    000000018007c710     c2_CameraCalImageCapture.obj
 0002:00000718       __real@41e0000000000000    000000018007c718     c2_CameraCalImageCapture.obj
 0002:00000720       __real@41e106b9cc800000    000000018007c720     c2_CameraCalImageCapture.obj
 0002:00000728       __real@41eb005b52200000    000000018007c728     c2_CameraCalImageCapture.obj
 0002:00000730       __real@bff0000000000000    000000018007c730     c2_CameraCalImageCapture.obj
 0002:00000738       __real@c0e0000000000000    000000018007c738     c2_CameraCalImageCapture.obj
 0002:00000740       __real@c1e0000000000000    000000018007c740     c2_CameraCalImageCapture.obj
 0002:00000750       __xmm@80000000000000008000000000000000 000000018007c750     c2_CameraCalImageCapture.obj
 0002:00000760       DYNAMIC_DIMENSION_DEF      000000018007c760     CameraCalImageCapture_sfun_registry.obj
 0002:00000778       __real@41602cbca0000000    000000018007c778     CameraCalImageCapture_sfun_registry.obj
 0002:00000a30       ??_7DrawBase@@6B@          000000018007ca30     insertShapeUtilsCore.obj
 0002:00000ab8       ??_7?$DrawCommon@MMHHMMEH@@6B@ 000000018007cab8     insertShapeUtilsCore.obj
 0002:00000b40       ??_7?$DrawFilledRectangle@MMHHMME@@6B@ 000000018007cb40     insertShapeUtilsCore.obj
 0002:00000bc8       ??_7?$DrawFilledRectangleAnySize@MMHHMME@@6B@ 000000018007cbc8     insertShapeUtilsCore.obj
 0002:00000c50       ??_7?$DrawCommon@MMHHMMEE@@6B@ 000000018007cc50     insertShapeUtilsCore.obj
 0002:00000cd8       ??_7?$DrawLine@MMHHMMEE@@6B@ 000000018007ccd8     insertShapeUtilsCore.obj
 0002:00000d60       ??_7?$DrawMarkerLine@MMHHMMEE@@6B@ 000000018007cd60     insertShapeUtilsCore.obj
 0002:00000de8       ??_7?$DrawRectangleAnySize@MMHHMME@@6B@ 000000018007cde8     insertShapeUtilsCore.obj
 0002:00000e70       ??_7?$ScanLineBase@HHH@@6B@ 000000018007ce70     insertShapeUtilsCore.obj
 0002:00000eb0       ??_7?$ScanLine@HHH@@6B@    000000018007ceb0     insertShapeUtilsCore.obj
 0002:00000ef0       ??_7?$DrawFilledPolygon@MMHHMMEH@@6B@ 000000018007cef0     insertShapeUtilsCore.obj
 0002:00000f78       ??_7?$ScanLineBase@HHE@@6B@ 000000018007cf78     insertShapeUtilsCore.obj
 0002:00000fb8       ??_7?$ScanLine@HHE@@6B@    000000018007cfb8     insertShapeUtilsCore.obj
 0002:00000ff8       ??_7?$DrawFilledPolygon@MMHHMMEE@@6B@ 000000018007cff8     insertShapeUtilsCore.obj
 0002:00001080       ??_7?$DrawLine@MMHHMMEH@@6B@ 000000018007d080     insertShapeUtilsCore.obj
 0002:00001108       ??_7?$DrawPolygon@MMHHMMEH@@6B@ 000000018007d108     insertShapeUtilsCore.obj
 0002:00001190       ??_7?$DrawPolygon@MMHHMMEE@@6B@ 000000018007d190     insertShapeUtilsCore.obj
 0002:00001218       ??_7?$DrawAnyLine@MMHHMMEH@@6B@ 000000018007d218     insertShapeUtilsCore.obj
 0002:000012a0       ??_7?$DrawAnyLine@MMHHMMEE@@6B@ 000000018007d2a0     insertShapeUtilsCore.obj
 0002:00001328       ??_7?$DrawCircle@MMHHMMEHH@@6B@ 000000018007d328     insertShapeUtilsCore.obj
 0002:000013b0       ??_7?$DrawCircleAnySize@MMHHMMEHH@@6B@ 000000018007d3b0     insertShapeUtilsCore.obj
 0002:00001438       ??_7?$DrawCircle@MMHHMMEEH@@6B@ 000000018007d438     insertShapeUtilsCore.obj
 0002:000014c0       ??_7?$DrawCircleAnySize@MMHHMMEEH@@6B@ 000000018007d4c0     insertShapeUtilsCore.obj
 0002:00001548       ??_7?$DrawCircle@MMHHMMEHE@@6B@ 000000018007d548     insertShapeUtilsCore.obj
 0002:000015d0       ??_7?$DrawCircleAnySize@MMHHMMEHE@@6B@ 000000018007d5d0     insertShapeUtilsCore.obj
 0002:00001658       ??_7?$DrawCircle@MMHHMMEEE@@6B@ 000000018007d658     insertShapeUtilsCore.obj
 0002:000016e0       ??_7?$DrawCircleAnySize@MMHHMMEEE@@6B@ 000000018007d6e0     insertShapeUtilsCore.obj
 0002:00001768       ??_7?$DrawCommon@NNHHNNEH@@6B@ 000000018007d768     insertShapeUtilsCore.obj
 0002:000017f0       ??_7?$DrawFilledRectangle@NNHHNNE@@6B@ 000000018007d7f0     insertShapeUtilsCore.obj
 0002:00001878       ??_7?$DrawFilledRectangleAnySize@NNHHNNE@@6B@ 000000018007d878     insertShapeUtilsCore.obj
 0002:00001900       ??_7?$DrawCommon@NNHHNNEE@@6B@ 000000018007d900     insertShapeUtilsCore.obj
 0002:00001988       ??_7?$DrawLine@NNHHNNEE@@6B@ 000000018007d988     insertShapeUtilsCore.obj
 0002:00001a10       ??_7?$DrawMarkerLine@NNHHNNEE@@6B@ 000000018007da10     insertShapeUtilsCore.obj
 0002:00001a98       ??_7?$DrawRectangleAnySize@NNHHNNE@@6B@ 000000018007da98     insertShapeUtilsCore.obj
 0002:00001b20       ??_7?$DrawFilledPolygon@NNHHNNEH@@6B@ 000000018007db20     insertShapeUtilsCore.obj
 0002:00001ba8       ??_7?$DrawFilledPolygon@NNHHNNEE@@6B@ 000000018007dba8     insertShapeUtilsCore.obj
 0002:00001c30       ??_7?$DrawLine@NNHHNNEH@@6B@ 000000018007dc30     insertShapeUtilsCore.obj
 0002:00001cb8       ??_7?$DrawPolygon@NNHHNNEH@@6B@ 000000018007dcb8     insertShapeUtilsCore.obj
 0002:00001d40       ??_7?$DrawPolygon@NNHHNNEE@@6B@ 000000018007dd40     insertShapeUtilsCore.obj
 0002:00001dc8       ??_7?$DrawAnyLine@NNHHNNEH@@6B@ 000000018007ddc8     insertShapeUtilsCore.obj
 0002:00001e50       ??_7?$DrawAnyLine@NNHHNNEE@@6B@ 000000018007de50     insertShapeUtilsCore.obj
 0002:00001ed8       ??_7?$DrawCircle@NNHHNNEHH@@6B@ 000000018007ded8     insertShapeUtilsCore.obj
 0002:00001f60       ??_7?$DrawCircleAnySize@NNHHNNEHH@@6B@ 000000018007df60     insertShapeUtilsCore.obj
 0002:00001fe8       ??_7?$DrawCircle@NNHHNNEEH@@6B@ 000000018007dfe8     insertShapeUtilsCore.obj
 0002:00002070       ??_7?$DrawCircleAnySize@NNHHNNEEH@@6B@ 000000018007e070     insertShapeUtilsCore.obj
 0002:000020f8       ??_7?$DrawCircle@NNHHNNEHE@@6B@ 000000018007e0f8     insertShapeUtilsCore.obj
 0002:00002180       ??_7?$DrawCircleAnySize@NNHHNNEHE@@6B@ 000000018007e180     insertShapeUtilsCore.obj
 0002:00002208       ??_7?$DrawCircle@NNHHNNEEE@@6B@ 000000018007e208     insertShapeUtilsCore.obj
 0002:00002290       ??_7?$DrawCircleAnySize@NNHHNNEEE@@6B@ 000000018007e290     insertShapeUtilsCore.obj
 0002:00002318       ??_7?$DrawCommon@EEHHMMEH@@6B@ 000000018007e318     insertShapeUtilsCore.obj
 0002:000023a0       ??_7?$DrawFilledRectangle@EEHHMME@@6B@ 000000018007e3a0     insertShapeUtilsCore.obj
 0002:00002428       ??_7?$DrawFilledRectangleAnySize@EEHHMME@@6B@ 000000018007e428     insertShapeUtilsCore.obj
 0002:000024b0       ??_7?$DrawCommon@EEHHMMEE@@6B@ 000000018007e4b0     insertShapeUtilsCore.obj
 0002:00002538       ??_7?$DrawLine@EEHHMMEE@@6B@ 000000018007e538     insertShapeUtilsCore.obj
 0002:000025c0       ??_7?$DrawMarkerLine@EEHHMMEE@@6B@ 000000018007e5c0     insertShapeUtilsCore.obj
 0002:00002648       ??_7?$DrawRectangleAnySize@EEHHMME@@6B@ 000000018007e648     insertShapeUtilsCore.obj
 0002:000026d0       ??_7?$DrawFilledPolygon@EEHHMMEH@@6B@ 000000018007e6d0     insertShapeUtilsCore.obj
 0002:00002758       ??_7?$DrawFilledPolygon@EEHHMMEE@@6B@ 000000018007e758     insertShapeUtilsCore.obj
 0002:000027e0       ??_7?$DrawLine@EEHHMMEH@@6B@ 000000018007e7e0     insertShapeUtilsCore.obj
 0002:00002868       ??_7?$DrawPolygon@EEHHMMEH@@6B@ 000000018007e868     insertShapeUtilsCore.obj
 0002:000028f0       ??_7?$DrawPolygon@EEHHMMEE@@6B@ 000000018007e8f0     insertShapeUtilsCore.obj
 0002:00002978       ??_7?$DrawAnyLine@EEHHMMEH@@6B@ 000000018007e978     insertShapeUtilsCore.obj
 0002:00002a00       ??_7?$DrawAnyLine@EEHHMMEE@@6B@ 000000018007ea00     insertShapeUtilsCore.obj
 0002:00002a88       ??_7?$DrawCircle@EEHHMMEHH@@6B@ 000000018007ea88     insertShapeUtilsCore.obj
 0002:00002b10       ??_7?$DrawCircleAnySize@EEHHMMEHH@@6B@ 000000018007eb10     insertShapeUtilsCore.obj
 0002:00002b98       ??_7?$DrawCircle@EEHHMMEEH@@6B@ 000000018007eb98     insertShapeUtilsCore.obj
 0002:00002c20       ??_7?$DrawCircleAnySize@EEHHMMEEH@@6B@ 000000018007ec20     insertShapeUtilsCore.obj
 0002:00002ca8       ??_7?$DrawCircle@EEHHMMEHE@@6B@ 000000018007eca8     insertShapeUtilsCore.obj
 0002:00002d30       ??_7?$DrawCircleAnySize@EEHHMMEHE@@6B@ 000000018007ed30     insertShapeUtilsCore.obj
 0002:00002db8       ??_7?$DrawCircle@EEHHMMEEE@@6B@ 000000018007edb8     insertShapeUtilsCore.obj
 0002:00002e40       ??_7?$DrawCircleAnySize@EEHHMMEEE@@6B@ 000000018007ee40     insertShapeUtilsCore.obj
 0002:00002ec8       ??_7?$DrawCommon@GGHHMMEH@@6B@ 000000018007eec8     insertShapeUtilsCore.obj
 0002:00002f50       ??_7?$DrawFilledRectangle@GGHHMME@@6B@ 000000018007ef50     insertShapeUtilsCore.obj
 0002:00002fd8       ??_7?$DrawFilledRectangleAnySize@GGHHMME@@6B@ 000000018007efd8     insertShapeUtilsCore.obj
 0002:00003060       ??_7?$DrawCommon@GGHHMMEE@@6B@ 000000018007f060     insertShapeUtilsCore.obj
 0002:000030e8       ??_7?$DrawLine@GGHHMMEE@@6B@ 000000018007f0e8     insertShapeUtilsCore.obj
 0002:00003170       ??_7?$DrawMarkerLine@GGHHMMEE@@6B@ 000000018007f170     insertShapeUtilsCore.obj
 0002:000031f8       ??_7?$DrawRectangleAnySize@GGHHMME@@6B@ 000000018007f1f8     insertShapeUtilsCore.obj
 0002:00003280       ??_7?$DrawFilledPolygon@GGHHMMEH@@6B@ 000000018007f280     insertShapeUtilsCore.obj
 0002:00003308       ??_7?$DrawFilledPolygon@GGHHMMEE@@6B@ 000000018007f308     insertShapeUtilsCore.obj
 0002:00003390       ??_7?$DrawLine@GGHHMMEH@@6B@ 000000018007f390     insertShapeUtilsCore.obj
 0002:00003418       ??_7?$DrawPolygon@GGHHMMEH@@6B@ 000000018007f418     insertShapeUtilsCore.obj
 0002:000034a0       ??_7?$DrawPolygon@GGHHMMEE@@6B@ 000000018007f4a0     insertShapeUtilsCore.obj
 0002:00003528       ??_7?$DrawAnyLine@GGHHMMEH@@6B@ 000000018007f528     insertShapeUtilsCore.obj
 0002:000035b0       ??_7?$DrawAnyLine@GGHHMMEE@@6B@ 000000018007f5b0     insertShapeUtilsCore.obj
 0002:00003638       ??_7?$DrawCircle@GGHHMMEHH@@6B@ 000000018007f638     insertShapeUtilsCore.obj
 0002:000036c0       ??_7?$DrawCircleAnySize@GGHHMMEHH@@6B@ 000000018007f6c0     insertShapeUtilsCore.obj
 0002:00003748       ??_7?$DrawCircle@GGHHMMEEH@@6B@ 000000018007f748     insertShapeUtilsCore.obj
 0002:000037d0       ??_7?$DrawCircleAnySize@GGHHMMEEH@@6B@ 000000018007f7d0     insertShapeUtilsCore.obj
 0002:00003858       ??_7?$DrawCircle@GGHHMMEHE@@6B@ 000000018007f858     insertShapeUtilsCore.obj
 0002:000038e0       ??_7?$DrawCircleAnySize@GGHHMMEHE@@6B@ 000000018007f8e0     insertShapeUtilsCore.obj
 0002:00003968       ??_7?$DrawCircle@GGHHMMEEE@@6B@ 000000018007f968     insertShapeUtilsCore.obj
 0002:000039f0       ??_7?$DrawCircleAnySize@GGHHMMEEE@@6B@ 000000018007f9f0     insertShapeUtilsCore.obj
 0002:00003a78       ??_7?$DrawCommon@FFHHMMEH@@6B@ 000000018007fa78     insertShapeUtilsCore.obj
 0002:00003b00       ??_7?$DrawFilledRectangle@FFHHMME@@6B@ 000000018007fb00     insertShapeUtilsCore.obj
 0002:00003b88       ??_7?$DrawFilledRectangleAnySize@FFHHMME@@6B@ 000000018007fb88     insertShapeUtilsCore.obj
 0002:00003c10       ??_7?$DrawCommon@FFHHMMEE@@6B@ 000000018007fc10     insertShapeUtilsCore.obj
 0002:00003c98       ??_7?$DrawLine@FFHHMMEE@@6B@ 000000018007fc98     insertShapeUtilsCore.obj
 0002:00003d20       ??_7?$DrawMarkerLine@FFHHMMEE@@6B@ 000000018007fd20     insertShapeUtilsCore.obj
 0002:00003da8       ??_7?$DrawRectangleAnySize@FFHHMME@@6B@ 000000018007fda8     insertShapeUtilsCore.obj
 0002:00003e30       ??_7?$DrawFilledPolygon@FFHHMMEH@@6B@ 000000018007fe30     insertShapeUtilsCore.obj
 0002:00003eb8       ??_7?$DrawFilledPolygon@FFHHMMEE@@6B@ 000000018007feb8     insertShapeUtilsCore.obj
 0002:00003f40       ??_7?$DrawLine@FFHHMMEH@@6B@ 000000018007ff40     insertShapeUtilsCore.obj
 0002:00003fc8       ??_7?$DrawPolygon@FFHHMMEH@@6B@ 000000018007ffc8     insertShapeUtilsCore.obj
 0002:00004050       ??_7?$DrawPolygon@FFHHMMEE@@6B@ 0000000180080050     insertShapeUtilsCore.obj
 0002:000040d8       ??_7?$DrawAnyLine@FFHHMMEH@@6B@ 00000001800800d8     insertShapeUtilsCore.obj
 0002:00004160       ??_7?$DrawAnyLine@FFHHMMEE@@6B@ 0000000180080160     insertShapeUtilsCore.obj
 0002:000041e8       ??_7?$DrawCircle@FFHHMMEHH@@6B@ 00000001800801e8     insertShapeUtilsCore.obj
 0002:00004270       ??_7?$DrawCircleAnySize@FFHHMMEHH@@6B@ 0000000180080270     insertShapeUtilsCore.obj
 0002:000042f8       ??_7?$DrawCircle@FFHHMMEEH@@6B@ 00000001800802f8     insertShapeUtilsCore.obj
 0002:00004380       ??_7?$DrawCircleAnySize@FFHHMMEEH@@6B@ 0000000180080380     insertShapeUtilsCore.obj
 0002:00004408       ??_7?$DrawCircle@FFHHMMEHE@@6B@ 0000000180080408     insertShapeUtilsCore.obj
 0002:00004490       ??_7?$DrawCircleAnySize@FFHHMMEHE@@6B@ 0000000180080490     insertShapeUtilsCore.obj
 0002:00004518       ??_7?$DrawCircle@FFHHMMEEE@@6B@ 0000000180080518     insertShapeUtilsCore.obj
 0002:000045a0       ??_7?$DrawCircleAnySize@FFHHMMEEE@@6B@ 00000001800805a0     insertShapeUtilsCore.obj
 0002:00004620       __real@3f800000            0000000180080620     insertShapeUtilsCore.obj
 0002:00004628       __real@3fe0000000000000    0000000180080628     insertShapeUtilsCore.obj
 0002:00004630       __real@4050000000000000    0000000180080630     insertShapeUtilsCore.obj
 0002:00004638       __real@42800000            0000000180080638     insertShapeUtilsCore.obj
 0002:00004640       __real@bf50624dd2f1a9fc    0000000180080640     insertShapeUtilsCore.obj
 0002:00004648       __real@bfe0000000000000    0000000180080648     insertShapeUtilsCore.obj
 0002:00004650       __real@77800000            0000000180080650     half_type.obj
 0002:00004670       ??_7type_info@@6B@         0000000180080670     MSVCRT:std_type_info_static.obj
 0002:00004678       _pRawDllMain               0000000180080678     MSVCRT:dll_dllmain.obj
 0002:00004678       _pDefaultRawDllMain        0000000180080678     MSVCRT:dll_dllmain.obj
 0002:00004688       ??_7exception@std@@6B@     0000000180080688     MSVCRT:throw_bad_alloc.obj
 0002:00004698       ??_C@_0BC@EOODALEL@Unknown?5exception@ 0000000180080698     MSVCRT:throw_bad_alloc.obj
 0002:000046b8       ??_7bad_alloc@std@@6B@     00000001800806b8     MSVCRT:throw_bad_alloc.obj
 0002:000046c8       ??_C@_0P@GHFPNOJB@bad?5allocation@ 00000001800806c8     MSVCRT:throw_bad_alloc.obj
 0002:000046e0       ??_7bad_array_new_length@std@@6B@ 00000001800806e0     MSVCRT:throw_bad_alloc.obj
 0002:000046f0       ??_C@_0BF@KINCDENJ@bad?5array?5new?5length@ 00000001800806f0     MSVCRT:throw_bad_alloc.obj
 0002:00004730       _load_config_used          0000000180080730     MSVCRT:loadcfg.obj
 0002:00004830       ??_R4DrawBase@@6B@         0000000180080830     insertShapeUtilsCore.obj
 0002:00004858       ??_R3DrawBase@@8           0000000180080858     insertShapeUtilsCore.obj
 0002:00004870       ??_R2DrawBase@@8           0000000180080870     insertShapeUtilsCore.obj
 0002:00004880       ??_R1A@?0A@EA@DrawBase@@8  0000000180080880     insertShapeUtilsCore.obj
 0002:000048a8       ??_R4?$DrawFilledRectangleAnySize@MMHHMME@@6B@ 00000001800808a8     insertShapeUtilsCore.obj
 0002:000048d0       ??_R3?$DrawFilledRectangleAnySize@MMHHMME@@8 00000001800808d0     insertShapeUtilsCore.obj
 0002:000048e8       ??_R2?$DrawFilledRectangleAnySize@MMHHMME@@8 00000001800808e8     insertShapeUtilsCore.obj
 0002:00004910       ??_R1A@?0A@EA@?$DrawFilledRectangleAnySize@MMHHMME@@8 0000000180080910     insertShapeUtilsCore.obj
 0002:00004938       ??_R1A@?0A@EA@?$DrawFilledRectangle@MMHHMME@@8 0000000180080938     insertShapeUtilsCore.obj
 0002:00004960       ??_R3?$DrawFilledRectangle@MMHHMME@@8 0000000180080960     insertShapeUtilsCore.obj
 0002:00004978       ??_R2?$DrawFilledRectangle@MMHHMME@@8 0000000180080978     insertShapeUtilsCore.obj
 0002:00004998       ??_R1A@?0A@EA@?$DrawCommon@MMHHMMEH@@8 0000000180080998     insertShapeUtilsCore.obj
 0002:000049c0       ??_R3?$DrawCommon@MMHHMMEH@@8 00000001800809c0     insertShapeUtilsCore.obj
 0002:000049d8       ??_R2?$DrawCommon@MMHHMMEH@@8 00000001800809d8     insertShapeUtilsCore.obj
 0002:000049f0       ??_R4?$DrawFilledRectangle@MMHHMME@@6B@ 00000001800809f0     insertShapeUtilsCore.obj
 0002:00004a18       ??_R4?$DrawCommon@MMHHMMEH@@6B@ 0000000180080a18     insertShapeUtilsCore.obj
 0002:00004a40       ??_R4?$DrawRectangleAnySize@MMHHMME@@6B@ 0000000180080a40     insertShapeUtilsCore.obj
 0002:00004a68       ??_R3?$DrawRectangleAnySize@MMHHMME@@8 0000000180080a68     insertShapeUtilsCore.obj
 0002:00004a80       ??_R2?$DrawRectangleAnySize@MMHHMME@@8 0000000180080a80     insertShapeUtilsCore.obj
 0002:00004ab0       ??_R1A@?0A@EA@?$DrawRectangleAnySize@MMHHMME@@8 0000000180080ab0     insertShapeUtilsCore.obj
 0002:00004ad8       ??_R1A@?0A@EA@?$DrawMarkerLine@MMHHMMEE@@8 0000000180080ad8     insertShapeUtilsCore.obj
 0002:00004b00       ??_R3?$DrawMarkerLine@MMHHMMEE@@8 0000000180080b00     insertShapeUtilsCore.obj
 0002:00004b18       ??_R2?$DrawMarkerLine@MMHHMMEE@@8 0000000180080b18     insertShapeUtilsCore.obj
 0002:00004b40       ??_R1A@?0A@EA@?$DrawLine@MMHHMMEE@@8 0000000180080b40     insertShapeUtilsCore.obj
 0002:00004b68       ??_R3?$DrawLine@MMHHMMEE@@8 0000000180080b68     insertShapeUtilsCore.obj
 0002:00004b80       ??_R2?$DrawLine@MMHHMMEE@@8 0000000180080b80     insertShapeUtilsCore.obj
 0002:00004ba0       ??_R1A@?0A@EA@?$DrawCommon@MMHHMMEE@@8 0000000180080ba0     insertShapeUtilsCore.obj
 0002:00004bc8       ??_R3?$DrawCommon@MMHHMMEE@@8 0000000180080bc8     insertShapeUtilsCore.obj
 0002:00004be0       ??_R2?$DrawCommon@MMHHMMEE@@8 0000000180080be0     insertShapeUtilsCore.obj
 0002:00004bf8       ??_R4?$DrawMarkerLine@MMHHMMEE@@6B@ 0000000180080bf8     insertShapeUtilsCore.obj
 0002:00004c20       ??_R4?$DrawLine@MMHHMMEE@@6B@ 0000000180080c20     insertShapeUtilsCore.obj
 0002:00004c48       ??_R4?$DrawCommon@MMHHMMEE@@6B@ 0000000180080c48     insertShapeUtilsCore.obj
 0002:00004c70       ??_R4?$ScanLineBase@HHH@@6B@ 0000000180080c70     insertShapeUtilsCore.obj
 0002:00004c98       ??_R3?$ScanLineBase@HHH@@8 0000000180080c98     insertShapeUtilsCore.obj
 0002:00004cb0       ??_R2?$ScanLineBase@HHH@@8 0000000180080cb0     insertShapeUtilsCore.obj
 0002:00004cc0       ??_R1A@?0A@EA@?$ScanLineBase@HHH@@8 0000000180080cc0     insertShapeUtilsCore.obj
 0002:00004ce8       ??_R4?$ScanLine@HHH@@6B@   0000000180080ce8     insertShapeUtilsCore.obj
 0002:00004d10       ??_R3?$ScanLine@HHH@@8     0000000180080d10     insertShapeUtilsCore.obj
 0002:00004d28       ??_R2?$ScanLine@HHH@@8     0000000180080d28     insertShapeUtilsCore.obj
 0002:00004d40       ??_R1A@?0A@EA@?$ScanLine@HHH@@8 0000000180080d40     insertShapeUtilsCore.obj
 0002:00004d68       ??_R1A@?0A@EN@?$ScanLineBase@HHH@@8 0000000180080d68     insertShapeUtilsCore.obj
 0002:00004d90       ??_R4?$DrawFilledPolygon@MMHHMMEH@@6B@ 0000000180080d90     insertShapeUtilsCore.obj
 0002:00004db8       ??_R3?$DrawFilledPolygon@MMHHMMEH@@8 0000000180080db8     insertShapeUtilsCore.obj
 0002:00004dd0       ??_R2?$DrawFilledPolygon@MMHHMMEH@@8 0000000180080dd0     insertShapeUtilsCore.obj
 0002:00004df0       ??_R1A@?0A@EA@?$DrawFilledPolygon@MMHHMMEH@@8 0000000180080df0     insertShapeUtilsCore.obj
 0002:00004e18       ??_R4?$ScanLineBase@HHE@@6B@ 0000000180080e18     insertShapeUtilsCore.obj
 0002:00004e40       ??_R3?$ScanLineBase@HHE@@8 0000000180080e40     insertShapeUtilsCore.obj
 0002:00004e58       ??_R2?$ScanLineBase@HHE@@8 0000000180080e58     insertShapeUtilsCore.obj
 0002:00004e68       ??_R1A@?0A@EA@?$ScanLineBase@HHE@@8 0000000180080e68     insertShapeUtilsCore.obj
 0002:00004e90       ??_R4?$ScanLine@HHE@@6B@   0000000180080e90     insertShapeUtilsCore.obj
 0002:00004eb8       ??_R3?$ScanLine@HHE@@8     0000000180080eb8     insertShapeUtilsCore.obj
 0002:00004ed0       ??_R2?$ScanLine@HHE@@8     0000000180080ed0     insertShapeUtilsCore.obj
 0002:00004ee8       ??_R1A@?0A@EA@?$ScanLine@HHE@@8 0000000180080ee8     insertShapeUtilsCore.obj
 0002:00004f10       ??_R1A@?0A@EN@?$ScanLineBase@HHE@@8 0000000180080f10     insertShapeUtilsCore.obj
 0002:00004f38       ??_R4?$DrawFilledPolygon@MMHHMMEE@@6B@ 0000000180080f38     insertShapeUtilsCore.obj
 0002:00004f60       ??_R3?$DrawFilledPolygon@MMHHMMEE@@8 0000000180080f60     insertShapeUtilsCore.obj
 0002:00004f78       ??_R2?$DrawFilledPolygon@MMHHMMEE@@8 0000000180080f78     insertShapeUtilsCore.obj
 0002:00004f98       ??_R1A@?0A@EA@?$DrawFilledPolygon@MMHHMMEE@@8 0000000180080f98     insertShapeUtilsCore.obj
 0002:00004fc0       ??_R4?$DrawPolygon@MMHHMMEH@@6B@ 0000000180080fc0     insertShapeUtilsCore.obj
 0002:00004fe8       ??_R3?$DrawPolygon@MMHHMMEH@@8 0000000180080fe8     insertShapeUtilsCore.obj
 0002:00005000       ??_R2?$DrawPolygon@MMHHMMEH@@8 0000000180081000     insertShapeUtilsCore.obj
 0002:00005028       ??_R1A@?0A@EA@?$DrawPolygon@MMHHMMEH@@8 0000000180081028     insertShapeUtilsCore.obj
 0002:00005050       ??_R1A@?0A@EA@?$DrawLine@MMHHMMEH@@8 0000000180081050     insertShapeUtilsCore.obj
 0002:00005078       ??_R3?$DrawLine@MMHHMMEH@@8 0000000180081078     insertShapeUtilsCore.obj
 0002:00005090       ??_R2?$DrawLine@MMHHMMEH@@8 0000000180081090     insertShapeUtilsCore.obj
 0002:000050b0       ??_R4?$DrawLine@MMHHMMEH@@6B@ 00000001800810b0     insertShapeUtilsCore.obj
 0002:000050d8       ??_R4?$DrawPolygon@MMHHMMEE@@6B@ 00000001800810d8     insertShapeUtilsCore.obj
 0002:00005100       ??_R3?$DrawPolygon@MMHHMMEE@@8 0000000180081100     insertShapeUtilsCore.obj
 0002:00005118       ??_R2?$DrawPolygon@MMHHMMEE@@8 0000000180081118     insertShapeUtilsCore.obj
 0002:00005140       ??_R1A@?0A@EA@?$DrawPolygon@MMHHMMEE@@8 0000000180081140     insertShapeUtilsCore.obj
 0002:00005168       ??_R4?$DrawAnyLine@MMHHMMEH@@6B@ 0000000180081168     insertShapeUtilsCore.obj
 0002:00005190       ??_R3?$DrawAnyLine@MMHHMMEH@@8 0000000180081190     insertShapeUtilsCore.obj
 0002:000051a8       ??_R2?$DrawAnyLine@MMHHMMEH@@8 00000001800811a8     insertShapeUtilsCore.obj
 0002:000051d0       ??_R1A@?0A@EA@?$DrawAnyLine@MMHHMMEH@@8 00000001800811d0     insertShapeUtilsCore.obj
 0002:000051f8       ??_R4?$DrawAnyLine@MMHHMMEE@@6B@ 00000001800811f8     insertShapeUtilsCore.obj
 0002:00005220       ??_R3?$DrawAnyLine@MMHHMMEE@@8 0000000180081220     insertShapeUtilsCore.obj
 0002:00005238       ??_R2?$DrawAnyLine@MMHHMMEE@@8 0000000180081238     insertShapeUtilsCore.obj
 0002:00005260       ??_R1A@?0A@EA@?$DrawAnyLine@MMHHMMEE@@8 0000000180081260     insertShapeUtilsCore.obj
 0002:00005288       ??_R4?$DrawCircleAnySize@MMHHMMEHH@@6B@ 0000000180081288     insertShapeUtilsCore.obj
 0002:000052b0       ??_R3?$DrawCircleAnySize@MMHHMMEHH@@8 00000001800812b0     insertShapeUtilsCore.obj
 0002:000052c8       ??_R2?$DrawCircleAnySize@MMHHMMEHH@@8 00000001800812c8     insertShapeUtilsCore.obj
 0002:000052f0       ??_R1A@?0A@EA@?$DrawCircleAnySize@MMHHMMEHH@@8 00000001800812f0     insertShapeUtilsCore.obj
 0002:00005318       ??_R1A@?0A@EA@?$DrawCircle@MMHHMMEHH@@8 0000000180081318     insertShapeUtilsCore.obj
 0002:00005340       ??_R3?$DrawCircle@MMHHMMEHH@@8 0000000180081340     insertShapeUtilsCore.obj
 0002:00005358       ??_R2?$DrawCircle@MMHHMMEHH@@8 0000000180081358     insertShapeUtilsCore.obj
 0002:00005378       ??_R4?$DrawCircle@MMHHMMEHH@@6B@ 0000000180081378     insertShapeUtilsCore.obj
 0002:000053a0       ??_R4?$DrawCircleAnySize@MMHHMMEEH@@6B@ 00000001800813a0     insertShapeUtilsCore.obj
 0002:000053c8       ??_R3?$DrawCircleAnySize@MMHHMMEEH@@8 00000001800813c8     insertShapeUtilsCore.obj
 0002:000053e0       ??_R2?$DrawCircleAnySize@MMHHMMEEH@@8 00000001800813e0     insertShapeUtilsCore.obj
 0002:00005408       ??_R1A@?0A@EA@?$DrawCircleAnySize@MMHHMMEEH@@8 0000000180081408     insertShapeUtilsCore.obj
 0002:00005430       ??_R1A@?0A@EA@?$DrawCircle@MMHHMMEEH@@8 0000000180081430     insertShapeUtilsCore.obj
 0002:00005458       ??_R3?$DrawCircle@MMHHMMEEH@@8 0000000180081458     insertShapeUtilsCore.obj
 0002:00005470       ??_R2?$DrawCircle@MMHHMMEEH@@8 0000000180081470     insertShapeUtilsCore.obj
 0002:00005490       ??_R4?$DrawCircle@MMHHMMEEH@@6B@ 0000000180081490     insertShapeUtilsCore.obj
 0002:000054b8       ??_R4?$DrawCircleAnySize@MMHHMMEHE@@6B@ 00000001800814b8     insertShapeUtilsCore.obj
 0002:000054e0       ??_R3?$DrawCircleAnySize@MMHHMMEHE@@8 00000001800814e0     insertShapeUtilsCore.obj
 0002:000054f8       ??_R2?$DrawCircleAnySize@MMHHMMEHE@@8 00000001800814f8     insertShapeUtilsCore.obj
 0002:00005520       ??_R1A@?0A@EA@?$DrawCircleAnySize@MMHHMMEHE@@8 0000000180081520     insertShapeUtilsCore.obj
 0002:00005548       ??_R1A@?0A@EA@?$DrawCircle@MMHHMMEHE@@8 0000000180081548     insertShapeUtilsCore.obj
 0002:00005570       ??_R3?$DrawCircle@MMHHMMEHE@@8 0000000180081570     insertShapeUtilsCore.obj
 0002:00005588       ??_R2?$DrawCircle@MMHHMMEHE@@8 0000000180081588     insertShapeUtilsCore.obj
 0002:000055a8       ??_R4?$DrawCircle@MMHHMMEHE@@6B@ 00000001800815a8     insertShapeUtilsCore.obj
 0002:000055d0       ??_R4?$DrawCircleAnySize@MMHHMMEEE@@6B@ 00000001800815d0     insertShapeUtilsCore.obj
 0002:000055f8       ??_R3?$DrawCircleAnySize@MMHHMMEEE@@8 00000001800815f8     insertShapeUtilsCore.obj
 0002:00005610       ??_R2?$DrawCircleAnySize@MMHHMMEEE@@8 0000000180081610     insertShapeUtilsCore.obj
 0002:00005638       ??_R1A@?0A@EA@?$DrawCircleAnySize@MMHHMMEEE@@8 0000000180081638     insertShapeUtilsCore.obj
 0002:00005660       ??_R1A@?0A@EA@?$DrawCircle@MMHHMMEEE@@8 0000000180081660     insertShapeUtilsCore.obj
 0002:00005688       ??_R3?$DrawCircle@MMHHMMEEE@@8 0000000180081688     insertShapeUtilsCore.obj
 0002:000056a0       ??_R2?$DrawCircle@MMHHMMEEE@@8 00000001800816a0     insertShapeUtilsCore.obj
 0002:000056c0       ??_R4?$DrawCircle@MMHHMMEEE@@6B@ 00000001800816c0     insertShapeUtilsCore.obj
 0002:000056e8       ??_R4?$DrawFilledRectangleAnySize@NNHHNNE@@6B@ 00000001800816e8     insertShapeUtilsCore.obj
 0002:00005710       ??_R3?$DrawFilledRectangleAnySize@NNHHNNE@@8 0000000180081710     insertShapeUtilsCore.obj
 0002:00005728       ??_R2?$DrawFilledRectangleAnySize@NNHHNNE@@8 0000000180081728     insertShapeUtilsCore.obj
 0002:00005750       ??_R1A@?0A@EA@?$DrawFilledRectangleAnySize@NNHHNNE@@8 0000000180081750     insertShapeUtilsCore.obj
 0002:00005778       ??_R1A@?0A@EA@?$DrawFilledRectangle@NNHHNNE@@8 0000000180081778     insertShapeUtilsCore.obj
 0002:000057a0       ??_R3?$DrawFilledRectangle@NNHHNNE@@8 00000001800817a0     insertShapeUtilsCore.obj
 0002:000057b8       ??_R2?$DrawFilledRectangle@NNHHNNE@@8 00000001800817b8     insertShapeUtilsCore.obj
 0002:000057d8       ??_R1A@?0A@EA@?$DrawCommon@NNHHNNEH@@8 00000001800817d8     insertShapeUtilsCore.obj
 0002:00005800       ??_R3?$DrawCommon@NNHHNNEH@@8 0000000180081800     insertShapeUtilsCore.obj
 0002:00005818       ??_R2?$DrawCommon@NNHHNNEH@@8 0000000180081818     insertShapeUtilsCore.obj
 0002:00005830       ??_R4?$DrawFilledRectangle@NNHHNNE@@6B@ 0000000180081830     insertShapeUtilsCore.obj
 0002:00005858       ??_R4?$DrawCommon@NNHHNNEH@@6B@ 0000000180081858     insertShapeUtilsCore.obj
 0002:00005880       ??_R4?$DrawRectangleAnySize@NNHHNNE@@6B@ 0000000180081880     insertShapeUtilsCore.obj
 0002:000058a8       ??_R3?$DrawRectangleAnySize@NNHHNNE@@8 00000001800818a8     insertShapeUtilsCore.obj
 0002:000058c0       ??_R2?$DrawRectangleAnySize@NNHHNNE@@8 00000001800818c0     insertShapeUtilsCore.obj
 0002:000058f0       ??_R1A@?0A@EA@?$DrawRectangleAnySize@NNHHNNE@@8 00000001800818f0     insertShapeUtilsCore.obj
 0002:00005918       ??_R1A@?0A@EA@?$DrawMarkerLine@NNHHNNEE@@8 0000000180081918     insertShapeUtilsCore.obj
 0002:00005940       ??_R3?$DrawMarkerLine@NNHHNNEE@@8 0000000180081940     insertShapeUtilsCore.obj
 0002:00005958       ??_R2?$DrawMarkerLine@NNHHNNEE@@8 0000000180081958     insertShapeUtilsCore.obj
 0002:00005980       ??_R1A@?0A@EA@?$DrawLine@NNHHNNEE@@8 0000000180081980     insertShapeUtilsCore.obj
 0002:000059a8       ??_R3?$DrawLine@NNHHNNEE@@8 00000001800819a8     insertShapeUtilsCore.obj
 0002:000059c0       ??_R2?$DrawLine@NNHHNNEE@@8 00000001800819c0     insertShapeUtilsCore.obj
 0002:000059e0       ??_R1A@?0A@EA@?$DrawCommon@NNHHNNEE@@8 00000001800819e0     insertShapeUtilsCore.obj
 0002:00005a08       ??_R3?$DrawCommon@NNHHNNEE@@8 0000000180081a08     insertShapeUtilsCore.obj
 0002:00005a20       ??_R2?$DrawCommon@NNHHNNEE@@8 0000000180081a20     insertShapeUtilsCore.obj
 0002:00005a38       ??_R4?$DrawMarkerLine@NNHHNNEE@@6B@ 0000000180081a38     insertShapeUtilsCore.obj
 0002:00005a60       ??_R4?$DrawLine@NNHHNNEE@@6B@ 0000000180081a60     insertShapeUtilsCore.obj
 0002:00005a88       ??_R4?$DrawCommon@NNHHNNEE@@6B@ 0000000180081a88     insertShapeUtilsCore.obj
 0002:00005ab0       ??_R4?$DrawFilledPolygon@NNHHNNEH@@6B@ 0000000180081ab0     insertShapeUtilsCore.obj
 0002:00005ad8       ??_R3?$DrawFilledPolygon@NNHHNNEH@@8 0000000180081ad8     insertShapeUtilsCore.obj
 0002:00005af0       ??_R2?$DrawFilledPolygon@NNHHNNEH@@8 0000000180081af0     insertShapeUtilsCore.obj
 0002:00005b10       ??_R1A@?0A@EA@?$DrawFilledPolygon@NNHHNNEH@@8 0000000180081b10     insertShapeUtilsCore.obj
 0002:00005b38       ??_R4?$DrawFilledPolygon@NNHHNNEE@@6B@ 0000000180081b38     insertShapeUtilsCore.obj
 0002:00005b60       ??_R3?$DrawFilledPolygon@NNHHNNEE@@8 0000000180081b60     insertShapeUtilsCore.obj
 0002:00005b78       ??_R2?$DrawFilledPolygon@NNHHNNEE@@8 0000000180081b78     insertShapeUtilsCore.obj
 0002:00005b98       ??_R1A@?0A@EA@?$DrawFilledPolygon@NNHHNNEE@@8 0000000180081b98     insertShapeUtilsCore.obj
 0002:00005bc0       ??_R4?$DrawPolygon@NNHHNNEH@@6B@ 0000000180081bc0     insertShapeUtilsCore.obj
 0002:00005be8       ??_R3?$DrawPolygon@NNHHNNEH@@8 0000000180081be8     insertShapeUtilsCore.obj
 0002:00005c00       ??_R2?$DrawPolygon@NNHHNNEH@@8 0000000180081c00     insertShapeUtilsCore.obj
 0002:00005c28       ??_R1A@?0A@EA@?$DrawPolygon@NNHHNNEH@@8 0000000180081c28     insertShapeUtilsCore.obj
 0002:00005c50       ??_R1A@?0A@EA@?$DrawLine@NNHHNNEH@@8 0000000180081c50     insertShapeUtilsCore.obj
 0002:00005c78       ??_R3?$DrawLine@NNHHNNEH@@8 0000000180081c78     insertShapeUtilsCore.obj
 0002:00005c90       ??_R2?$DrawLine@NNHHNNEH@@8 0000000180081c90     insertShapeUtilsCore.obj
 0002:00005cb0       ??_R4?$DrawLine@NNHHNNEH@@6B@ 0000000180081cb0     insertShapeUtilsCore.obj
 0002:00005cd8       ??_R4?$DrawPolygon@NNHHNNEE@@6B@ 0000000180081cd8     insertShapeUtilsCore.obj
 0002:00005d00       ??_R3?$DrawPolygon@NNHHNNEE@@8 0000000180081d00     insertShapeUtilsCore.obj
 0002:00005d18       ??_R2?$DrawPolygon@NNHHNNEE@@8 0000000180081d18     insertShapeUtilsCore.obj
 0002:00005d40       ??_R1A@?0A@EA@?$DrawPolygon@NNHHNNEE@@8 0000000180081d40     insertShapeUtilsCore.obj
 0002:00005d68       ??_R4?$DrawAnyLine@NNHHNNEH@@6B@ 0000000180081d68     insertShapeUtilsCore.obj
 0002:00005d90       ??_R3?$DrawAnyLine@NNHHNNEH@@8 0000000180081d90     insertShapeUtilsCore.obj
 0002:00005da8       ??_R2?$DrawAnyLine@NNHHNNEH@@8 0000000180081da8     insertShapeUtilsCore.obj
 0002:00005dd0       ??_R1A@?0A@EA@?$DrawAnyLine@NNHHNNEH@@8 0000000180081dd0     insertShapeUtilsCore.obj
 0002:00005df8       ??_R4?$DrawAnyLine@NNHHNNEE@@6B@ 0000000180081df8     insertShapeUtilsCore.obj
 0002:00005e20       ??_R3?$DrawAnyLine@NNHHNNEE@@8 0000000180081e20     insertShapeUtilsCore.obj
 0002:00005e38       ??_R2?$DrawAnyLine@NNHHNNEE@@8 0000000180081e38     insertShapeUtilsCore.obj
 0002:00005e60       ??_R1A@?0A@EA@?$DrawAnyLine@NNHHNNEE@@8 0000000180081e60     insertShapeUtilsCore.obj
 0002:00005e88       ??_R4?$DrawCircleAnySize@NNHHNNEHH@@6B@ 0000000180081e88     insertShapeUtilsCore.obj
 0002:00005eb0       ??_R3?$DrawCircleAnySize@NNHHNNEHH@@8 0000000180081eb0     insertShapeUtilsCore.obj
 0002:00005ec8       ??_R2?$DrawCircleAnySize@NNHHNNEHH@@8 0000000180081ec8     insertShapeUtilsCore.obj
 0002:00005ef0       ??_R1A@?0A@EA@?$DrawCircleAnySize@NNHHNNEHH@@8 0000000180081ef0     insertShapeUtilsCore.obj
 0002:00005f18       ??_R1A@?0A@EA@?$DrawCircle@NNHHNNEHH@@8 0000000180081f18     insertShapeUtilsCore.obj
 0002:00005f40       ??_R3?$DrawCircle@NNHHNNEHH@@8 0000000180081f40     insertShapeUtilsCore.obj
 0002:00005f58       ??_R2?$DrawCircle@NNHHNNEHH@@8 0000000180081f58     insertShapeUtilsCore.obj
 0002:00005f78       ??_R4?$DrawCircle@NNHHNNEHH@@6B@ 0000000180081f78     insertShapeUtilsCore.obj
 0002:00005fa0       ??_R4?$DrawCircleAnySize@NNHHNNEEH@@6B@ 0000000180081fa0     insertShapeUtilsCore.obj
 0002:00005fc8       ??_R3?$DrawCircleAnySize@NNHHNNEEH@@8 0000000180081fc8     insertShapeUtilsCore.obj
 0002:00005fe0       ??_R2?$DrawCircleAnySize@NNHHNNEEH@@8 0000000180081fe0     insertShapeUtilsCore.obj
 0002:00006008       ??_R1A@?0A@EA@?$DrawCircleAnySize@NNHHNNEEH@@8 0000000180082008     insertShapeUtilsCore.obj
 0002:00006030       ??_R1A@?0A@EA@?$DrawCircle@NNHHNNEEH@@8 0000000180082030     insertShapeUtilsCore.obj
 0002:00006058       ??_R3?$DrawCircle@NNHHNNEEH@@8 0000000180082058     insertShapeUtilsCore.obj
 0002:00006070       ??_R2?$DrawCircle@NNHHNNEEH@@8 0000000180082070     insertShapeUtilsCore.obj
 0002:00006090       ??_R4?$DrawCircle@NNHHNNEEH@@6B@ 0000000180082090     insertShapeUtilsCore.obj
 0002:000060b8       ??_R4?$DrawCircleAnySize@NNHHNNEHE@@6B@ 00000001800820b8     insertShapeUtilsCore.obj
 0002:000060e0       ??_R3?$DrawCircleAnySize@NNHHNNEHE@@8 00000001800820e0     insertShapeUtilsCore.obj
 0002:000060f8       ??_R2?$DrawCircleAnySize@NNHHNNEHE@@8 00000001800820f8     insertShapeUtilsCore.obj
 0002:00006120       ??_R1A@?0A@EA@?$DrawCircleAnySize@NNHHNNEHE@@8 0000000180082120     insertShapeUtilsCore.obj
 0002:00006148       ??_R1A@?0A@EA@?$DrawCircle@NNHHNNEHE@@8 0000000180082148     insertShapeUtilsCore.obj
 0002:00006170       ??_R3?$DrawCircle@NNHHNNEHE@@8 0000000180082170     insertShapeUtilsCore.obj
 0002:00006188       ??_R2?$DrawCircle@NNHHNNEHE@@8 0000000180082188     insertShapeUtilsCore.obj
 0002:000061a8       ??_R4?$DrawCircle@NNHHNNEHE@@6B@ 00000001800821a8     insertShapeUtilsCore.obj
 0002:000061d0       ??_R4?$DrawCircleAnySize@NNHHNNEEE@@6B@ 00000001800821d0     insertShapeUtilsCore.obj
 0002:000061f8       ??_R3?$DrawCircleAnySize@NNHHNNEEE@@8 00000001800821f8     insertShapeUtilsCore.obj
 0002:00006210       ??_R2?$DrawCircleAnySize@NNHHNNEEE@@8 0000000180082210     insertShapeUtilsCore.obj
 0002:00006238       ??_R1A@?0A@EA@?$DrawCircleAnySize@NNHHNNEEE@@8 0000000180082238     insertShapeUtilsCore.obj
 0002:00006260       ??_R1A@?0A@EA@?$DrawCircle@NNHHNNEEE@@8 0000000180082260     insertShapeUtilsCore.obj
 0002:00006288       ??_R3?$DrawCircle@NNHHNNEEE@@8 0000000180082288     insertShapeUtilsCore.obj
 0002:000062a0       ??_R2?$DrawCircle@NNHHNNEEE@@8 00000001800822a0     insertShapeUtilsCore.obj
 0002:000062c0       ??_R4?$DrawCircle@NNHHNNEEE@@6B@ 00000001800822c0     insertShapeUtilsCore.obj
 0002:000062e8       ??_R4?$DrawFilledRectangleAnySize@EEHHMME@@6B@ 00000001800822e8     insertShapeUtilsCore.obj
 0002:00006310       ??_R3?$DrawFilledRectangleAnySize@EEHHMME@@8 0000000180082310     insertShapeUtilsCore.obj
 0002:00006328       ??_R2?$DrawFilledRectangleAnySize@EEHHMME@@8 0000000180082328     insertShapeUtilsCore.obj
 0002:00006350       ??_R1A@?0A@EA@?$DrawFilledRectangleAnySize@EEHHMME@@8 0000000180082350     insertShapeUtilsCore.obj
 0002:00006378       ??_R1A@?0A@EA@?$DrawFilledRectangle@EEHHMME@@8 0000000180082378     insertShapeUtilsCore.obj
 0002:000063a0       ??_R3?$DrawFilledRectangle@EEHHMME@@8 00000001800823a0     insertShapeUtilsCore.obj
 0002:000063b8       ??_R2?$DrawFilledRectangle@EEHHMME@@8 00000001800823b8     insertShapeUtilsCore.obj
 0002:000063d8       ??_R1A@?0A@EA@?$DrawCommon@EEHHMMEH@@8 00000001800823d8     insertShapeUtilsCore.obj
 0002:00006400       ??_R3?$DrawCommon@EEHHMMEH@@8 0000000180082400     insertShapeUtilsCore.obj
 0002:00006418       ??_R2?$DrawCommon@EEHHMMEH@@8 0000000180082418     insertShapeUtilsCore.obj
 0002:00006430       ??_R4?$DrawFilledRectangle@EEHHMME@@6B@ 0000000180082430     insertShapeUtilsCore.obj
 0002:00006458       ??_R4?$DrawCommon@EEHHMMEH@@6B@ 0000000180082458     insertShapeUtilsCore.obj
 0002:00006480       ??_R4?$DrawRectangleAnySize@EEHHMME@@6B@ 0000000180082480     insertShapeUtilsCore.obj
 0002:000064a8       ??_R3?$DrawRectangleAnySize@EEHHMME@@8 00000001800824a8     insertShapeUtilsCore.obj
 0002:000064c0       ??_R2?$DrawRectangleAnySize@EEHHMME@@8 00000001800824c0     insertShapeUtilsCore.obj
 0002:000064f0       ??_R1A@?0A@EA@?$DrawRectangleAnySize@EEHHMME@@8 00000001800824f0     insertShapeUtilsCore.obj
 0002:00006518       ??_R1A@?0A@EA@?$DrawMarkerLine@EEHHMMEE@@8 0000000180082518     insertShapeUtilsCore.obj
 0002:00006540       ??_R3?$DrawMarkerLine@EEHHMMEE@@8 0000000180082540     insertShapeUtilsCore.obj
 0002:00006558       ??_R2?$DrawMarkerLine@EEHHMMEE@@8 0000000180082558     insertShapeUtilsCore.obj
 0002:00006580       ??_R1A@?0A@EA@?$DrawLine@EEHHMMEE@@8 0000000180082580     insertShapeUtilsCore.obj
 0002:000065a8       ??_R3?$DrawLine@EEHHMMEE@@8 00000001800825a8     insertShapeUtilsCore.obj
 0002:000065c0       ??_R2?$DrawLine@EEHHMMEE@@8 00000001800825c0     insertShapeUtilsCore.obj
 0002:000065e0       ??_R1A@?0A@EA@?$DrawCommon@EEHHMMEE@@8 00000001800825e0     insertShapeUtilsCore.obj
 0002:00006608       ??_R3?$DrawCommon@EEHHMMEE@@8 0000000180082608     insertShapeUtilsCore.obj
 0002:00006620       ??_R2?$DrawCommon@EEHHMMEE@@8 0000000180082620     insertShapeUtilsCore.obj
 0002:00006638       ??_R4?$DrawMarkerLine@EEHHMMEE@@6B@ 0000000180082638     insertShapeUtilsCore.obj
 0002:00006660       ??_R4?$DrawLine@EEHHMMEE@@6B@ 0000000180082660     insertShapeUtilsCore.obj
 0002:00006688       ??_R4?$DrawCommon@EEHHMMEE@@6B@ 0000000180082688     insertShapeUtilsCore.obj
 0002:000066b0       ??_R4?$DrawFilledPolygon@EEHHMMEH@@6B@ 00000001800826b0     insertShapeUtilsCore.obj
 0002:000066d8       ??_R3?$DrawFilledPolygon@EEHHMMEH@@8 00000001800826d8     insertShapeUtilsCore.obj
 0002:000066f0       ??_R2?$DrawFilledPolygon@EEHHMMEH@@8 00000001800826f0     insertShapeUtilsCore.obj
 0002:00006710       ??_R1A@?0A@EA@?$DrawFilledPolygon@EEHHMMEH@@8 0000000180082710     insertShapeUtilsCore.obj
 0002:00006738       ??_R4?$DrawFilledPolygon@EEHHMMEE@@6B@ 0000000180082738     insertShapeUtilsCore.obj
 0002:00006760       ??_R3?$DrawFilledPolygon@EEHHMMEE@@8 0000000180082760     insertShapeUtilsCore.obj
 0002:00006778       ??_R2?$DrawFilledPolygon@EEHHMMEE@@8 0000000180082778     insertShapeUtilsCore.obj
 0002:00006798       ??_R1A@?0A@EA@?$DrawFilledPolygon@EEHHMMEE@@8 0000000180082798     insertShapeUtilsCore.obj
 0002:000067c0       ??_R4?$DrawPolygon@EEHHMMEH@@6B@ 00000001800827c0     insertShapeUtilsCore.obj
 0002:000067e8       ??_R3?$DrawPolygon@EEHHMMEH@@8 00000001800827e8     insertShapeUtilsCore.obj
 0002:00006800       ??_R2?$DrawPolygon@EEHHMMEH@@8 0000000180082800     insertShapeUtilsCore.obj
 0002:00006828       ??_R1A@?0A@EA@?$DrawPolygon@EEHHMMEH@@8 0000000180082828     insertShapeUtilsCore.obj
 0002:00006850       ??_R1A@?0A@EA@?$DrawLine@EEHHMMEH@@8 0000000180082850     insertShapeUtilsCore.obj
 0002:00006878       ??_R3?$DrawLine@EEHHMMEH@@8 0000000180082878     insertShapeUtilsCore.obj
 0002:00006890       ??_R2?$DrawLine@EEHHMMEH@@8 0000000180082890     insertShapeUtilsCore.obj
 0002:000068b0       ??_R4?$DrawLine@EEHHMMEH@@6B@ 00000001800828b0     insertShapeUtilsCore.obj
 0002:000068d8       ??_R4?$DrawPolygon@EEHHMMEE@@6B@ 00000001800828d8     insertShapeUtilsCore.obj
 0002:00006900       ??_R3?$DrawPolygon@EEHHMMEE@@8 0000000180082900     insertShapeUtilsCore.obj
 0002:00006918       ??_R2?$DrawPolygon@EEHHMMEE@@8 0000000180082918     insertShapeUtilsCore.obj
 0002:00006940       ??_R1A@?0A@EA@?$DrawPolygon@EEHHMMEE@@8 0000000180082940     insertShapeUtilsCore.obj
 0002:00006968       ??_R4?$DrawAnyLine@EEHHMMEH@@6B@ 0000000180082968     insertShapeUtilsCore.obj
 0002:00006990       ??_R3?$DrawAnyLine@EEHHMMEH@@8 0000000180082990     insertShapeUtilsCore.obj
 0002:000069a8       ??_R2?$DrawAnyLine@EEHHMMEH@@8 00000001800829a8     insertShapeUtilsCore.obj
 0002:000069d0       ??_R1A@?0A@EA@?$DrawAnyLine@EEHHMMEH@@8 00000001800829d0     insertShapeUtilsCore.obj
 0002:000069f8       ??_R4?$DrawAnyLine@EEHHMMEE@@6B@ 00000001800829f8     insertShapeUtilsCore.obj
 0002:00006a20       ??_R3?$DrawAnyLine@EEHHMMEE@@8 0000000180082a20     insertShapeUtilsCore.obj
 0002:00006a38       ??_R2?$DrawAnyLine@EEHHMMEE@@8 0000000180082a38     insertShapeUtilsCore.obj
 0002:00006a60       ??_R1A@?0A@EA@?$DrawAnyLine@EEHHMMEE@@8 0000000180082a60     insertShapeUtilsCore.obj
 0002:00006a88       ??_R4?$DrawCircleAnySize@EEHHMMEHH@@6B@ 0000000180082a88     insertShapeUtilsCore.obj
 0002:00006ab0       ??_R3?$DrawCircleAnySize@EEHHMMEHH@@8 0000000180082ab0     insertShapeUtilsCore.obj
 0002:00006ac8       ??_R2?$DrawCircleAnySize@EEHHMMEHH@@8 0000000180082ac8     insertShapeUtilsCore.obj
 0002:00006af0       ??_R1A@?0A@EA@?$DrawCircleAnySize@EEHHMMEHH@@8 0000000180082af0     insertShapeUtilsCore.obj
 0002:00006b18       ??_R1A@?0A@EA@?$DrawCircle@EEHHMMEHH@@8 0000000180082b18     insertShapeUtilsCore.obj
 0002:00006b40       ??_R3?$DrawCircle@EEHHMMEHH@@8 0000000180082b40     insertShapeUtilsCore.obj
 0002:00006b58       ??_R2?$DrawCircle@EEHHMMEHH@@8 0000000180082b58     insertShapeUtilsCore.obj
 0002:00006b78       ??_R4?$DrawCircle@EEHHMMEHH@@6B@ 0000000180082b78     insertShapeUtilsCore.obj
 0002:00006ba0       ??_R4?$DrawCircleAnySize@EEHHMMEEH@@6B@ 0000000180082ba0     insertShapeUtilsCore.obj
 0002:00006bc8       ??_R3?$DrawCircleAnySize@EEHHMMEEH@@8 0000000180082bc8     insertShapeUtilsCore.obj
 0002:00006be0       ??_R2?$DrawCircleAnySize@EEHHMMEEH@@8 0000000180082be0     insertShapeUtilsCore.obj
 0002:00006c08       ??_R1A@?0A@EA@?$DrawCircleAnySize@EEHHMMEEH@@8 0000000180082c08     insertShapeUtilsCore.obj
 0002:00006c30       ??_R1A@?0A@EA@?$DrawCircle@EEHHMMEEH@@8 0000000180082c30     insertShapeUtilsCore.obj
 0002:00006c58       ??_R3?$DrawCircle@EEHHMMEEH@@8 0000000180082c58     insertShapeUtilsCore.obj
 0002:00006c70       ??_R2?$DrawCircle@EEHHMMEEH@@8 0000000180082c70     insertShapeUtilsCore.obj
 0002:00006c90       ??_R4?$DrawCircle@EEHHMMEEH@@6B@ 0000000180082c90     insertShapeUtilsCore.obj
 0002:00006cb8       ??_R4?$DrawCircleAnySize@EEHHMMEHE@@6B@ 0000000180082cb8     insertShapeUtilsCore.obj
 0002:00006ce0       ??_R3?$DrawCircleAnySize@EEHHMMEHE@@8 0000000180082ce0     insertShapeUtilsCore.obj
 0002:00006cf8       ??_R2?$DrawCircleAnySize@EEHHMMEHE@@8 0000000180082cf8     insertShapeUtilsCore.obj
 0002:00006d20       ??_R1A@?0A@EA@?$DrawCircleAnySize@EEHHMMEHE@@8 0000000180082d20     insertShapeUtilsCore.obj
 0002:00006d48       ??_R1A@?0A@EA@?$DrawCircle@EEHHMMEHE@@8 0000000180082d48     insertShapeUtilsCore.obj
 0002:00006d70       ??_R3?$DrawCircle@EEHHMMEHE@@8 0000000180082d70     insertShapeUtilsCore.obj
 0002:00006d88       ??_R2?$DrawCircle@EEHHMMEHE@@8 0000000180082d88     insertShapeUtilsCore.obj
 0002:00006da8       ??_R4?$DrawCircle@EEHHMMEHE@@6B@ 0000000180082da8     insertShapeUtilsCore.obj
 0002:00006dd0       ??_R4?$DrawCircleAnySize@EEHHMMEEE@@6B@ 0000000180082dd0     insertShapeUtilsCore.obj
 0002:00006df8       ??_R3?$DrawCircleAnySize@EEHHMMEEE@@8 0000000180082df8     insertShapeUtilsCore.obj
 0002:00006e10       ??_R2?$DrawCircleAnySize@EEHHMMEEE@@8 0000000180082e10     insertShapeUtilsCore.obj
 0002:00006e38       ??_R1A@?0A@EA@?$DrawCircleAnySize@EEHHMMEEE@@8 0000000180082e38     insertShapeUtilsCore.obj
 0002:00006e60       ??_R1A@?0A@EA@?$DrawCircle@EEHHMMEEE@@8 0000000180082e60     insertShapeUtilsCore.obj
 0002:00006e88       ??_R3?$DrawCircle@EEHHMMEEE@@8 0000000180082e88     insertShapeUtilsCore.obj
 0002:00006ea0       ??_R2?$DrawCircle@EEHHMMEEE@@8 0000000180082ea0     insertShapeUtilsCore.obj
 0002:00006ec0       ??_R4?$DrawCircle@EEHHMMEEE@@6B@ 0000000180082ec0     insertShapeUtilsCore.obj
 0002:00006ee8       ??_R4?$DrawFilledRectangleAnySize@GGHHMME@@6B@ 0000000180082ee8     insertShapeUtilsCore.obj
 0002:00006f10       ??_R3?$DrawFilledRectangleAnySize@GGHHMME@@8 0000000180082f10     insertShapeUtilsCore.obj
 0002:00006f28       ??_R2?$DrawFilledRectangleAnySize@GGHHMME@@8 0000000180082f28     insertShapeUtilsCore.obj
 0002:00006f50       ??_R1A@?0A@EA@?$DrawFilledRectangleAnySize@GGHHMME@@8 0000000180082f50     insertShapeUtilsCore.obj
 0002:00006f78       ??_R1A@?0A@EA@?$DrawFilledRectangle@GGHHMME@@8 0000000180082f78     insertShapeUtilsCore.obj
 0002:00006fa0       ??_R3?$DrawFilledRectangle@GGHHMME@@8 0000000180082fa0     insertShapeUtilsCore.obj
 0002:00006fb8       ??_R2?$DrawFilledRectangle@GGHHMME@@8 0000000180082fb8     insertShapeUtilsCore.obj
 0002:00006fd8       ??_R1A@?0A@EA@?$DrawCommon@GGHHMMEH@@8 0000000180082fd8     insertShapeUtilsCore.obj
 0002:00007000       ??_R3?$DrawCommon@GGHHMMEH@@8 0000000180083000     insertShapeUtilsCore.obj
 0002:00007018       ??_R2?$DrawCommon@GGHHMMEH@@8 0000000180083018     insertShapeUtilsCore.obj
 0002:00007030       ??_R4?$DrawFilledRectangle@GGHHMME@@6B@ 0000000180083030     insertShapeUtilsCore.obj
 0002:00007058       ??_R4?$DrawCommon@GGHHMMEH@@6B@ 0000000180083058     insertShapeUtilsCore.obj
 0002:00007080       ??_R4?$DrawRectangleAnySize@GGHHMME@@6B@ 0000000180083080     insertShapeUtilsCore.obj
 0002:000070a8       ??_R3?$DrawRectangleAnySize@GGHHMME@@8 00000001800830a8     insertShapeUtilsCore.obj
 0002:000070c0       ??_R2?$DrawRectangleAnySize@GGHHMME@@8 00000001800830c0     insertShapeUtilsCore.obj
 0002:000070f0       ??_R1A@?0A@EA@?$DrawRectangleAnySize@GGHHMME@@8 00000001800830f0     insertShapeUtilsCore.obj
 0002:00007118       ??_R1A@?0A@EA@?$DrawMarkerLine@GGHHMMEE@@8 0000000180083118     insertShapeUtilsCore.obj
 0002:00007140       ??_R3?$DrawMarkerLine@GGHHMMEE@@8 0000000180083140     insertShapeUtilsCore.obj
 0002:00007158       ??_R2?$DrawMarkerLine@GGHHMMEE@@8 0000000180083158     insertShapeUtilsCore.obj
 0002:00007180       ??_R1A@?0A@EA@?$DrawLine@GGHHMMEE@@8 0000000180083180     insertShapeUtilsCore.obj
 0002:000071a8       ??_R3?$DrawLine@GGHHMMEE@@8 00000001800831a8     insertShapeUtilsCore.obj
 0002:000071c0       ??_R2?$DrawLine@GGHHMMEE@@8 00000001800831c0     insertShapeUtilsCore.obj
 0002:000071e0       ??_R1A@?0A@EA@?$DrawCommon@GGHHMMEE@@8 00000001800831e0     insertShapeUtilsCore.obj
 0002:00007208       ??_R3?$DrawCommon@GGHHMMEE@@8 0000000180083208     insertShapeUtilsCore.obj
 0002:00007220       ??_R2?$DrawCommon@GGHHMMEE@@8 0000000180083220     insertShapeUtilsCore.obj
 0002:00007238       ??_R4?$DrawMarkerLine@GGHHMMEE@@6B@ 0000000180083238     insertShapeUtilsCore.obj
 0002:00007260       ??_R4?$DrawLine@GGHHMMEE@@6B@ 0000000180083260     insertShapeUtilsCore.obj
 0002:00007288       ??_R4?$DrawCommon@GGHHMMEE@@6B@ 0000000180083288     insertShapeUtilsCore.obj
 0002:000072b0       ??_R4?$DrawFilledPolygon@GGHHMMEH@@6B@ 00000001800832b0     insertShapeUtilsCore.obj
 0002:000072d8       ??_R3?$DrawFilledPolygon@GGHHMMEH@@8 00000001800832d8     insertShapeUtilsCore.obj
 0002:000072f0       ??_R2?$DrawFilledPolygon@GGHHMMEH@@8 00000001800832f0     insertShapeUtilsCore.obj
 0002:00007310       ??_R1A@?0A@EA@?$DrawFilledPolygon@GGHHMMEH@@8 0000000180083310     insertShapeUtilsCore.obj
 0002:00007338       ??_R4?$DrawFilledPolygon@GGHHMMEE@@6B@ 0000000180083338     insertShapeUtilsCore.obj
 0002:00007360       ??_R3?$DrawFilledPolygon@GGHHMMEE@@8 0000000180083360     insertShapeUtilsCore.obj
 0002:00007378       ??_R2?$DrawFilledPolygon@GGHHMMEE@@8 0000000180083378     insertShapeUtilsCore.obj
 0002:00007398       ??_R1A@?0A@EA@?$DrawFilledPolygon@GGHHMMEE@@8 0000000180083398     insertShapeUtilsCore.obj
 0002:000073c0       ??_R4?$DrawPolygon@GGHHMMEH@@6B@ 00000001800833c0     insertShapeUtilsCore.obj
 0002:000073e8       ??_R3?$DrawPolygon@GGHHMMEH@@8 00000001800833e8     insertShapeUtilsCore.obj
 0002:00007400       ??_R2?$DrawPolygon@GGHHMMEH@@8 0000000180083400     insertShapeUtilsCore.obj
 0002:00007428       ??_R1A@?0A@EA@?$DrawPolygon@GGHHMMEH@@8 0000000180083428     insertShapeUtilsCore.obj
 0002:00007450       ??_R1A@?0A@EA@?$DrawLine@GGHHMMEH@@8 0000000180083450     insertShapeUtilsCore.obj
 0002:00007478       ??_R3?$DrawLine@GGHHMMEH@@8 0000000180083478     insertShapeUtilsCore.obj
 0002:00007490       ??_R2?$DrawLine@GGHHMMEH@@8 0000000180083490     insertShapeUtilsCore.obj
 0002:000074b0       ??_R4?$DrawLine@GGHHMMEH@@6B@ 00000001800834b0     insertShapeUtilsCore.obj
 0002:000074d8       ??_R4?$DrawPolygon@GGHHMMEE@@6B@ 00000001800834d8     insertShapeUtilsCore.obj
 0002:00007500       ??_R3?$DrawPolygon@GGHHMMEE@@8 0000000180083500     insertShapeUtilsCore.obj
 0002:00007518       ??_R2?$DrawPolygon@GGHHMMEE@@8 0000000180083518     insertShapeUtilsCore.obj
 0002:00007540       ??_R1A@?0A@EA@?$DrawPolygon@GGHHMMEE@@8 0000000180083540     insertShapeUtilsCore.obj
 0002:00007568       ??_R4?$DrawAnyLine@GGHHMMEH@@6B@ 0000000180083568     insertShapeUtilsCore.obj
 0002:00007590       ??_R3?$DrawAnyLine@GGHHMMEH@@8 0000000180083590     insertShapeUtilsCore.obj
 0002:000075a8       ??_R2?$DrawAnyLine@GGHHMMEH@@8 00000001800835a8     insertShapeUtilsCore.obj
 0002:000075d0       ??_R1A@?0A@EA@?$DrawAnyLine@GGHHMMEH@@8 00000001800835d0     insertShapeUtilsCore.obj
 0002:000075f8       ??_R4?$DrawAnyLine@GGHHMMEE@@6B@ 00000001800835f8     insertShapeUtilsCore.obj
 0002:00007620       ??_R3?$DrawAnyLine@GGHHMMEE@@8 0000000180083620     insertShapeUtilsCore.obj
 0002:00007638       ??_R2?$DrawAnyLine@GGHHMMEE@@8 0000000180083638     insertShapeUtilsCore.obj
 0002:00007660       ??_R1A@?0A@EA@?$DrawAnyLine@GGHHMMEE@@8 0000000180083660     insertShapeUtilsCore.obj
 0002:00007688       ??_R4?$DrawCircleAnySize@GGHHMMEHH@@6B@ 0000000180083688     insertShapeUtilsCore.obj
 0002:000076b0       ??_R3?$DrawCircleAnySize@GGHHMMEHH@@8 00000001800836b0     insertShapeUtilsCore.obj
 0002:000076c8       ??_R2?$DrawCircleAnySize@GGHHMMEHH@@8 00000001800836c8     insertShapeUtilsCore.obj
 0002:000076f0       ??_R1A@?0A@EA@?$DrawCircleAnySize@GGHHMMEHH@@8 00000001800836f0     insertShapeUtilsCore.obj
 0002:00007718       ??_R1A@?0A@EA@?$DrawCircle@GGHHMMEHH@@8 0000000180083718     insertShapeUtilsCore.obj
 0002:00007740       ??_R3?$DrawCircle@GGHHMMEHH@@8 0000000180083740     insertShapeUtilsCore.obj
 0002:00007758       ??_R2?$DrawCircle@GGHHMMEHH@@8 0000000180083758     insertShapeUtilsCore.obj
 0002:00007778       ??_R4?$DrawCircle@GGHHMMEHH@@6B@ 0000000180083778     insertShapeUtilsCore.obj
 0002:000077a0       ??_R4?$DrawCircleAnySize@GGHHMMEEH@@6B@ 00000001800837a0     insertShapeUtilsCore.obj
 0002:000077c8       ??_R3?$DrawCircleAnySize@GGHHMMEEH@@8 00000001800837c8     insertShapeUtilsCore.obj
 0002:000077e0       ??_R2?$DrawCircleAnySize@GGHHMMEEH@@8 00000001800837e0     insertShapeUtilsCore.obj
 0002:00007808       ??_R1A@?0A@EA@?$DrawCircleAnySize@GGHHMMEEH@@8 0000000180083808     insertShapeUtilsCore.obj
 0002:00007830       ??_R1A@?0A@EA@?$DrawCircle@GGHHMMEEH@@8 0000000180083830     insertShapeUtilsCore.obj
 0002:00007858       ??_R3?$DrawCircle@GGHHMMEEH@@8 0000000180083858     insertShapeUtilsCore.obj
 0002:00007870       ??_R2?$DrawCircle@GGHHMMEEH@@8 0000000180083870     insertShapeUtilsCore.obj
 0002:00007890       ??_R4?$DrawCircle@GGHHMMEEH@@6B@ 0000000180083890     insertShapeUtilsCore.obj
 0002:000078b8       ??_R4?$DrawCircleAnySize@GGHHMMEHE@@6B@ 00000001800838b8     insertShapeUtilsCore.obj
 0002:000078e0       ??_R3?$DrawCircleAnySize@GGHHMMEHE@@8 00000001800838e0     insertShapeUtilsCore.obj
 0002:000078f8       ??_R2?$DrawCircleAnySize@GGHHMMEHE@@8 00000001800838f8     insertShapeUtilsCore.obj
 0002:00007920       ??_R1A@?0A@EA@?$DrawCircleAnySize@GGHHMMEHE@@8 0000000180083920     insertShapeUtilsCore.obj
 0002:00007948       ??_R1A@?0A@EA@?$DrawCircle@GGHHMMEHE@@8 0000000180083948     insertShapeUtilsCore.obj
 0002:00007970       ??_R3?$DrawCircle@GGHHMMEHE@@8 0000000180083970     insertShapeUtilsCore.obj
 0002:00007988       ??_R2?$DrawCircle@GGHHMMEHE@@8 0000000180083988     insertShapeUtilsCore.obj
 0002:000079a8       ??_R4?$DrawCircle@GGHHMMEHE@@6B@ 00000001800839a8     insertShapeUtilsCore.obj
 0002:000079d0       ??_R4?$DrawCircleAnySize@GGHHMMEEE@@6B@ 00000001800839d0     insertShapeUtilsCore.obj
 0002:000079f8       ??_R3?$DrawCircleAnySize@GGHHMMEEE@@8 00000001800839f8     insertShapeUtilsCore.obj
 0002:00007a10       ??_R2?$DrawCircleAnySize@GGHHMMEEE@@8 0000000180083a10     insertShapeUtilsCore.obj
 0002:00007a38       ??_R1A@?0A@EA@?$DrawCircleAnySize@GGHHMMEEE@@8 0000000180083a38     insertShapeUtilsCore.obj
 0002:00007a60       ??_R1A@?0A@EA@?$DrawCircle@GGHHMMEEE@@8 0000000180083a60     insertShapeUtilsCore.obj
 0002:00007a88       ??_R3?$DrawCircle@GGHHMMEEE@@8 0000000180083a88     insertShapeUtilsCore.obj
 0002:00007aa0       ??_R2?$DrawCircle@GGHHMMEEE@@8 0000000180083aa0     insertShapeUtilsCore.obj
 0002:00007ac0       ??_R4?$DrawCircle@GGHHMMEEE@@6B@ 0000000180083ac0     insertShapeUtilsCore.obj
 0002:00007ae8       ??_R4?$DrawFilledRectangleAnySize@FFHHMME@@6B@ 0000000180083ae8     insertShapeUtilsCore.obj
 0002:00007b10       ??_R3?$DrawFilledRectangleAnySize@FFHHMME@@8 0000000180083b10     insertShapeUtilsCore.obj
 0002:00007b28       ??_R2?$DrawFilledRectangleAnySize@FFHHMME@@8 0000000180083b28     insertShapeUtilsCore.obj
 0002:00007b50       ??_R1A@?0A@EA@?$DrawFilledRectangleAnySize@FFHHMME@@8 0000000180083b50     insertShapeUtilsCore.obj
 0002:00007b78       ??_R1A@?0A@EA@?$DrawFilledRectangle@FFHHMME@@8 0000000180083b78     insertShapeUtilsCore.obj
 0002:00007ba0       ??_R3?$DrawFilledRectangle@FFHHMME@@8 0000000180083ba0     insertShapeUtilsCore.obj
 0002:00007bb8       ??_R2?$DrawFilledRectangle@FFHHMME@@8 0000000180083bb8     insertShapeUtilsCore.obj
 0002:00007bd8       ??_R1A@?0A@EA@?$DrawCommon@FFHHMMEH@@8 0000000180083bd8     insertShapeUtilsCore.obj
 0002:00007c00       ??_R3?$DrawCommon@FFHHMMEH@@8 0000000180083c00     insertShapeUtilsCore.obj
 0002:00007c18       ??_R2?$DrawCommon@FFHHMMEH@@8 0000000180083c18     insertShapeUtilsCore.obj
 0002:00007c30       ??_R4?$DrawFilledRectangle@FFHHMME@@6B@ 0000000180083c30     insertShapeUtilsCore.obj
 0002:00007c58       ??_R4?$DrawCommon@FFHHMMEH@@6B@ 0000000180083c58     insertShapeUtilsCore.obj
 0002:00007c80       ??_R4?$DrawRectangleAnySize@FFHHMME@@6B@ 0000000180083c80     insertShapeUtilsCore.obj
 0002:00007ca8       ??_R3?$DrawRectangleAnySize@FFHHMME@@8 0000000180083ca8     insertShapeUtilsCore.obj
 0002:00007cc0       ??_R2?$DrawRectangleAnySize@FFHHMME@@8 0000000180083cc0     insertShapeUtilsCore.obj
 0002:00007cf0       ??_R1A@?0A@EA@?$DrawRectangleAnySize@FFHHMME@@8 0000000180083cf0     insertShapeUtilsCore.obj
 0002:00007d18       ??_R1A@?0A@EA@?$DrawMarkerLine@FFHHMMEE@@8 0000000180083d18     insertShapeUtilsCore.obj
 0002:00007d40       ??_R3?$DrawMarkerLine@FFHHMMEE@@8 0000000180083d40     insertShapeUtilsCore.obj
 0002:00007d58       ??_R2?$DrawMarkerLine@FFHHMMEE@@8 0000000180083d58     insertShapeUtilsCore.obj
 0002:00007d80       ??_R1A@?0A@EA@?$DrawLine@FFHHMMEE@@8 0000000180083d80     insertShapeUtilsCore.obj
 0002:00007da8       ??_R3?$DrawLine@FFHHMMEE@@8 0000000180083da8     insertShapeUtilsCore.obj
 0002:00007dc0       ??_R2?$DrawLine@FFHHMMEE@@8 0000000180083dc0     insertShapeUtilsCore.obj
 0002:00007de0       ??_R1A@?0A@EA@?$DrawCommon@FFHHMMEE@@8 0000000180083de0     insertShapeUtilsCore.obj
 0002:00007e08       ??_R3?$DrawCommon@FFHHMMEE@@8 0000000180083e08     insertShapeUtilsCore.obj
 0002:00007e20       ??_R2?$DrawCommon@FFHHMMEE@@8 0000000180083e20     insertShapeUtilsCore.obj
 0002:00007e38       ??_R4?$DrawMarkerLine@FFHHMMEE@@6B@ 0000000180083e38     insertShapeUtilsCore.obj
 0002:00007e60       ??_R4?$DrawLine@FFHHMMEE@@6B@ 0000000180083e60     insertShapeUtilsCore.obj
 0002:00007e88       ??_R4?$DrawCommon@FFHHMMEE@@6B@ 0000000180083e88     insertShapeUtilsCore.obj
 0002:00007eb0       ??_R4?$DrawFilledPolygon@FFHHMMEH@@6B@ 0000000180083eb0     insertShapeUtilsCore.obj
 0002:00007ed8       ??_R3?$DrawFilledPolygon@FFHHMMEH@@8 0000000180083ed8     insertShapeUtilsCore.obj
 0002:00007ef0       ??_R2?$DrawFilledPolygon@FFHHMMEH@@8 0000000180083ef0     insertShapeUtilsCore.obj
 0002:00007f10       ??_R1A@?0A@EA@?$DrawFilledPolygon@FFHHMMEH@@8 0000000180083f10     insertShapeUtilsCore.obj
 0002:00007f38       ??_R4?$DrawFilledPolygon@FFHHMMEE@@6B@ 0000000180083f38     insertShapeUtilsCore.obj
 0002:00007f60       ??_R3?$DrawFilledPolygon@FFHHMMEE@@8 0000000180083f60     insertShapeUtilsCore.obj
 0002:00007f78       ??_R2?$DrawFilledPolygon@FFHHMMEE@@8 0000000180083f78     insertShapeUtilsCore.obj
 0002:00007f98       ??_R1A@?0A@EA@?$DrawFilledPolygon@FFHHMMEE@@8 0000000180083f98     insertShapeUtilsCore.obj
 0002:00007fc0       ??_R4?$DrawPolygon@FFHHMMEH@@6B@ 0000000180083fc0     insertShapeUtilsCore.obj
 0002:00007fe8       ??_R3?$DrawPolygon@FFHHMMEH@@8 0000000180083fe8     insertShapeUtilsCore.obj
 0002:00008000       ??_R2?$DrawPolygon@FFHHMMEH@@8 0000000180084000     insertShapeUtilsCore.obj
 0002:00008028       ??_R1A@?0A@EA@?$DrawPolygon@FFHHMMEH@@8 0000000180084028     insertShapeUtilsCore.obj
 0002:00008050       ??_R1A@?0A@EA@?$DrawLine@FFHHMMEH@@8 0000000180084050     insertShapeUtilsCore.obj
 0002:00008078       ??_R3?$DrawLine@FFHHMMEH@@8 0000000180084078     insertShapeUtilsCore.obj
 0002:00008090       ??_R2?$DrawLine@FFHHMMEH@@8 0000000180084090     insertShapeUtilsCore.obj
 0002:000080b0       ??_R4?$DrawLine@FFHHMMEH@@6B@ 00000001800840b0     insertShapeUtilsCore.obj
 0002:000080d8       ??_R4?$DrawPolygon@FFHHMMEE@@6B@ 00000001800840d8     insertShapeUtilsCore.obj
 0002:00008100       ??_R3?$DrawPolygon@FFHHMMEE@@8 0000000180084100     insertShapeUtilsCore.obj
 0002:00008118       ??_R2?$DrawPolygon@FFHHMMEE@@8 0000000180084118     insertShapeUtilsCore.obj
 0002:00008140       ??_R1A@?0A@EA@?$DrawPolygon@FFHHMMEE@@8 0000000180084140     insertShapeUtilsCore.obj
 0002:00008168       ??_R4?$DrawAnyLine@FFHHMMEH@@6B@ 0000000180084168     insertShapeUtilsCore.obj
 0002:00008190       ??_R3?$DrawAnyLine@FFHHMMEH@@8 0000000180084190     insertShapeUtilsCore.obj
 0002:000081a8       ??_R2?$DrawAnyLine@FFHHMMEH@@8 00000001800841a8     insertShapeUtilsCore.obj
 0002:000081d0       ??_R1A@?0A@EA@?$DrawAnyLine@FFHHMMEH@@8 00000001800841d0     insertShapeUtilsCore.obj
 0002:000081f8       ??_R4?$DrawAnyLine@FFHHMMEE@@6B@ 00000001800841f8     insertShapeUtilsCore.obj
 0002:00008220       ??_R3?$DrawAnyLine@FFHHMMEE@@8 0000000180084220     insertShapeUtilsCore.obj
 0002:00008238       ??_R2?$DrawAnyLine@FFHHMMEE@@8 0000000180084238     insertShapeUtilsCore.obj
 0002:00008260       ??_R1A@?0A@EA@?$DrawAnyLine@FFHHMMEE@@8 0000000180084260     insertShapeUtilsCore.obj
 0002:00008288       ??_R4?$DrawCircleAnySize@FFHHMMEHH@@6B@ 0000000180084288     insertShapeUtilsCore.obj
 0002:000082b0       ??_R3?$DrawCircleAnySize@FFHHMMEHH@@8 00000001800842b0     insertShapeUtilsCore.obj
 0002:000082c8       ??_R2?$DrawCircleAnySize@FFHHMMEHH@@8 00000001800842c8     insertShapeUtilsCore.obj
 0002:000082f0       ??_R1A@?0A@EA@?$DrawCircleAnySize@FFHHMMEHH@@8 00000001800842f0     insertShapeUtilsCore.obj
 0002:00008318       ??_R1A@?0A@EA@?$DrawCircle@FFHHMMEHH@@8 0000000180084318     insertShapeUtilsCore.obj
 0002:00008340       ??_R3?$DrawCircle@FFHHMMEHH@@8 0000000180084340     insertShapeUtilsCore.obj
 0002:00008358       ??_R2?$DrawCircle@FFHHMMEHH@@8 0000000180084358     insertShapeUtilsCore.obj
 0002:00008378       ??_R4?$DrawCircle@FFHHMMEHH@@6B@ 0000000180084378     insertShapeUtilsCore.obj
 0002:000083a0       ??_R4?$DrawCircleAnySize@FFHHMMEEH@@6B@ 00000001800843a0     insertShapeUtilsCore.obj
 0002:000083c8       ??_R3?$DrawCircleAnySize@FFHHMMEEH@@8 00000001800843c8     insertShapeUtilsCore.obj
 0002:000083e0       ??_R2?$DrawCircleAnySize@FFHHMMEEH@@8 00000001800843e0     insertShapeUtilsCore.obj
 0002:00008408       ??_R1A@?0A@EA@?$DrawCircleAnySize@FFHHMMEEH@@8 0000000180084408     insertShapeUtilsCore.obj
 0002:00008430       ??_R1A@?0A@EA@?$DrawCircle@FFHHMMEEH@@8 0000000180084430     insertShapeUtilsCore.obj
 0002:00008458       ??_R3?$DrawCircle@FFHHMMEEH@@8 0000000180084458     insertShapeUtilsCore.obj
 0002:00008470       ??_R2?$DrawCircle@FFHHMMEEH@@8 0000000180084470     insertShapeUtilsCore.obj
 0002:00008490       ??_R4?$DrawCircle@FFHHMMEEH@@6B@ 0000000180084490     insertShapeUtilsCore.obj
 0002:000084b8       ??_R4?$DrawCircleAnySize@FFHHMMEHE@@6B@ 00000001800844b8     insertShapeUtilsCore.obj
 0002:000084e0       ??_R3?$DrawCircleAnySize@FFHHMMEHE@@8 00000001800844e0     insertShapeUtilsCore.obj
 0002:000084f8       ??_R2?$DrawCircleAnySize@FFHHMMEHE@@8 00000001800844f8     insertShapeUtilsCore.obj
 0002:00008520       ??_R1A@?0A@EA@?$DrawCircleAnySize@FFHHMMEHE@@8 0000000180084520     insertShapeUtilsCore.obj
 0002:00008548       ??_R1A@?0A@EA@?$DrawCircle@FFHHMMEHE@@8 0000000180084548     insertShapeUtilsCore.obj
 0002:00008570       ??_R3?$DrawCircle@FFHHMMEHE@@8 0000000180084570     insertShapeUtilsCore.obj
 0002:00008588       ??_R2?$DrawCircle@FFHHMMEHE@@8 0000000180084588     insertShapeUtilsCore.obj
 0002:000085a8       ??_R4?$DrawCircle@FFHHMMEHE@@6B@ 00000001800845a8     insertShapeUtilsCore.obj
 0002:000085d0       ??_R4?$DrawCircleAnySize@FFHHMMEEE@@6B@ 00000001800845d0     insertShapeUtilsCore.obj
 0002:000085f8       ??_R3?$DrawCircleAnySize@FFHHMMEEE@@8 00000001800845f8     insertShapeUtilsCore.obj
 0002:00008610       ??_R2?$DrawCircleAnySize@FFHHMMEEE@@8 0000000180084610     insertShapeUtilsCore.obj
 0002:00008638       ??_R1A@?0A@EA@?$DrawCircleAnySize@FFHHMMEEE@@8 0000000180084638     insertShapeUtilsCore.obj
 0002:00008660       ??_R1A@?0A@EA@?$DrawCircle@FFHHMMEEE@@8 0000000180084660     insertShapeUtilsCore.obj
 0002:00008688       ??_R3?$DrawCircle@FFHHMMEEE@@8 0000000180084688     insertShapeUtilsCore.obj
 0002:000086a0       ??_R2?$DrawCircle@FFHHMMEEE@@8 00000001800846a0     insertShapeUtilsCore.obj
 0002:000086c0       ??_R4?$DrawCircle@FFHHMMEEE@@6B@ 00000001800846c0     insertShapeUtilsCore.obj
 0002:000086e8       ??_R4type_info@@6B@        00000001800846e8     MSVCRT:std_type_info_static.obj
 0002:00008710       ??_R3type_info@@8          0000000180084710     MSVCRT:std_type_info_static.obj
 0002:00008728       ??_R2type_info@@8          0000000180084728     MSVCRT:std_type_info_static.obj
 0002:00008738       ??_R1A@?0A@EA@type_info@@8 0000000180084738     MSVCRT:std_type_info_static.obj
 0002:00008760       ??_R4exception@std@@6B@    0000000180084760     MSVCRT:throw_bad_alloc.obj
 0002:00008788       ??_R3exception@std@@8      0000000180084788     MSVCRT:throw_bad_alloc.obj
 0002:000087a0       ??_R2exception@std@@8      00000001800847a0     MSVCRT:throw_bad_alloc.obj
 0002:000087b0       ??_R1A@?0A@EA@exception@std@@8 00000001800847b0     MSVCRT:throw_bad_alloc.obj
 0002:000087d8       ??_R4bad_alloc@std@@6B@    00000001800847d8     MSVCRT:throw_bad_alloc.obj
 0002:00008800       ??_R3bad_alloc@std@@8      0000000180084800     MSVCRT:throw_bad_alloc.obj
 0002:00008818       ??_R2bad_alloc@std@@8      0000000180084818     MSVCRT:throw_bad_alloc.obj
 0002:00008830       ??_R1A@?0A@EA@bad_alloc@std@@8 0000000180084830     MSVCRT:throw_bad_alloc.obj
 0002:00008858       ??_R4bad_array_new_length@std@@6B@ 0000000180084858     MSVCRT:throw_bad_alloc.obj
 0002:00008880       ??_R3bad_array_new_length@std@@8 0000000180084880     MSVCRT:throw_bad_alloc.obj
 0002:00008898       ??_R2bad_array_new_length@std@@8 0000000180084898     MSVCRT:throw_bad_alloc.obj
 0002:000088b8       ??_R1A@?0A@EA@bad_array_new_length@std@@8 00000001800848b8     MSVCRT:throw_bad_alloc.obj
 0002:00008b30       __rtc_iaa                  0000000180084b30     MSVCRT:initsect.obj
 0002:00008b38       __rtc_izz                  0000000180084b38     MSVCRT:initsect.obj
 0002:00008b40       __rtc_taa                  0000000180084b40     MSVCRT:initsect.obj
 0002:00008b48       __rtc_tzz                  0000000180084b48     MSVCRT:initsect.obj
 0002:0000c190       _TI2?AVbad_alloc@std@@     0000000180088190     MSVCRT:throw_bad_alloc.obj
 0002:0000c1b0       _CTA2?AVbad_alloc@std@@    00000001800881b0     MSVCRT:throw_bad_alloc.obj
 0002:0000c1c8       _CT??_R0?AVbad_alloc@std@@@8??0bad_alloc@std@@QEAA@AEBV01@@Z24 00000001800881c8     MSVCRT:throw_bad_alloc.obj
 0002:0000c1f0       _CT??_R0?AVexception@std@@@8??0exception@std@@QEAA@AEBV01@@Z24 00000001800881f0     MSVCRT:throw_bad_alloc.obj
 0002:0000c218       _TI3?AVbad_array_new_length@std@@ 0000000180088218     MSVCRT:throw_bad_alloc.obj
 0002:0000c238       _CTA3?AVbad_array_new_length@std@@ 0000000180088238     MSVCRT:throw_bad_alloc.obj
 0002:0000c258       _CT??_R0?AVbad_array_new_length@std@@@8??0bad_array_new_length@std@@QEAA@AEBV01@@Z24 0000000180088258     MSVCRT:throw_bad_alloc.obj
 0002:0000c698       __IMPORT_DESCRIPTOR_libmwrgb2gray_tbb 0000000180088698     libmwrgb2gray_tbb:libmwrgb2gray_tbb.dll
 0002:0000c6ac       __IMPORT_DESCRIPTOR_libmwreadAprilTag 00000001800886ac     libmwreadAprilTag:libmwreadAprilTag.dll
 0002:0000c6c0       __IMPORT_DESCRIPTOR_libmwblas 00000001800886c0     libmwblas:libmwblas.dll
 0002:0000c6d4       __IMPORT_DESCRIPTOR_sf_runtime 00000001800886d4     sf_runtime:sf_runtime.dll
 0002:0000c6e8       __IMPORT_DESCRIPTOR_libmx  00000001800886e8     libmx:libmx.dll
 0002:0000c6fc       __IMPORT_DESCRIPTOR_libmex 00000001800886fc     libmex:libmex.dll
 0002:0000c710       __IMPORT_DESCRIPTOR_libut  0000000180088710     libut:libut.dll
 0002:0000c724       __IMPORT_DESCRIPTOR_libmwmathutil 0000000180088724     libmwmathutil:libmwmathutil.dll
 0002:0000c738       __IMPORT_DESCRIPTOR_libemlrt 0000000180088738     libemlrt:libemlrt.dll
 0002:0000c74c       __IMPORT_DESCRIPTOR_libcovrt 000000018008874c     libcovrt:libcovrt.dll
 0002:0000c760       __IMPORT_DESCRIPTOR_KERNEL32 0000000180088760     kernel32:KERNEL32.dll
 0002:0000c774       __IMPORT_DESCRIPTOR_VCRUNTIME140 0000000180088774     vcruntime:VCRUNTIME140.dll
 0002:0000c788       __IMPORT_DESCRIPTOR_api-ms-win-crt-string-l1-1-0 0000000180088788     ucrt:api-ms-win-crt-string-l1-1-0.dll
 0002:0000c79c       __IMPORT_DESCRIPTOR_api-ms-win-crt-stdio-l1-1-0 000000018008879c     ucrt:api-ms-win-crt-stdio-l1-1-0.dll
 0002:0000c7b0       __IMPORT_DESCRIPTOR_api-ms-win-crt-heap-l1-1-0 00000001800887b0     ucrt:api-ms-win-crt-heap-l1-1-0.dll
 0002:0000c7c4       __IMPORT_DESCRIPTOR_api-ms-win-crt-math-l1-1-0 00000001800887c4     ucrt:api-ms-win-crt-math-l1-1-0.dll
 0002:0000c7d8       __IMPORT_DESCRIPTOR_api-ms-win-crt-runtime-l1-1-0 00000001800887d8     ucrt:api-ms-win-crt-runtime-l1-1-0.dll
 0002:0000c7ec       __NULL_IMPORT_DESCRIPTOR   00000001800887ec     libmwrgb2gray_tbb:libmwrgb2gray_tbb.dll
 0003:0000a310       DYNAMIC_DIMENSION          0000000180094310     CameraCalImageCapture_sfun_registry.obj
 0003:0000c8a0       __security_cookie_complement 00000001800968a0     MSVCRT:gs_cookie.obj
 0003:0000c8a8       __security_cookie          00000001800968a8     MSVCRT:gs_cookie.obj
 0003:0000c8b0       _fltused                   00000001800968b0     MSVCRT:fltused.obj
 0003:0000c8b4       __scrt_native_dllmain_reason 00000001800968b4     MSVCRT:utility.obj
 0003:0000c8b8       __isa_available            00000001800968b8     MSVCRT:cpu_disp.obj
 0003:0000c8bc       __isa_enabled              00000001800968bc     MSVCRT:cpu_disp.obj
 0003:0000c8c0       __memcpy_nt_iters          00000001800968c0     MSVCRT:cpu_disp.obj
 0003:0000c8d0       __scrt_ucrt_dll_is_in_use  00000001800968d0     MSVCRT:ucrt_stubs.obj
 0003:0000c8d8       ??_R0?AVDrawBase@@@8       00000001800968d8     insertShapeUtilsCore.obj
 0003:0000c8f8       ??_R0?AV?$DrawFilledRectangleAnySize@MMHHMME@@@8 00000001800968f8     insertShapeUtilsCore.obj
 0003:0000c938       ??_R0?AV?$DrawFilledRectangle@MMHHMME@@@8 0000000180096938     insertShapeUtilsCore.obj
 0003:0000c970       ??_R0?AV?$DrawCommon@MMHHMMEH@@@8 0000000180096970     insertShapeUtilsCore.obj
 0003:0000c9a0       ??_R0?AV?$DrawRectangleAnySize@MMHHMME@@@8 00000001800969a0     insertShapeUtilsCore.obj
 0003:0000c9d8       ??_R0?AV?$DrawMarkerLine@MMHHMMEE@@@8 00000001800969d8     insertShapeUtilsCore.obj
 0003:0000ca08       ??_R0?AV?$DrawLine@MMHHMMEE@@@8 0000000180096a08     insertShapeUtilsCore.obj
 0003:0000ca38       ??_R0?AV?$DrawCommon@MMHHMMEE@@@8 0000000180096a38     insertShapeUtilsCore.obj
 0003:0000ca68       ??_R0?AV?$ScanLineBase@HHH@@@8 0000000180096a68     insertShapeUtilsCore.obj
 0003:0000ca98       ??_R0?AV?$ScanLine@HHH@@@8 0000000180096a98     insertShapeUtilsCore.obj
 0003:0000cac0       ??_R0?AV?$DrawFilledPolygon@MMHHMMEH@@@8 0000000180096ac0     insertShapeUtilsCore.obj
 0003:0000caf8       ??_R0?AV?$ScanLineBase@HHE@@@8 0000000180096af8     insertShapeUtilsCore.obj
 0003:0000cb28       ??_R0?AV?$ScanLine@HHE@@@8 0000000180096b28     insertShapeUtilsCore.obj
 0003:0000cb50       ??_R0?AV?$DrawFilledPolygon@MMHHMMEE@@@8 0000000180096b50     insertShapeUtilsCore.obj
 0003:0000cb88       ??_R0?AV?$DrawPolygon@MMHHMMEH@@@8 0000000180096b88     insertShapeUtilsCore.obj
 0003:0000cbb8       ??_R0?AV?$DrawLine@MMHHMMEH@@@8 0000000180096bb8     insertShapeUtilsCore.obj
 0003:0000cbe8       ??_R0?AV?$DrawPolygon@MMHHMMEE@@@8 0000000180096be8     insertShapeUtilsCore.obj
 0003:0000cc18       ??_R0?AV?$DrawAnyLine@MMHHMMEH@@@8 0000000180096c18     insertShapeUtilsCore.obj
 0003:0000cc48       ??_R0?AV?$DrawAnyLine@MMHHMMEE@@@8 0000000180096c48     insertShapeUtilsCore.obj
 0003:0000cc78       ??_R0?AV?$DrawCircleAnySize@MMHHMMEHH@@@8 0000000180096c78     insertShapeUtilsCore.obj
 0003:0000ccb0       ??_R0?AV?$DrawCircle@MMHHMMEHH@@@8 0000000180096cb0     insertShapeUtilsCore.obj
 0003:0000cce0       ??_R0?AV?$DrawCircleAnySize@MMHHMMEEH@@@8 0000000180096ce0     insertShapeUtilsCore.obj
 0003:0000cd18       ??_R0?AV?$DrawCircle@MMHHMMEEH@@@8 0000000180096d18     insertShapeUtilsCore.obj
 0003:0000cd48       ??_R0?AV?$DrawCircleAnySize@MMHHMMEHE@@@8 0000000180096d48     insertShapeUtilsCore.obj
 0003:0000cd80       ??_R0?AV?$DrawCircle@MMHHMMEHE@@@8 0000000180096d80     insertShapeUtilsCore.obj
 0003:0000cdb0       ??_R0?AV?$DrawCircleAnySize@MMHHMMEEE@@@8 0000000180096db0     insertShapeUtilsCore.obj
 0003:0000cde8       ??_R0?AV?$DrawCircle@MMHHMMEEE@@@8 0000000180096de8     insertShapeUtilsCore.obj
 0003:0000ce18       ??_R0?AV?$DrawFilledRectangleAnySize@NNHHNNE@@@8 0000000180096e18     insertShapeUtilsCore.obj
 0003:0000ce58       ??_R0?AV?$DrawFilledRectangle@NNHHNNE@@@8 0000000180096e58     insertShapeUtilsCore.obj
 0003:0000ce90       ??_R0?AV?$DrawCommon@NNHHNNEH@@@8 0000000180096e90     insertShapeUtilsCore.obj
 0003:0000cec0       ??_R0?AV?$DrawRectangleAnySize@NNHHNNE@@@8 0000000180096ec0     insertShapeUtilsCore.obj
 0003:0000cef8       ??_R0?AV?$DrawMarkerLine@NNHHNNEE@@@8 0000000180096ef8     insertShapeUtilsCore.obj
 0003:0000cf28       ??_R0?AV?$DrawLine@NNHHNNEE@@@8 0000000180096f28     insertShapeUtilsCore.obj
 0003:0000cf58       ??_R0?AV?$DrawCommon@NNHHNNEE@@@8 0000000180096f58     insertShapeUtilsCore.obj
 0003:0000cf88       ??_R0?AV?$DrawFilledPolygon@NNHHNNEH@@@8 0000000180096f88     insertShapeUtilsCore.obj
 0003:0000cfc0       ??_R0?AV?$DrawFilledPolygon@NNHHNNEE@@@8 0000000180096fc0     insertShapeUtilsCore.obj
 0003:0000cff8       ??_R0?AV?$DrawPolygon@NNHHNNEH@@@8 0000000180096ff8     insertShapeUtilsCore.obj
 0003:0000d028       ??_R0?AV?$DrawLine@NNHHNNEH@@@8 0000000180097028     insertShapeUtilsCore.obj
 0003:0000d058       ??_R0?AV?$DrawPolygon@NNHHNNEE@@@8 0000000180097058     insertShapeUtilsCore.obj
 0003:0000d088       ??_R0?AV?$DrawAnyLine@NNHHNNEH@@@8 0000000180097088     insertShapeUtilsCore.obj
 0003:0000d0b8       ??_R0?AV?$DrawAnyLine@NNHHNNEE@@@8 00000001800970b8     insertShapeUtilsCore.obj
 0003:0000d0e8       ??_R0?AV?$DrawCircleAnySize@NNHHNNEHH@@@8 00000001800970e8     insertShapeUtilsCore.obj
 0003:0000d120       ??_R0?AV?$DrawCircle@NNHHNNEHH@@@8 0000000180097120     insertShapeUtilsCore.obj
 0003:0000d150       ??_R0?AV?$DrawCircleAnySize@NNHHNNEEH@@@8 0000000180097150     insertShapeUtilsCore.obj
 0003:0000d188       ??_R0?AV?$DrawCircle@NNHHNNEEH@@@8 0000000180097188     insertShapeUtilsCore.obj
 0003:0000d1b8       ??_R0?AV?$DrawCircleAnySize@NNHHNNEHE@@@8 00000001800971b8     insertShapeUtilsCore.obj
 0003:0000d1f0       ??_R0?AV?$DrawCircle@NNHHNNEHE@@@8 00000001800971f0     insertShapeUtilsCore.obj
 0003:0000d220       ??_R0?AV?$DrawCircleAnySize@NNHHNNEEE@@@8 0000000180097220     insertShapeUtilsCore.obj
 0003:0000d258       ??_R0?AV?$DrawCircle@NNHHNNEEE@@@8 0000000180097258     insertShapeUtilsCore.obj
 0003:0000d288       ??_R0?AV?$DrawFilledRectangleAnySize@EEHHMME@@@8 0000000180097288     insertShapeUtilsCore.obj
 0003:0000d2c8       ??_R0?AV?$DrawFilledRectangle@EEHHMME@@@8 00000001800972c8     insertShapeUtilsCore.obj
 0003:0000d300       ??_R0?AV?$DrawCommon@EEHHMMEH@@@8 0000000180097300     insertShapeUtilsCore.obj
 0003:0000d330       ??_R0?AV?$DrawRectangleAnySize@EEHHMME@@@8 0000000180097330     insertShapeUtilsCore.obj
 0003:0000d368       ??_R0?AV?$DrawMarkerLine@EEHHMMEE@@@8 0000000180097368     insertShapeUtilsCore.obj
 0003:0000d398       ??_R0?AV?$DrawLine@EEHHMMEE@@@8 0000000180097398     insertShapeUtilsCore.obj
 0003:0000d3c8       ??_R0?AV?$DrawCommon@EEHHMMEE@@@8 00000001800973c8     insertShapeUtilsCore.obj
 0003:0000d3f8       ??_R0?AV?$DrawFilledPolygon@EEHHMMEH@@@8 00000001800973f8     insertShapeUtilsCore.obj
 0003:0000d430       ??_R0?AV?$DrawFilledPolygon@EEHHMMEE@@@8 0000000180097430     insertShapeUtilsCore.obj
 0003:0000d468       ??_R0?AV?$DrawPolygon@EEHHMMEH@@@8 0000000180097468     insertShapeUtilsCore.obj
 0003:0000d498       ??_R0?AV?$DrawLine@EEHHMMEH@@@8 0000000180097498     insertShapeUtilsCore.obj
 0003:0000d4c8       ??_R0?AV?$DrawPolygon@EEHHMMEE@@@8 00000001800974c8     insertShapeUtilsCore.obj
 0003:0000d4f8       ??_R0?AV?$DrawAnyLine@EEHHMMEH@@@8 00000001800974f8     insertShapeUtilsCore.obj
 0003:0000d528       ??_R0?AV?$DrawAnyLine@EEHHMMEE@@@8 0000000180097528     insertShapeUtilsCore.obj
 0003:0000d558       ??_R0?AV?$DrawCircleAnySize@EEHHMMEHH@@@8 0000000180097558     insertShapeUtilsCore.obj
 0003:0000d590       ??_R0?AV?$DrawCircle@EEHHMMEHH@@@8 0000000180097590     insertShapeUtilsCore.obj
 0003:0000d5c0       ??_R0?AV?$DrawCircleAnySize@EEHHMMEEH@@@8 00000001800975c0     insertShapeUtilsCore.obj
 0003:0000d5f8       ??_R0?AV?$DrawCircle@EEHHMMEEH@@@8 00000001800975f8     insertShapeUtilsCore.obj
 0003:0000d628       ??_R0?AV?$DrawCircleAnySize@EEHHMMEHE@@@8 0000000180097628     insertShapeUtilsCore.obj
 0003:0000d660       ??_R0?AV?$DrawCircle@EEHHMMEHE@@@8 0000000180097660     insertShapeUtilsCore.obj
 0003:0000d690       ??_R0?AV?$DrawCircleAnySize@EEHHMMEEE@@@8 0000000180097690     insertShapeUtilsCore.obj
 0003:0000d6c8       ??_R0?AV?$DrawCircle@EEHHMMEEE@@@8 00000001800976c8     insertShapeUtilsCore.obj
 0003:0000d6f8       ??_R0?AV?$DrawFilledRectangleAnySize@GGHHMME@@@8 00000001800976f8     insertShapeUtilsCore.obj
 0003:0000d738       ??_R0?AV?$DrawFilledRectangle@GGHHMME@@@8 0000000180097738     insertShapeUtilsCore.obj
 0003:0000d770       ??_R0?AV?$DrawCommon@GGHHMMEH@@@8 0000000180097770     insertShapeUtilsCore.obj
 0003:0000d7a0       ??_R0?AV?$DrawRectangleAnySize@GGHHMME@@@8 00000001800977a0     insertShapeUtilsCore.obj
 0003:0000d7d8       ??_R0?AV?$DrawMarkerLine@GGHHMMEE@@@8 00000001800977d8     insertShapeUtilsCore.obj
 0003:0000d808       ??_R0?AV?$DrawLine@GGHHMMEE@@@8 0000000180097808     insertShapeUtilsCore.obj
 0003:0000d838       ??_R0?AV?$DrawCommon@GGHHMMEE@@@8 0000000180097838     insertShapeUtilsCore.obj
 0003:0000d868       ??_R0?AV?$DrawFilledPolygon@GGHHMMEH@@@8 0000000180097868     insertShapeUtilsCore.obj
 0003:0000d8a0       ??_R0?AV?$DrawFilledPolygon@GGHHMMEE@@@8 00000001800978a0     insertShapeUtilsCore.obj
 0003:0000d8d8       ??_R0?AV?$DrawPolygon@GGHHMMEH@@@8 00000001800978d8     insertShapeUtilsCore.obj
 0003:0000d908       ??_R0?AV?$DrawLine@GGHHMMEH@@@8 0000000180097908     insertShapeUtilsCore.obj
 0003:0000d938       ??_R0?AV?$DrawPolygon@GGHHMMEE@@@8 0000000180097938     insertShapeUtilsCore.obj
 0003:0000d968       ??_R0?AV?$DrawAnyLine@GGHHMMEH@@@8 0000000180097968     insertShapeUtilsCore.obj
 0003:0000d998       ??_R0?AV?$DrawAnyLine@GGHHMMEE@@@8 0000000180097998     insertShapeUtilsCore.obj
 0003:0000d9c8       ??_R0?AV?$DrawCircleAnySize@GGHHMMEHH@@@8 00000001800979c8     insertShapeUtilsCore.obj
 0003:0000da00       ??_R0?AV?$DrawCircle@GGHHMMEHH@@@8 0000000180097a00     insertShapeUtilsCore.obj
 0003:0000da30       ??_R0?AV?$DrawCircleAnySize@GGHHMMEEH@@@8 0000000180097a30     insertShapeUtilsCore.obj
 0003:0000da68       ??_R0?AV?$DrawCircle@GGHHMMEEH@@@8 0000000180097a68     insertShapeUtilsCore.obj
 0003:0000da98       ??_R0?AV?$DrawCircleAnySize@GGHHMMEHE@@@8 0000000180097a98     insertShapeUtilsCore.obj
 0003:0000dad0       ??_R0?AV?$DrawCircle@GGHHMMEHE@@@8 0000000180097ad0     insertShapeUtilsCore.obj
 0003:0000db00       ??_R0?AV?$DrawCircleAnySize@GGHHMMEEE@@@8 0000000180097b00     insertShapeUtilsCore.obj
 0003:0000db38       ??_R0?AV?$DrawCircle@GGHHMMEEE@@@8 0000000180097b38     insertShapeUtilsCore.obj
 0003:0000db68       ??_R0?AV?$DrawFilledRectangleAnySize@FFHHMME@@@8 0000000180097b68     insertShapeUtilsCore.obj
 0003:0000dba8       ??_R0?AV?$DrawFilledRectangle@FFHHMME@@@8 0000000180097ba8     insertShapeUtilsCore.obj
 0003:0000dbe0       ??_R0?AV?$DrawCommon@FFHHMMEH@@@8 0000000180097be0     insertShapeUtilsCore.obj
 0003:0000dc10       ??_R0?AV?$DrawRectangleAnySize@FFHHMME@@@8 0000000180097c10     insertShapeUtilsCore.obj
 0003:0000dc48       ??_R0?AV?$DrawMarkerLine@FFHHMMEE@@@8 0000000180097c48     insertShapeUtilsCore.obj
 0003:0000dc78       ??_R0?AV?$DrawLine@FFHHMMEE@@@8 0000000180097c78     insertShapeUtilsCore.obj
 0003:0000dca8       ??_R0?AV?$DrawCommon@FFHHMMEE@@@8 0000000180097ca8     insertShapeUtilsCore.obj
 0003:0000dcd8       ??_R0?AV?$DrawFilledPolygon@FFHHMMEH@@@8 0000000180097cd8     insertShapeUtilsCore.obj
 0003:0000dd10       ??_R0?AV?$DrawFilledPolygon@FFHHMMEE@@@8 0000000180097d10     insertShapeUtilsCore.obj
 0003:0000dd48       ??_R0?AV?$DrawPolygon@FFHHMMEH@@@8 0000000180097d48     insertShapeUtilsCore.obj
 0003:0000dd78       ??_R0?AV?$DrawLine@FFHHMMEH@@@8 0000000180097d78     insertShapeUtilsCore.obj
 0003:0000dda8       ??_R0?AV?$DrawPolygon@FFHHMMEE@@@8 0000000180097da8     insertShapeUtilsCore.obj
 0003:0000ddd8       ??_R0?AV?$DrawAnyLine@FFHHMMEH@@@8 0000000180097dd8     insertShapeUtilsCore.obj
 0003:0000de08       ??_R0?AV?$DrawAnyLine@FFHHMMEE@@@8 0000000180097e08     insertShapeUtilsCore.obj
 0003:0000de38       ??_R0?AV?$DrawCircleAnySize@FFHHMMEHH@@@8 0000000180097e38     insertShapeUtilsCore.obj
 0003:0000de70       ??_R0?AV?$DrawCircle@FFHHMMEHH@@@8 0000000180097e70     insertShapeUtilsCore.obj
 0003:0000dea0       ??_R0?AV?$DrawCircleAnySize@FFHHMMEEH@@@8 0000000180097ea0     insertShapeUtilsCore.obj
 0003:0000ded8       ??_R0?AV?$DrawCircle@FFHHMMEEH@@@8 0000000180097ed8     insertShapeUtilsCore.obj
 0003:0000df08       ??_R0?AV?$DrawCircleAnySize@FFHHMMEHE@@@8 0000000180097f08     insertShapeUtilsCore.obj
 0003:0000df40       ??_R0?AV?$DrawCircle@FFHHMMEHE@@@8 0000000180097f40     insertShapeUtilsCore.obj
 0003:0000df70       ??_R0?AV?$DrawCircleAnySize@FFHHMMEEE@@@8 0000000180097f70     insertShapeUtilsCore.obj
 0003:0000dfa8       ??_R0?AV?$DrawCircle@FFHHMMEEE@@@8 0000000180097fa8     insertShapeUtilsCore.obj
 0003:0000dfd8       ??_R0?AVtype_info@@@8      0000000180097fd8     MSVCRT:std_type_info_static.obj
 0003:0000dff8       ??_R0?AVbad_alloc@std@@@8  0000000180097ff8     MSVCRT:throw_bad_alloc.obj
 0003:0000e020       ??_R0?AVexception@std@@@8  0000000180098020     MSVCRT:throw_bad_alloc.obj
 0003:0000e048       ??_R0?AVbad_array_new_length@std@@@8 0000000180098048     MSVCRT:throw_bad_alloc.obj
 0003:0000ec50       ?__type_info_root_node@@3U__type_info_node@@A 0000000180098c50     MSVCRT:tncleanup.obj
 0003:0000ec60       ?_OptionsStorage@?1??__local_stdio_printf_options@@9@4_KA 0000000180098c60     MSVCRT:default_local_stdio_options.obj
 0003:0000ec68       ?_OptionsStorage@?1??__local_stdio_scanf_options@@9@4_KA 0000000180098c68     MSVCRT:default_local_stdio_options.obj
 0003:0000ec70       __scrt_current_native_startup_state 0000000180098c70     MSVCRT:utility.obj
 0003:0000ec78       __scrt_native_startup_lock 0000000180098c78     MSVCRT:utility.obj
 0003:0000ecb8       __scrt_debugger_hook_flag  0000000180098cb8     MSVCRT:utility_desktop.obj
 0003:0000ecbc       __favor                    0000000180098cbc     MSVCRT:cpu_disp.obj
 0003:0000ecc0       ?_OptionsStorage@?1??__local_stdio_printf_options@@9@9 0000000180098cc0     <common>
 0003:0000ecc8       __dyn_tls_init_callback    0000000180098cc8     <common>

 entry point at        0001:00078d14

 Static symbols

 0000:00000000       .debug$S                   0000000180000000     sf_runtime:sf_runtime.dll
 0000:00000000       .debug$S                   0000000180000000     libmx:libmx.dll
 0000:00000000       .debug$S                   0000000180000000     libmx:libmx.dll
 0000:00000000       .debug$S                   0000000180000000     libmx:libmx.dll
 0000:00000000       .debug$S                   0000000180000000     libmx:libmx.dll
 0000:00000000       .debug$S                   0000000180000000     libmx:libmx.dll
 0000:00000000       .debug$S                   0000000180000000     libmx:libmx.dll
 0000:00000000       .debug$S                   0000000180000000     libmx:libmx.dll
 0000:00000000       .debug$S                   0000000180000000     libmx:libmx.dll
 0000:00000000       .debug$S                   0000000180000000     libmx:libmx.dll
 0000:00000000       .debug$S                   0000000180000000     libmx:libmx.dll
 0000:00000000       .debug$S                   0000000180000000     libmex:libmex.dll
 0000:00000000       .debug$S                   0000000180000000     libmex:libmex.dll
 0000:00000000       .debug$S                   0000000180000000     libmex:libmex.dll
 0000:00000000       .debug$S                   0000000180000000     libmex:libmex.dll
 0000:00000000       .debug$S                   0000000180000000     libmex:libmex.dll
 0000:00000000       .debug$S                   0000000180000000     libmex:libmex.dll
 0000:00000000       .debug$S                   0000000180000000     libmex:libmex.dll
 0000:00000000       .debug$S                   0000000180000000     libut:libut.dll
 0000:00000000       .debug$S                   0000000180000000     libut:libut.dll
 0000:00000000       .debug$S                   0000000180000000     libmwmathutil:libmwmathutil.dll
 0000:00000000       .debug$S                   0000000180000000     libmwmathutil:libmwmathutil.dll
 0000:00000000       .debug$S                   0000000180000000     libmwmathutil:libmwmathutil.dll
 0000:00000000       .debug$S                   0000000180000000     libmwmathutil:libmwmathutil.dll
 0000:00000000       .debug$S                   0000000180000000     libmwmathutil:libmwmathutil.dll
 0000:00000000       .debug$S                   0000000180000000     libmwmathutil:libmwmathutil.dll
 0000:00000000       .debug$S                   0000000180000000     libmwmathutil:libmwmathutil.dll
 0000:00000000       .debug$S                   0000000180000000     libmwmathutil:libmwmathutil.dll
 0000:00000000       .debug$S                   0000000180000000     libmwmathutil:libmwmathutil.dll
 0000:00000000       .debug$S                   0000000180000000     libmwmathutil:libmwmathutil.dll
 0000:00000000       .debug$S                   0000000180000000     libmwmathutil:libmwmathutil.dll
 0000:00000000       .debug$S                   0000000180000000     CameraCalImageCapture_sfun.exp
 0000:00000000       .debug$S                   0000000180000000     libemlrt:libemlrt.dll
 0000:00000000       .debug$S                   0000000180000000     libemlrt:libemlrt.dll
 0000:00000000       .debug$S                   0000000180000000     libemlrt:libemlrt.dll
 0000:00000000       .debug$S                   0000000180000000     libemlrt:libemlrt.dll
 0000:00000000       .debug$S                   0000000180000000     libemlrt:libemlrt.dll
 0000:00000000       .debug$S                   0000000180000000     libemlrt:libemlrt.dll
 0000:00000000       .debug$S                   0000000180000000     ucrt:api-ms-win-crt-runtime-l1-1-0.dll
 0000:00000000       .debug$S                   0000000180000000     ucrt:api-ms-win-crt-runtime-l1-1-0.dll
 0000:00000000       .debug$S                   0000000180000000     ucrt:api-ms-win-crt-runtime-l1-1-0.dll
 0000:00000000       .debug$S                   0000000180000000     ucrt:api-ms-win-crt-runtime-l1-1-0.dll
 0000:00000000       .debug$S                   0000000180000000     ucrt:api-ms-win-crt-runtime-l1-1-0.dll
 0000:00000000       .debug$S                   0000000180000000     ucrt:api-ms-win-crt-runtime-l1-1-0.dll
 0000:00000000       .debug$S                   0000000180000000     ucrt:api-ms-win-crt-runtime-l1-1-0.dll
 0000:00000000       .debug$S                   0000000180000000     ucrt:api-ms-win-crt-runtime-l1-1-0.dll
 0000:00000000       .debug$S                   0000000180000000     ucrt:api-ms-win-crt-runtime-l1-1-0.dll
 0000:00000000       .debug$S                   0000000180000000     ucrt:api-ms-win-crt-runtime-l1-1-0.dll
 0000:00000000       .debug$S                   0000000180000000     ucrt:api-ms-win-crt-runtime-l1-1-0.dll
 0000:00000000       .debug$S                   0000000180000000     ucrt:api-ms-win-crt-runtime-l1-1-0.dll
 0000:00000000       .debug$S                   0000000180000000     ucrt:api-ms-win-crt-heap-l1-1-0.dll
 0000:00000000       .debug$S                   0000000180000000     ucrt:api-ms-win-crt-math-l1-1-0.dll
 0000:00000000       .debug$S                   0000000180000000     ucrt:api-ms-win-crt-math-l1-1-0.dll
 0000:00000000       .debug$S                   0000000180000000     ucrt:api-ms-win-crt-math-l1-1-0.dll
 0000:00000000       .debug$S                   0000000180000000     ucrt:api-ms-win-crt-math-l1-1-0.dll
 0000:00000000       .debug$S                   0000000180000000     ucrt:api-ms-win-crt-string-l1-1-0.dll
 0000:00000000       .debug$S                   0000000180000000     ucrt:api-ms-win-crt-heap-l1-1-0.dll
 0000:00000000       .debug$S                   0000000180000000     ucrt:api-ms-win-crt-heap-l1-1-0.dll
 0000:00000000       .debug$S                   0000000180000000     ucrt:api-ms-win-crt-stdio-l1-1-0.dll
 0000:00000000       .debug$S                   0000000180000000     ucrt:api-ms-win-crt-string-l1-1-0.dll
 0000:00000000       .debug$S                   0000000180000000     ucrt:api-ms-win-crt-string-l1-1-0.dll
 0000:00000000       .debug$S                   0000000180000000     libemlrt:libemlrt.dll
 0000:00000000       .debug$S                   0000000180000000     vcruntime:VCRUNTIME140.dll
 0000:00000000       .debug$S                   0000000180000000     vcruntime:VCRUNTIME140.dll
 0000:00000000       .debug$S                   0000000180000000     vcruntime:VCRUNTIME140.dll
 0000:00000000       .debug$S                   0000000180000000     vcruntime:VCRUNTIME140.dll
 0000:00000000       .debug$S                   0000000180000000     vcruntime:VCRUNTIME140.dll
 0000:00000000       .debug$S                   0000000180000000     vcruntime:VCRUNTIME140.dll
 0000:00000000       .debug$S                   0000000180000000     vcruntime:VCRUNTIME140.dll
 0000:00000000       .debug$S                   0000000180000000     vcruntime:VCRUNTIME140.dll
 0000:00000000       .debug$S                   0000000180000000     vcruntime:VCRUNTIME140.dll
 0000:00000000       .debug$S                   0000000180000000     libemlrt:libemlrt.dll
 0000:00000000       .debug$S                   0000000180000000     kernel32:KERNEL32.dll
 0000:00000000       .debug$S                   0000000180000000     kernel32:KERNEL32.dll
 0000:00000000       .debug$S                   0000000180000000     kernel32:KERNEL32.dll
 0000:00000000       .debug$S                   0000000180000000     kernel32:KERNEL32.dll
 0000:00000000       .debug$S                   0000000180000000     kernel32:KERNEL32.dll
 0000:00000000       .debug$S                   0000000180000000     kernel32:KERNEL32.dll
 0000:00000000       .debug$S                   0000000180000000     kernel32:KERNEL32.dll
 0000:00000000       .debug$S                   0000000180000000     kernel32:KERNEL32.dll
 0000:00000000       .debug$S                   0000000180000000     kernel32:KERNEL32.dll
 0000:00000000       .debug$S                   0000000180000000     kernel32:KERNEL32.dll
 0000:00000000       .debug$S                   0000000180000000     kernel32:KERNEL32.dll
 0000:00000000       .debug$S                   0000000180000000     kernel32:KERNEL32.dll
 0000:00000000       .debug$S                   0000000180000000     kernel32:KERNEL32.dll
 0000:00000000       .debug$S                   0000000180000000     kernel32:KERNEL32.dll
 0000:00000000       .debug$S                   0000000180000000     kernel32:KERNEL32.dll
 0000:00000000       .debug$S                   0000000180000000     kernel32:KERNEL32.dll
 0000:00000000       .debug$S                   0000000180000000     kernel32:KERNEL32.dll
 0000:00000000       .debug$S                   0000000180000000     libemlrt:libemlrt.dll
 0000:00000000       .debug$S                   0000000180000000     libemlrt:libemlrt.dll
 0000:00000000       .debug$S                   0000000180000000     libcovrt:libcovrt.dll
 0000:00000000       .debug$S                   0000000180000000     libcovrt:libcovrt.dll
 0002:fff84000       __guard_fids__guard_icall_checks_enforced 0000000180000000     MSVCRT:guard_support.obj
 0002:fff84000       __guard_fids__             0000000180000000     MSVCRT:guard_support.obj
 0000:00000000       .debug$S                   0000000180000000     libcovrt:libcovrt.dll
 0000:00000000       .debug$S                   0000000180000000     libcovrt:libcovrt.dll
 0000:00000000       .debug$S                   0000000180000000     libcovrt:libcovrt.dll
 0000:00000000       .debug$S                   0000000180000000     libcovrt:libcovrt.dll
 0000:00000000       .debug$S                   0000000180000000     libcovrt:libcovrt.dll
 0000:00000000       .debug$S                   0000000180000000     libcovrt:libcovrt.dll
 0000:00000000       .debug$S                   0000000180000000     libcovrt:libcovrt.dll
 0000:00000000       .debug$S                   0000000180000000     libcovrt:libcovrt.dll
 0002:fff84000       __guard_fids___scrt_set_unhandled_exception_filter 0000000180000000     MSVCRT:utility_desktop.obj
 0000:00000000       .debug$S                   0000000180000000     libcovrt:libcovrt.dll
 0000:00000000       .debug$S                   0000000180000000     libcovrt:libcovrt.dll
 0000:00000000       .debug$S                   0000000180000000     libcovrt:libcovrt.dll
 0000:00000000       .debug$S                   0000000180000000     libmx:libmx.dll
 0000:00000000       .debug$S                   0000000180000000     libmx:libmx.dll
 0000:00000000       .debug$S                   0000000180000000     libmx:libmx.dll
 0000:00000000       .debug$S                   0000000180000000     libmx:libmx.dll
 0000:00000000       .debug$S                   0000000180000000     libmx:libmx.dll
 0000:00000000       .debug$S                   0000000180000000     libmx:libmx.dll
 0000:00000000       .debug$S                   0000000180000000     libmx:libmx.dll
 0000:00000000       .debug$S                   0000000180000000     libmx:libmx.dll
 0000:00000000       .debug$S                   0000000180000000     libmx:libmx.dll
 0000:00000000       .debug$S                   0000000180000000     sf_runtime:sf_runtime.dll
 0000:00000000       .debug$S                   0000000180000000     libmwrgb2gray_tbb:libmwrgb2gray_tbb.dll
 0000:00000000       .debug$S                   0000000180000000     sf_runtime:sf_runtime.dll
 0000:00000000       .debug$S                   0000000180000000     sf_runtime:sf_runtime.dll
 0000:00000000       .debug$S                   0000000180000000     sf_runtime:sf_runtime.dll
 0000:00000000       .debug$S                   0000000180000000     libmwreadAprilTag:libmwreadAprilTag.dll
 0000:00000000       .debug$S                   0000000180000000     sf_runtime:sf_runtime.dll
 0000:00000000       .debug$S                   0000000180000000     libmwreadAprilTag:libmwreadAprilTag.dll
 0000:00000000       .debug$S                   0000000180000000     sf_runtime:sf_runtime.dll
 0000:00000000       .debug$S                   0000000180000000     libmwreadAprilTag:libmwreadAprilTag.dll
 0002:fff84000       __guard_fids__             0000000180000000     MSVCRT:std_type_info_static.obj
 0000:00000000       .debug$S                   0000000180000000     sf_runtime:sf_runtime.dll
 0000:00000000       .debug$S                   0000000180000000     sf_runtime:sf_runtime.dll
 0000:00000000       .debug$S                   0000000180000000     libmwblas:libmwblas.dll
 0000:00000000       .debug$S                   0000000180000000     sf_runtime:sf_runtime.dll
 0000:00000000       .debug$S                   0000000180000000     sf_runtime:sf_runtime.dll
 0000:00000000       .debug$S                   0000000180000000     sf_runtime:sf_runtime.dll
 0000:00000000       .debug$S                   0000000180000000     sf_runtime:sf_runtime.dll
 0000:00000000       .debug$S                   0000000180000000     sf_runtime:sf_runtime.dll
 0000:00000000       .debug$S                   0000000180000000     sf_runtime:sf_runtime.dll
 0000:00000000       .debug$S                   0000000180000000     sf_runtime:sf_runtime.dll
 0000:00000000       .debug$S                   0000000180000000     sf_runtime:sf_runtime.dll
 0000:00000000       .debug$S                   0000000180000000     sf_runtime:sf_runtime.dll
 0000:00000000       .debug$S                   0000000180000000     sf_runtime:sf_runtime.dll
 0000:00000000       .debug$S                   0000000180000000     sf_runtime:sf_runtime.dll
 0000:00000000       .debug$S                   0000000180000000     sf_runtime:sf_runtime.dll
 0000:00000000       .debug$S                   0000000180000000     sf_runtime:sf_runtime.dll
 0000:00000000       .debug$S                   0000000180000000     sf_runtime:sf_runtime.dll
 0000:00000000       .debug$S                   0000000180000000     sf_runtime:sf_runtime.dll
 0000:00000000       .debug$S                   0000000180000000     sf_runtime:sf_runtime.dll
 0000:00000000       .debug$S                   0000000180000000     sf_runtime:sf_runtime.dll
 0000:00000000       .debug$S                   0000000180000000     sf_runtime:sf_runtime.dll
 0000:00000000       .debug$S                   0000000180000000     sf_runtime:sf_runtime.dll
 0000:00000000       .debug$S                   0000000180000000     sf_runtime:sf_runtime.dll
 0000:00000000       .debug$S                   0000000180000000     sf_runtime:sf_runtime.dll
 0000:00000000       .debug$S                   0000000180000000     sf_runtime:sf_runtime.dll
 0000:00000000       .debug$S                   0000000180000000     sf_runtime:sf_runtime.dll
 0002:fff84000       __guard_fids_?dllmain_dispatch@@YAHQEAUHINSTANCE__@@KQEAX@Z 0000000180000000     MSVCRT:dll_dllmain.obj
 0000:00000000       .debug$S                   0000000180000000     sf_runtime:sf_runtime.dll
 0000:00000000       .debug$S                   0000000180000000     sf_runtime:sf_runtime.dll
 0000:00000000       .debug$S                   0000000180000000     sf_runtime:sf_runtime.dll
 0000:00000000       .debug$S                   0000000180000000     sf_runtime:sf_runtime.dll
 0002:fff84000       __guard_fids__             0000000180000000     MSVCRT:throw_bad_alloc.obj
 0002:fff84000       __guard_fids__             0000000180000000     MSVCRT:throw_bad_alloc.obj
 0002:fff84000       __guard_fids__             0000000180000000     MSVCRT:throw_bad_alloc.obj
 0000:00000000       .debug$S                   0000000180000000     sf_runtime:sf_runtime.dll
 0000:00000000       .debug$S                   0000000180000000     sf_runtime:sf_runtime.dll
 0000:00000000       .debug$S                   0000000180000000     sf_runtime:sf_runtime.dll
 0000:00000000       .debug$S                   0000000180000000     sf_runtime:sf_runtime.dll
 0000:00000000       .debug$S                   0000000180000000     sf_runtime:sf_runtime.dll
 0000:00000000       .debug$S                   0000000180000000     sf_runtime:sf_runtime.dll
 0000:00000000       .debug$S                   0000000180000000     sf_runtime:sf_runtime.dll
 0000:00000000       .debug$S                   0000000180000000     sf_runtime:sf_runtime.dll
 0000:00000000       .debug$S                   0000000180000000     sf_runtime:sf_runtime.dll
 0000:00000000       .debug$S                   0000000180000000     libmx:libmx.dll
 0001:00001150       initialize_c2_CameraCalImageCapture 0000000180002150 f   c2_CameraCalImageCapture.obj
 0001:00001210       initialize_params_c2_CameraCalImageCapture 0000000180002210 f   c2_CameraCalImageCapture.obj
 0001:00001220       mdl_start_c2_CameraCalImageCapture 0000000180002220 f   c2_CameraCalImageCapture.obj
 0001:00001230       mdl_terminate_c2_CameraCalImageCapture 0000000180002230 f   c2_CameraCalImageCapture.obj
 0001:00001240       mdl_setup_runtime_resources_c2_CameraCalImageCapture 0000000180002240 f   c2_CameraCalImageCapture.obj
 0001:00001520       mdl_cleanup_runtime_resources_c2_CameraCalImageCapture 0000000180002520 f   c2_CameraCalImageCapture.obj
 0001:00001560       enable_c2_CameraCalImageCapture 0000000180002560 f   c2_CameraCalImageCapture.obj
 0001:00001590       disable_c2_CameraCalImageCapture 0000000180002590 f   c2_CameraCalImageCapture.obj
 0001:000015c0       sf_gateway_c2_CameraCalImageCapture 00000001800025c0 f   c2_CameraCalImageCapture.obj
 0001:00004ad0       c2_do_animation_call_c2_CameraCalImageCapture 0000000180005ad0 f   c2_CameraCalImageCapture.obj
 0001:00004b10       get_sim_state_c2_CameraCalImageCapture 0000000180005b10 f   c2_CameraCalImageCapture.obj
 0001:00004c80       set_sim_state_c2_CameraCalImageCapture 0000000180005c80 f   c2_CameraCalImageCapture.obj
 0001:00004d90       initSimStructsc2_CameraCalImageCapture 0000000180005d90 f   c2_CameraCalImageCapture.obj
 0001:00004da0       c2_cameraIntrinsicsImpl_cameraParameters 0000000180005da0 f   c2_CameraCalImageCapture.obj
 0001:00006c00       c2_validateattributes      0000000180007c00 f   c2_CameraCalImageCapture.obj
 0001:00006fb0       c2_any                     0000000180007fb0 f   c2_CameraCalImageCapture.obj
 0001:000070e0       c2_CameraParametersImpl_checkImageSize 00000001800080e0 f   c2_CameraCalImageCapture.obj
 0001:00007460       c2_readAprilTag            0000000180008460 f   c2_CameraCalImageCapture.obj
 0001:00008910       c2_check_forloop_overflow_error 0000000180009910 f   c2_CameraCalImageCapture.obj
 0001:00008b20       c2_readAprilTagIDPose      0000000180009b20 f   c2_CameraCalImageCapture.obj
 0001:0000dab0       c2_constrainToRotationMatrix3D 000000018000eab0 f   c2_CameraCalImageCapture.obj
 0001:0000e470       c2_xzsvdc                  000000018000f470 f   c2_CameraCalImageCapture.obj
 0001:00011710       c2_xnrm2                   0000000180012710 f   c2_CameraCalImageCapture.obj
 0001:000119d0       c2_xdotc                   00000001800129d0 f   c2_CameraCalImageCapture.obj
 0001:00011c40       c2_b_xnrm2                 0000000180012c40 f   c2_CameraCalImageCapture.obj
 0001:00011eb0       c2_det                     0000000180012eb0 f   c2_CameraCalImageCapture.obj
 0001:00012c70       c2_norm                    0000000180013c70 f   c2_CameraCalImageCapture.obj
 0001:00012fe0       c2_b_xzsvdc                0000000180013fe0 f   c2_CameraCalImageCapture.obj
 0001:00015840       c2_make_bitarray           0000000180016840 f   c2_CameraCalImageCapture.obj
 0001:00015a70       c2_num_true                0000000180016a70 f   c2_CameraCalImageCapture.obj
 0001:00015bb0       c2_emlrt_marshallOut       0000000180016bb0 f   c2_CameraCalImageCapture.obj
 0001:00015c40       c2_emlrt_marshallIn        0000000180016c40 f   c2_CameraCalImageCapture.obj
 0001:00015cb0       c2_b_emlrt_marshallIn      0000000180016cb0 f   c2_CameraCalImageCapture.obj
 0001:00015db0       c2_c_emlrt_marshallIn      0000000180016db0 f   c2_CameraCalImageCapture.obj
 0001:00015e20       c2_d_emlrt_marshallIn      0000000180016e20 f   c2_CameraCalImageCapture.obj
 0001:00015eb0       c2_chart_data_browse_helper 0000000180016eb0 f   c2_CameraCalImageCapture.obj
 0001:00015fa0       c2_b_sqrt                  0000000180016fa0 f   c2_CameraCalImageCapture.obj
 0001:00016220       c2_d_xscal                 0000000180017220 f   c2_CameraCalImageCapture.obj
 0001:00016400       c2_d_xaxpy                 0000000180017400 f   c2_CameraCalImageCapture.obj
 0001:00016560       c2_e_xscal                 0000000180017560 f   c2_CameraCalImageCapture.obj
 0001:000166f0       c2_e_xaxpy                 00000001800176f0 f   c2_CameraCalImageCapture.obj
 0001:00016850       c2_f_xaxpy                 0000000180017850 f   c2_CameraCalImageCapture.obj
 0001:000169b0       c2_f_xscal                 00000001800179b0 f   c2_CameraCalImageCapture.obj
 0001:00016b40       c2_b_xrot                  0000000180017b40 f   c2_CameraCalImageCapture.obj
 0001:00016c70       c2_b_xswap                 0000000180017c70 f   c2_CameraCalImageCapture.obj
 0001:00016d40       c2_c_nullAssignment        0000000180017d40 f   c2_CameraCalImageCapture.obj
 0001:000178a0       c2_d_nullAssignment        00000001800188a0 f   c2_CameraCalImageCapture.obj
 0001:00018f30       c2_emxEnsureCapacity_images_geotra 0000000180019f30 f   c2_CameraCalImageCapture.obj
 0001:000190a0       c2_emxInitStruct_cameraParameters 000000018001a0a0 f   c2_CameraCalImageCapture.obj
 0001:000190f0       c2_emxInitStruct_vision_internal_c 000000018001a0f0 f   c2_CameraCalImageCapture.obj
 0001:000191a0       c2_emxInit_real_T          000000018001a1a0 f   c2_CameraCalImageCapture.obj
 0001:000192a0       c2_emxInit_char_T          000000018001a2a0 f   c2_CameraCalImageCapture.obj
 0001:000193a0       c2_emxInit_real_T1         000000018001a3a0 f   c2_CameraCalImageCapture.obj
 0001:000194a0       c2_emxInitStruct_rigidtform3d 000000018001a4a0 f   c2_CameraCalImageCapture.obj
 0001:000194f0       c2_emxInit_images_geotrans_interna 000000018001a4f0 f   c2_CameraCalImageCapture.obj
 0001:000195f0       c2_emxFree_real_T          000000018001a5f0 f   c2_CameraCalImageCapture.obj
 0001:00019670       c2_emxFreeStruct_vision_internal_c 000000018001a670 f   c2_CameraCalImageCapture.obj
 0001:000196d0       c2_emxFree_char_T          000000018001a6d0 f   c2_CameraCalImageCapture.obj
 0001:00019750       c2_emxFreeStruct_cameraParameters 000000018001a750 f   c2_CameraCalImageCapture.obj
 0001:00019780       c2_emxFree_images_geotrans_interna 000000018001a780 f   c2_CameraCalImageCapture.obj
 0001:00019800       c2_emxFreeStruct_rigidtform3d 000000018001a800 f   c2_CameraCalImageCapture.obj
 0001:00019830       c2_emxEnsureCapacity_real_T 000000018001a830 f   c2_CameraCalImageCapture.obj
 0001:000199a0       c2_emxEnsureCapacity_char_T 000000018001a9a0 f   c2_CameraCalImageCapture.obj
 0001:00019b10       c2_emxEnsureCapacity_real_T1 000000018001ab10 f   c2_CameraCalImageCapture.obj
 0001:00019c80       c2_emxFreeStruct_cell_wrap_23 000000018001ac80 f   c2_CameraCalImageCapture.obj
 0001:00019cb0       c2_emxTrim_cell_wrap_23    000000018001acb0 f   c2_CameraCalImageCapture.obj
 0001:00019d20       c2_emxInitStruct_cell_wrap_23 000000018001ad20 f   c2_CameraCalImageCapture.obj
 0001:00019d70       c2_emxExpand_cell_wrap_23  000000018001ad70 f   c2_CameraCalImageCapture.obj
 0001:00019de0       c2_emxEnsureCapacity_cell_wrap_23 000000018001ade0 f   c2_CameraCalImageCapture.obj
 0001:00019fc0       c2_emxEnsureCapacity_int32_T 000000018001afc0 f   c2_CameraCalImageCapture.obj
 0001:0001a130       c2_b_emxEnsureCapacity_images_geotra 000000018001b130 f   c2_CameraCalImageCapture.obj
 0001:0001a2a0       c2_emxInit_cell_wrap_23    000000018001b2a0 f   c2_CameraCalImageCapture.obj
 0001:0001a3a0       c2_emxInit_int32_T         000000018001b3a0 f   c2_CameraCalImageCapture.obj
 0001:0001a4a0       c2_b_emxInit_images_geotrans_interna 000000018001b4a0 f   c2_CameraCalImageCapture.obj
 0001:0001a5a0       c2_emxInit_boolean_T       000000018001b5a0 f   c2_CameraCalImageCapture.obj
 0001:0001a6a0       c2_emxFree_cell_wrap_23    000000018001b6a0 f   c2_CameraCalImageCapture.obj
 0001:0001a7c0       c2_emxFree_int32_T         000000018001b7c0 f   c2_CameraCalImageCapture.obj
 0001:0001a840       c2_emxFree_boolean_T       000000018001b840 f   c2_CameraCalImageCapture.obj
 0001:0001a8c0       c2_emxEnsureCapacity_boolean_T 000000018001b8c0 f   c2_CameraCalImageCapture.obj
 0001:0001aa30       c2_emxCopyStruct_cell_wrap_23 000000018001ba30 f   c2_CameraCalImageCapture.obj
 0001:0001aa80       c2_emxCopy_char_T          000000018001ba80 f   c2_CameraCalImageCapture.obj
 0001:0001abe0       c2__s32_add__              000000018001bbe0 f   c2_CameraCalImageCapture.obj
 0001:0001ac50       init_dsm_address_info      000000018001bc50 f   c2_CameraCalImageCapture.obj
 0001:0001ac60       init_simulink_io_address   000000018001bc60 f   c2_CameraCalImageCapture.obj
 0001:0001af60       sf_get_sim_state_info_c2_CameraCalImageCapture 000000018001bf60 f   c2_CameraCalImageCapture.obj
 0001:0001b020       sf_opaque_initialize_c2_CameraCalImageCapture 000000018001c020 f   c2_CameraCalImageCapture.obj
 0001:0001b050       sf_opaque_enable_c2_CameraCalImageCapture 000000018001c050 f   c2_CameraCalImageCapture.obj
 0001:0001b070       sf_opaque_disable_c2_CameraCalImageCapture 000000018001c070 f   c2_CameraCalImageCapture.obj
 0001:0001b090       sf_opaque_gateway_c2_CameraCalImageCapture 000000018001c090 f   c2_CameraCalImageCapture.obj
 0001:0001b0b0       sf_opaque_get_sim_state_c2_CameraCalImageCapture 000000018001c0b0 f   c2_CameraCalImageCapture.obj
 0001:0001b0e0       sf_opaque_set_sim_state_c2_CameraCalImageCapture 000000018001c0e0 f   c2_CameraCalImageCapture.obj
 0001:0001b110       sf_opaque_cleanup_runtime_resources_c2_CameraCalImageCapture 000000018001c110 f   c2_CameraCalImageCapture.obj
 0001:0001b1b0       sf_opaque_mdl_start_c2_CameraCalImageCapture 000000018001c1b0 f   c2_CameraCalImageCapture.obj
 0001:0001b1d0       sf_opaque_mdl_terminate_c2_CameraCalImageCapture 000000018001c1d0 f   c2_CameraCalImageCapture.obj
 0001:0001b1f0       mdlProcessParameters_c2_CameraCalImageCapture 000000018001c1f0 f   c2_CameraCalImageCapture.obj
 0001:0001b4a0       mdlSetWorkWidths_c2_CameraCalImageCapture 000000018001c4a0 f   c2_CameraCalImageCapture.obj
 0001:0001b530       mdlRTW_c2_CameraCalImageCapture 000000018001c530 f   c2_CameraCalImageCapture.obj
 0001:0001b570       mdlSetupRuntimeResources_c2_CameraCalImageCapture 000000018001c570 f   c2_CameraCalImageCapture.obj
 0001:0001dfe4       $LN197                     000000018001efe4     CameraCalImageCapture_sfun_registry.obj
 0001:0001ee44       $LN17                      000000018001fe44     CameraCalImageCapture_sfun_registry.obj
 0001:0001f544       $LN26                      0000000180020544     CameraCalImageCapture_sfun_registry.obj
 0001:0001fc24       $LN23                      0000000180020c24     CameraCalImageCapture_sfun_registry.obj
 0001:000207dc       $LN26                      00000001800217dc     CameraCalImageCapture_sfun_registry.obj
 0001:00023d40       ProcessMexSfunctionCmdLineCall 0000000180024d40 f   CameraCalImageCapture_sfun_registry.obj
 0001:00024050       mdlSetWorkWidths           0000000180025050 f   CameraCalImageCapture_sfun_registry.obj
 0001:000240a0       mdlProcessParameters       00000001800250a0 f   CameraCalImageCapture_sfun_registry.obj
 0001:000240d0       mdl_setup_runtime_resources_processing 00000001800250d0 f   CameraCalImageCapture_sfun_registry.obj
 0001:00024130       mdlSetupRuntimeResources   0000000180025130 f   CameraCalImageCapture_sfun_registry.obj
 0001:00024160       mdl_cleanup_runtime_resources_processing 0000000180025160 f   CameraCalImageCapture_sfun_registry.obj
 0001:00024220       mdlCleanupRuntimeResources 0000000180025220 f   CameraCalImageCapture_sfun_registry.obj
 0001:00024250       mdl_start_processing       0000000180025250 f   CameraCalImageCapture_sfun_registry.obj
 0001:00024290       mdlStart                   0000000180025290 f   CameraCalImageCapture_sfun_registry.obj
 0001:000242c0       mdl_terminate_processing   00000001800252c0 f   CameraCalImageCapture_sfun_registry.obj
 0001:00024300       mdlTerminate               0000000180025300 f   CameraCalImageCapture_sfun_registry.obj
 0001:00024330       mdlInitializeSizes         0000000180025330 f   CameraCalImageCapture_sfun_registry.obj
 0001:00024360       mdlInitializeSampleTimes   0000000180025360 f   CameraCalImageCapture_sfun_registry.obj
 0001:00024390       mdl_outputs_continuous_legacy 0000000180025390 f   CameraCalImageCapture_sfun_registry.obj
 0001:00024490       mdl_outputs_processing     0000000180025490 f   CameraCalImageCapture_sfun_registry.obj
 0001:000245d0       mdl_zeroCrossings_processing 00000001800255d0 f   CameraCalImageCapture_sfun_registry.obj
 0001:00024610       mdlZeroCrossings           0000000180025610 f   CameraCalImageCapture_sfun_registry.obj
 0001:00024640       mdl_derivatives_processing 0000000180025640 f   CameraCalImageCapture_sfun_registry.obj
 0001:00024690       mdlDerivatives             0000000180025690 f   CameraCalImageCapture_sfun_registry.obj
 0001:000246c0       mdl_initialize_conditions_processing 00000001800256c0 f   CameraCalImageCapture_sfun_registry.obj
 0001:00024710       mdlInitializeConditions    0000000180025710 f   CameraCalImageCapture_sfun_registry.obj
 0001:00024740       mdl_ext_mode_exec_processing 0000000180025740 f   CameraCalImageCapture_sfun_registry.obj
 0001:00024780       mdlExtModeExec             0000000180025780 f   CameraCalImageCapture_sfun_registry.obj
 0001:000247b0       mdlRTW                     00000001800257b0 f   CameraCalImageCapture_sfun_registry.obj
 0001:000247f0       mdl_enable_processing      00000001800257f0 f   CameraCalImageCapture_sfun_registry.obj
 0001:00024830       mdlEnable                  0000000180025830 f   CameraCalImageCapture_sfun_registry.obj
 0001:00024860       mdl_disable_processing     0000000180025860 f   CameraCalImageCapture_sfun_registry.obj
 0001:000248a0       mdlDisable                 00000001800258a0 f   CameraCalImageCapture_sfun_registry.obj
 0001:000248d0       mdlOutputs                 00000001800258d0 f   CameraCalImageCapture_sfun_registry.obj
 0001:00024900       mdl_update_processing      0000000180025900 f   CameraCalImageCapture_sfun_registry.obj
 0001:00024950       mdlUpdate                  0000000180025950 f   CameraCalImageCapture_sfun_registry.obj
 0001:00024b40       mdlGetTimeOfNextVarHit     0000000180025b40 f   CameraCalImageCapture_sfun_registry.obj
 0001:00024b90       _RegNumInputPortsCB        0000000180025b90 f   CameraCalImageCapture_sfun_registry.obj
 0001:00024c10       _RegNumOutputPortsCB       0000000180025c10 f   CameraCalImageCapture_sfun_registry.obj
 0001:00024c90       _CreateSimStruct           0000000180025c90 f   CameraCalImageCapture_sfun_registry.obj
 0001:00024ec0       _ProcessMexSfunctionCmdLineCall 0000000180025ec0 f   CameraCalImageCapture_sfun_registry.obj
 0001:00025930       ReportIndexOutOfBoundsError 0000000180026930 f   CameraCalImageCapture_sfun_registry.obj
 0001:0007879c       capture_current_context    000000018007979c f   MSVCRT:gs_report.obj
 0001:0007880c       capture_previous_context   000000018007980c f   MSVCRT:gs_report.obj
 0001:00078900       $$000000                   0000000180079900     MSVCRT:amdsecgs.obj
 0001:000789c0       ?dllmain_crt_dispatch@@YAHQEAUHINSTANCE__@@KQEAX@Z 00000001800799c0 f   MSVCRT:dll_dllmain.obj
 0001:00078a10       ?dllmain_crt_process_attach@@YAHQEAUHINSTANCE__@@QEAX@Z 0000000180079a10 f   MSVCRT:dll_dllmain.obj
 0001:00078b2c       ?dllmain_crt_process_detach@@YAH_N@Z 0000000180079b2c f   MSVCRT:dll_dllmain.obj
 0001:00078bbc       ?dllmain_dispatch@@YAHQEAUHINSTANCE__@@KQEAX@Z 0000000180079bbc f   MSVCRT:dll_dllmain.obj
 0001:00078cf0       ?dllmain_raw@@YAHQEAUHINSTANCE__@@KQEAX@Z 0000000180079cf0 f   MSVCRT:dll_dllmain.obj
 0001:00078fe0       __get_entropy              0000000180079fe0 f   MSVCRT:gs_support.obj
 0001:000791b4       ?find_pe_section@@YAPEAU_IMAGE_SECTION_HEADER@@QEAE_K@Z 000000018007a1b4 f   MSVCRT:utility.obj
 0001:00079208       ?is_potentially_valid_image_base@@YA_NQEAX@Z 000000018007a208 f   MSVCRT:utility.obj
 0001:00079c20       $$000000                   000000018007ac20     MSVCRT:guard_dispatch.obj
 0001:00079c40       ?dtor$0@?0???$InstantiateShape@EEHHMM@@YAPEAVDrawBase@@PEAEPEAH0PEAM1HEHHHH1HEE011@Z@4HA 000000018007ac40 f   insertShapeUtilsCore.obj
 0001:00079c60       ?dtor$1@?0???$InstantiateShape@EEHHMM@@YAPEAVDrawBase@@PEAEPEAH0PEAM1HEHHHH1HEE011@Z@4HA 000000018007ac60 f   insertShapeUtilsCore.obj
 0001:00079c80       ?dtor$2@?0???$InstantiateShape@EEHHMM@@YAPEAVDrawBase@@PEAEPEAH0PEAM1HEHHHH1HEE011@Z@4HA 000000018007ac80 f   insertShapeUtilsCore.obj
 0001:00079ca0       ?dtor$3@?0???$InstantiateShape@EEHHMM@@YAPEAVDrawBase@@PEAEPEAH0PEAM1HEHHHH1HEE011@Z@4HA 000000018007aca0 f   insertShapeUtilsCore.obj
 0001:00079cc0       ?dtor$4@?0???$InstantiateShape@EEHHMM@@YAPEAVDrawBase@@PEAEPEAH0PEAM1HEHHHH1HEE011@Z@4HA 000000018007acc0 f   insertShapeUtilsCore.obj
 0001:00079ce0       ?dtor$5@?0???$InstantiateShape@EEHHMM@@YAPEAVDrawBase@@PEAEPEAH0PEAM1HEHHHH1HEE011@Z@4HA 000000018007ace0 f   insertShapeUtilsCore.obj
 0001:00079d00       ?dtor$6@?0???$InstantiateShape@EEHHMM@@YAPEAVDrawBase@@PEAEPEAH0PEAM1HEHHHH1HEE011@Z@4HA 000000018007ad00 f   insertShapeUtilsCore.obj
 0001:00079d20       ?dtor$7@?0???$InstantiateShape@EEHHMM@@YAPEAVDrawBase@@PEAEPEAH0PEAM1HEHHHH1HEE011@Z@4HA 000000018007ad20 f   insertShapeUtilsCore.obj
 0001:00079d40       ?dtor$8@?0???$InstantiateShape@EEHHMM@@YAPEAVDrawBase@@PEAEPEAH0PEAM1HEHHHH1HEE011@Z@4HA 000000018007ad40 f   insertShapeUtilsCore.obj
 0001:00079d60       ?dtor$9@?0???$InstantiateShape@EEHHMM@@YAPEAVDrawBase@@PEAEPEAH0PEAM1HEHHHH1HEE011@Z@4HA 000000018007ad60 f   insertShapeUtilsCore.obj
 0001:00079d80       ?dtor$10@?0???$InstantiateShape@EEHHMM@@YAPEAVDrawBase@@PEAEPEAH0PEAM1HEHHHH1HEE011@Z@4HA 000000018007ad80 f   insertShapeUtilsCore.obj
 0001:00079da0       ?dtor$11@?0???$InstantiateShape@EEHHMM@@YAPEAVDrawBase@@PEAEPEAH0PEAM1HEHHHH1HEE011@Z@4HA 000000018007ada0 f   insertShapeUtilsCore.obj
 0001:00079dc0       ?dtor$12@?0???$InstantiateShape@EEHHMM@@YAPEAVDrawBase@@PEAEPEAH0PEAM1HEHHHH1HEE011@Z@4HA 000000018007adc0 f   insertShapeUtilsCore.obj
 0001:00079de0       ?dtor$13@?0???$InstantiateShape@EEHHMM@@YAPEAVDrawBase@@PEAEPEAH0PEAM1HEHHHH1HEE011@Z@4HA 000000018007ade0 f   insertShapeUtilsCore.obj
 0001:00079e00       ?dtor$14@?0???$InstantiateShape@EEHHMM@@YAPEAVDrawBase@@PEAEPEAH0PEAM1HEHHHH1HEE011@Z@4HA 000000018007ae00 f   insertShapeUtilsCore.obj
 0001:00079e20       ?dtor$15@?0???$InstantiateShape@EEHHMM@@YAPEAVDrawBase@@PEAEPEAH0PEAM1HEHHHH1HEE011@Z@4HA 000000018007ae20 f   insertShapeUtilsCore.obj
 0001:00079e40       ?dtor$0@?0???$InstantiateShape@FFHHMM@@YAPEAVDrawBase@@PEAFPEAH0PEAM1HEHHHH1HEEPEAE11@Z@4HA 000000018007ae40 f   insertShapeUtilsCore.obj
 0001:00079e60       ?dtor$1@?0???$InstantiateShape@FFHHMM@@YAPEAVDrawBase@@PEAFPEAH0PEAM1HEHHHH1HEEPEAE11@Z@4HA 000000018007ae60 f   insertShapeUtilsCore.obj
 0001:00079e80       ?dtor$2@?0???$InstantiateShape@FFHHMM@@YAPEAVDrawBase@@PEAFPEAH0PEAM1HEHHHH1HEEPEAE11@Z@4HA 000000018007ae80 f   insertShapeUtilsCore.obj
 0001:00079ea0       ?dtor$3@?0???$InstantiateShape@FFHHMM@@YAPEAVDrawBase@@PEAFPEAH0PEAM1HEHHHH1HEEPEAE11@Z@4HA 000000018007aea0 f   insertShapeUtilsCore.obj
 0001:00079ec0       ?dtor$4@?0???$InstantiateShape@FFHHMM@@YAPEAVDrawBase@@PEAFPEAH0PEAM1HEHHHH1HEEPEAE11@Z@4HA 000000018007aec0 f   insertShapeUtilsCore.obj
 0001:00079ee0       ?dtor$5@?0???$InstantiateShape@FFHHMM@@YAPEAVDrawBase@@PEAFPEAH0PEAM1HEHHHH1HEEPEAE11@Z@4HA 000000018007aee0 f   insertShapeUtilsCore.obj
 0001:00079f00       ?dtor$6@?0???$InstantiateShape@FFHHMM@@YAPEAVDrawBase@@PEAFPEAH0PEAM1HEHHHH1HEEPEAE11@Z@4HA 000000018007af00 f   insertShapeUtilsCore.obj
 0001:00079f20       ?dtor$7@?0???$InstantiateShape@FFHHMM@@YAPEAVDrawBase@@PEAFPEAH0PEAM1HEHHHH1HEEPEAE11@Z@4HA 000000018007af20 f   insertShapeUtilsCore.obj
 0001:00079f40       ?dtor$8@?0???$InstantiateShape@FFHHMM@@YAPEAVDrawBase@@PEAFPEAH0PEAM1HEHHHH1HEEPEAE11@Z@4HA 000000018007af40 f   insertShapeUtilsCore.obj
 0001:00079f60       ?dtor$9@?0???$InstantiateShape@FFHHMM@@YAPEAVDrawBase@@PEAFPEAH0PEAM1HEHHHH1HEEPEAE11@Z@4HA 000000018007af60 f   insertShapeUtilsCore.obj
 0001:00079f80       ?dtor$10@?0???$InstantiateShape@FFHHMM@@YAPEAVDrawBase@@PEAFPEAH0PEAM1HEHHHH1HEEPEAE11@Z@4HA 000000018007af80 f   insertShapeUtilsCore.obj
 0001:00079fa0       ?dtor$11@?0???$InstantiateShape@FFHHMM@@YAPEAVDrawBase@@PEAFPEAH0PEAM1HEHHHH1HEEPEAE11@Z@4HA 000000018007afa0 f   insertShapeUtilsCore.obj
 0001:00079fc0       ?dtor$12@?0???$InstantiateShape@FFHHMM@@YAPEAVDrawBase@@PEAFPEAH0PEAM1HEHHHH1HEEPEAE11@Z@4HA 000000018007afc0 f   insertShapeUtilsCore.obj
 0001:00079fe0       ?dtor$13@?0???$InstantiateShape@FFHHMM@@YAPEAVDrawBase@@PEAFPEAH0PEAM1HEHHHH1HEEPEAE11@Z@4HA 000000018007afe0 f   insertShapeUtilsCore.obj
 0001:0007a000       ?dtor$14@?0???$InstantiateShape@FFHHMM@@YAPEAVDrawBase@@PEAFPEAH0PEAM1HEHHHH1HEEPEAE11@Z@4HA 000000018007b000 f   insertShapeUtilsCore.obj
 0001:0007a020       ?dtor$15@?0???$InstantiateShape@FFHHMM@@YAPEAVDrawBase@@PEAFPEAH0PEAM1HEHHHH1HEEPEAE11@Z@4HA 000000018007b020 f   insertShapeUtilsCore.obj
 0001:0007a040       ?dtor$0@?0???$InstantiateShape@GGHHMM@@YAPEAVDrawBase@@PEAGPEAH0PEAM1HEHHHH1HEEPEAE11@Z@4HA 000000018007b040 f   insertShapeUtilsCore.obj
 0001:0007a060       ?dtor$1@?0???$InstantiateShape@GGHHMM@@YAPEAVDrawBase@@PEAGPEAH0PEAM1HEHHHH1HEEPEAE11@Z@4HA 000000018007b060 f   insertShapeUtilsCore.obj
 0001:0007a080       ?dtor$2@?0???$InstantiateShape@GGHHMM@@YAPEAVDrawBase@@PEAGPEAH0PEAM1HEHHHH1HEEPEAE11@Z@4HA 000000018007b080 f   insertShapeUtilsCore.obj
 0001:0007a0a0       ?dtor$3@?0???$InstantiateShape@GGHHMM@@YAPEAVDrawBase@@PEAGPEAH0PEAM1HEHHHH1HEEPEAE11@Z@4HA 000000018007b0a0 f   insertShapeUtilsCore.obj
 0001:0007a0c0       ?dtor$4@?0???$InstantiateShape@GGHHMM@@YAPEAVDrawBase@@PEAGPEAH0PEAM1HEHHHH1HEEPEAE11@Z@4HA 000000018007b0c0 f   insertShapeUtilsCore.obj
 0001:0007a0e0       ?dtor$5@?0???$InstantiateShape@GGHHMM@@YAPEAVDrawBase@@PEAGPEAH0PEAM1HEHHHH1HEEPEAE11@Z@4HA 000000018007b0e0 f   insertShapeUtilsCore.obj
 0001:0007a100       ?dtor$6@?0???$InstantiateShape@GGHHMM@@YAPEAVDrawBase@@PEAGPEAH0PEAM1HEHHHH1HEEPEAE11@Z@4HA 000000018007b100 f   insertShapeUtilsCore.obj
 0001:0007a120       ?dtor$7@?0???$InstantiateShape@GGHHMM@@YAPEAVDrawBase@@PEAGPEAH0PEAM1HEHHHH1HEEPEAE11@Z@4HA 000000018007b120 f   insertShapeUtilsCore.obj
 0001:0007a140       ?dtor$8@?0???$InstantiateShape@GGHHMM@@YAPEAVDrawBase@@PEAGPEAH0PEAM1HEHHHH1HEEPEAE11@Z@4HA 000000018007b140 f   insertShapeUtilsCore.obj
 0001:0007a160       ?dtor$9@?0???$InstantiateShape@GGHHMM@@YAPEAVDrawBase@@PEAGPEAH0PEAM1HEHHHH1HEEPEAE11@Z@4HA 000000018007b160 f   insertShapeUtilsCore.obj
 0001:0007a180       ?dtor$10@?0???$InstantiateShape@GGHHMM@@YAPEAVDrawBase@@PEAGPEAH0PEAM1HEHHHH1HEEPEAE11@Z@4HA 000000018007b180 f   insertShapeUtilsCore.obj
 0001:0007a1a0       ?dtor$11@?0???$InstantiateShape@GGHHMM@@YAPEAVDrawBase@@PEAGPEAH0PEAM1HEHHHH1HEEPEAE11@Z@4HA 000000018007b1a0 f   insertShapeUtilsCore.obj
 0001:0007a1c0       ?dtor$12@?0???$InstantiateShape@GGHHMM@@YAPEAVDrawBase@@PEAGPEAH0PEAM1HEHHHH1HEEPEAE11@Z@4HA 000000018007b1c0 f   insertShapeUtilsCore.obj
 0001:0007a1e0       ?dtor$13@?0???$InstantiateShape@GGHHMM@@YAPEAVDrawBase@@PEAGPEAH0PEAM1HEHHHH1HEEPEAE11@Z@4HA 000000018007b1e0 f   insertShapeUtilsCore.obj
 0001:0007a200       ?dtor$14@?0???$InstantiateShape@GGHHMM@@YAPEAVDrawBase@@PEAGPEAH0PEAM1HEHHHH1HEEPEAE11@Z@4HA 000000018007b200 f   insertShapeUtilsCore.obj
 0001:0007a220       ?dtor$15@?0???$InstantiateShape@GGHHMM@@YAPEAVDrawBase@@PEAGPEAH0PEAM1HEHHHH1HEEPEAE11@Z@4HA 000000018007b220 f   insertShapeUtilsCore.obj
 0001:0007a240       ?dtor$0@?0???$InstantiateShape@MMHHMM@@YAPEAVDrawBase@@PEAMPEAH001HEHHHH1HEEPEAE11@Z@4HA 000000018007b240 f   insertShapeUtilsCore.obj
 0001:0007a260       ?dtor$1@?0???$InstantiateShape@MMHHMM@@YAPEAVDrawBase@@PEAMPEAH001HEHHHH1HEEPEAE11@Z@4HA 000000018007b260 f   insertShapeUtilsCore.obj
 0001:0007a280       ?dtor$2@?0???$InstantiateShape@MMHHMM@@YAPEAVDrawBase@@PEAMPEAH001HEHHHH1HEEPEAE11@Z@4HA 000000018007b280 f   insertShapeUtilsCore.obj
 0001:0007a2a0       ?dtor$3@?0???$InstantiateShape@MMHHMM@@YAPEAVDrawBase@@PEAMPEAH001HEHHHH1HEEPEAE11@Z@4HA 000000018007b2a0 f   insertShapeUtilsCore.obj
 0001:0007a2c0       ?dtor$4@?0???$InstantiateShape@MMHHMM@@YAPEAVDrawBase@@PEAMPEAH001HEHHHH1HEEPEAE11@Z@4HA 000000018007b2c0 f   insertShapeUtilsCore.obj
 0001:0007a2e0       ?dtor$5@?0???$InstantiateShape@MMHHMM@@YAPEAVDrawBase@@PEAMPEAH001HEHHHH1HEEPEAE11@Z@4HA 000000018007b2e0 f   insertShapeUtilsCore.obj
 0001:0007a300       ?dtor$6@?0???$InstantiateShape@MMHHMM@@YAPEAVDrawBase@@PEAMPEAH001HEHHHH1HEEPEAE11@Z@4HA 000000018007b300 f   insertShapeUtilsCore.obj
 0001:0007a320       ?dtor$7@?0???$InstantiateShape@MMHHMM@@YAPEAVDrawBase@@PEAMPEAH001HEHHHH1HEEPEAE11@Z@4HA 000000018007b320 f   insertShapeUtilsCore.obj
 0001:0007a340       ?dtor$8@?0???$InstantiateShape@MMHHMM@@YAPEAVDrawBase@@PEAMPEAH001HEHHHH1HEEPEAE11@Z@4HA 000000018007b340 f   insertShapeUtilsCore.obj
 0001:0007a360       ?dtor$9@?0???$InstantiateShape@MMHHMM@@YAPEAVDrawBase@@PEAMPEAH001HEHHHH1HEEPEAE11@Z@4HA 000000018007b360 f   insertShapeUtilsCore.obj
 0001:0007a380       ?dtor$10@?0???$InstantiateShape@MMHHMM@@YAPEAVDrawBase@@PEAMPEAH001HEHHHH1HEEPEAE11@Z@4HA 000000018007b380 f   insertShapeUtilsCore.obj
 0001:0007a3a0       ?dtor$11@?0???$InstantiateShape@MMHHMM@@YAPEAVDrawBase@@PEAMPEAH001HEHHHH1HEEPEAE11@Z@4HA 000000018007b3a0 f   insertShapeUtilsCore.obj
 0001:0007a3c0       ?dtor$12@?0???$InstantiateShape@MMHHMM@@YAPEAVDrawBase@@PEAMPEAH001HEHHHH1HEEPEAE11@Z@4HA 000000018007b3c0 f   insertShapeUtilsCore.obj
 0001:0007a3e0       ?dtor$13@?0???$InstantiateShape@MMHHMM@@YAPEAVDrawBase@@PEAMPEAH001HEHHHH1HEEPEAE11@Z@4HA 000000018007b3e0 f   insertShapeUtilsCore.obj
 0001:0007a400       ?dtor$14@?0???$InstantiateShape@MMHHMM@@YAPEAVDrawBase@@PEAMPEAH001HEHHHH1HEEPEAE11@Z@4HA 000000018007b400 f   insertShapeUtilsCore.obj
 0001:0007a420       ?dtor$15@?0???$InstantiateShape@MMHHMM@@YAPEAVDrawBase@@PEAMPEAH001HEHHHH1HEEPEAE11@Z@4HA 000000018007b420 f   insertShapeUtilsCore.obj
 0001:0007a440       ?dtor$0@?0???$InstantiateShape@NNHHNN@@YAPEAVDrawBase@@PEANPEAH001HEHHHH1HEEPEAE11@Z@4HA 000000018007b440 f   insertShapeUtilsCore.obj
 0001:0007a460       ?dtor$1@?0???$InstantiateShape@NNHHNN@@YAPEAVDrawBase@@PEANPEAH001HEHHHH1HEEPEAE11@Z@4HA 000000018007b460 f   insertShapeUtilsCore.obj
 0001:0007a480       ?dtor$2@?0???$InstantiateShape@NNHHNN@@YAPEAVDrawBase@@PEANPEAH001HEHHHH1HEEPEAE11@Z@4HA 000000018007b480 f   insertShapeUtilsCore.obj
 0001:0007a4a0       ?dtor$3@?0???$InstantiateShape@NNHHNN@@YAPEAVDrawBase@@PEANPEAH001HEHHHH1HEEPEAE11@Z@4HA 000000018007b4a0 f   insertShapeUtilsCore.obj
 0001:0007a4c0       ?dtor$4@?0???$InstantiateShape@NNHHNN@@YAPEAVDrawBase@@PEANPEAH001HEHHHH1HEEPEAE11@Z@4HA 000000018007b4c0 f   insertShapeUtilsCore.obj
 0001:0007a4e0       ?dtor$5@?0???$InstantiateShape@NNHHNN@@YAPEAVDrawBase@@PEANPEAH001HEHHHH1HEEPEAE11@Z@4HA 000000018007b4e0 f   insertShapeUtilsCore.obj
 0001:0007a500       ?dtor$6@?0???$InstantiateShape@NNHHNN@@YAPEAVDrawBase@@PEANPEAH001HEHHHH1HEEPEAE11@Z@4HA 000000018007b500 f   insertShapeUtilsCore.obj
 0001:0007a520       ?dtor$7@?0???$InstantiateShape@NNHHNN@@YAPEAVDrawBase@@PEANPEAH001HEHHHH1HEEPEAE11@Z@4HA 000000018007b520 f   insertShapeUtilsCore.obj
 0001:0007a540       ?dtor$8@?0???$InstantiateShape@NNHHNN@@YAPEAVDrawBase@@PEANPEAH001HEHHHH1HEEPEAE11@Z@4HA 000000018007b540 f   insertShapeUtilsCore.obj
 0001:0007a560       ?dtor$9@?0???$InstantiateShape@NNHHNN@@YAPEAVDrawBase@@PEANPEAH001HEHHHH1HEEPEAE11@Z@4HA 000000018007b560 f   insertShapeUtilsCore.obj
 0001:0007a580       ?dtor$10@?0???$InstantiateShape@NNHHNN@@YAPEAVDrawBase@@PEANPEAH001HEHHHH1HEEPEAE11@Z@4HA 000000018007b580 f   insertShapeUtilsCore.obj
 0001:0007a5a0       ?dtor$11@?0???$InstantiateShape@NNHHNN@@YAPEAVDrawBase@@PEANPEAH001HEHHHH1HEEPEAE11@Z@4HA 000000018007b5a0 f   insertShapeUtilsCore.obj
 0001:0007a5c0       ?dtor$12@?0???$InstantiateShape@NNHHNN@@YAPEAVDrawBase@@PEANPEAH001HEHHHH1HEEPEAE11@Z@4HA 000000018007b5c0 f   insertShapeUtilsCore.obj
 0001:0007a5e0       ?dtor$13@?0???$InstantiateShape@NNHHNN@@YAPEAVDrawBase@@PEANPEAH001HEHHHH1HEEPEAE11@Z@4HA 000000018007b5e0 f   insertShapeUtilsCore.obj
 0001:0007a600       ?dtor$14@?0???$InstantiateShape@NNHHNN@@YAPEAVDrawBase@@PEANPEAH001HEHHHH1HEEPEAE11@Z@4HA 000000018007b600 f   insertShapeUtilsCore.obj
 0001:0007a620       ?dtor$15@?0???$InstantiateShape@NNHHNN@@YAPEAVDrawBase@@PEANPEAH001HEHHHH1HEEPEAE11@Z@4HA 000000018007b620 f   insertShapeUtilsCore.obj
 0001:0007a640       ?dtor$0@?0???0?$DrawCommon@EEHHMMEE@@QEAA@PEAE00HHH0HPEAHHH1EEEPEAMH002@Z@4HA 000000018007b640 f   insertShapeUtilsCore.obj
 0001:0007a660       ?dtor$0@?0???0?$DrawCommon@EEHHMMEH@@QEAA@PEAE00HHH0HPEAHHH1EEEPEAMH002@Z@4HA 000000018007b660 f   insertShapeUtilsCore.obj
 0001:0007a680       ?dtor$0@?0???0?$DrawCommon@FFHHMMEE@@QEAA@PEAF00HHH0HPEAHHH1EEEPEAMHPEAE02@Z@4HA 000000018007b680 f   insertShapeUtilsCore.obj
 0001:0007a6a0       ?dtor$0@?0???0?$DrawCommon@FFHHMMEH@@QEAA@PEAF00HHH0HPEAHHH1EEEPEAMHPEAE02@Z@4HA 000000018007b6a0 f   insertShapeUtilsCore.obj
 0001:0007a6c0       ?dtor$0@?0???0?$DrawCommon@GGHHMMEE@@QEAA@PEAG00HHH0HPEAHHH1EEEPEAMHPEAE02@Z@4HA 000000018007b6c0 f   insertShapeUtilsCore.obj
 0001:0007a6e0       ?dtor$0@?0???0?$DrawCommon@GGHHMMEH@@QEAA@PEAG00HHH0HPEAHHH1EEEPEAMHPEAE02@Z@4HA 000000018007b6e0 f   insertShapeUtilsCore.obj
 0001:0007a700       ?dtor$0@?0???0?$DrawCommon@MMHHMMEE@@QEAA@PEAM00HHH0HPEAHHH1EEE0HPEAE00@Z@4HA 000000018007b700 f   insertShapeUtilsCore.obj
 0001:0007a720       ?dtor$0@?0???0?$DrawCommon@MMHHMMEH@@QEAA@PEAM00HHH0HPEAHHH1EEE0HPEAE00@Z@4HA 000000018007b720 f   insertShapeUtilsCore.obj
 0001:0007a740       ?dtor$0@?0???0?$DrawCommon@NNHHNNEE@@QEAA@PEAN00HHH0HPEAHHH1EEE0HPEAE00@Z@4HA 000000018007b740 f   insertShapeUtilsCore.obj
 0001:0007a760       ?dtor$0@?0???0?$DrawCommon@NNHHNNEH@@QEAA@PEAN00HHH0HPEAHHH1EEE0HPEAE00@Z@4HA 000000018007b760 f   insertShapeUtilsCore.obj
 0001:0007a778       ?fin$0@?0??dllmain_crt_process_attach@@YAHQEAUHINSTANCE__@@QEAX@Z@4HA 000000018007b778 f   MSVCRT:dll_dllmain.obj
 0001:0007a78f       ?fin$0@?0??dllmain_crt_process_detach@@YAH_N@Z@4HA 000000018007b78f f   MSVCRT:dll_dllmain.obj
 0001:0007a7ab       ?filt$0@?0??dllmain_dispatch@@YAHQEAUHINSTANCE__@@KQEAX@Z@4HA 000000018007b7ab f   MSVCRT:dll_dllmain.obj
 0001:0007a7e1       __scrt_is_nonwritable_in_current_image$filt$0 000000018007b7e1 f   MSVCRT:utility.obj
 0002:00000650       ?c2_decisionTxtEndIdx@?1??mdl_setup_runtime_resources_c2_CameraCalImageCapture@@9@9 000000018007c650     c2_CameraCalImageCapture.obj
 0002:00000654       ?c2_decisionTxtStartIdx@?1??mdl_setup_runtime_resources_c2_CameraCalImageCapture@@9@9 000000018007c654     c2_CameraCalImageCapture.obj
 0002:00000780       $cppxdata$?floor@@YAMM@Z   000000018007c780     insertShapeUtilsCore.obj
 0002:000007a8       $cppxdata$?sqrt@@YAMM@Z    000000018007c7a8     insertShapeUtilsCore.obj
 0002:000007d0       $cppxdata$??$InstantiateShape@MMHHMM@@YAPEAVDrawBase@@PEAMPEAH001HEHHHH1HEEPEAE11@Z 000000018007c7d0     insertShapeUtilsCore.obj
 0002:000007f8       $cppxdata$??$InstantiateShape@NNHHNN@@YAPEAVDrawBase@@PEANPEAH001HEHHHH1HEEPEAE11@Z 000000018007c7f8     insertShapeUtilsCore.obj
 0002:00000820       $cppxdata$??$InstantiateShape@EEHHMM@@YAPEAVDrawBase@@PEAEPEAH0PEAM1HEHHHH1HEE011@Z 000000018007c820     insertShapeUtilsCore.obj
 0002:00000848       $cppxdata$??$InstantiateShape@GGHHMM@@YAPEAVDrawBase@@PEAGPEAH0PEAM1HEHHHH1HEEPEAE11@Z 000000018007c848     insertShapeUtilsCore.obj
 0002:00000870       $cppxdata$??$InstantiateShape@FFHHMM@@YAPEAVDrawBase@@PEAFPEAH0PEAM1HEHHHH1HEEPEAE11@Z 000000018007c870     insertShapeUtilsCore.obj
 0002:00000898       $cppxdata$??0?$DrawCommon@MMHHMMEH@@QEAA@PEAM00HHH0HPEAHHH1EEE0HPEAE00@Z 000000018007c898     insertShapeUtilsCore.obj
 0002:000008c0       $cppxdata$??0?$DrawCommon@MMHHMMEE@@QEAA@PEAM00HHH0HPEAHHH1EEE0HPEAE00@Z 000000018007c8c0     insertShapeUtilsCore.obj
 0002:000008e8       $cppxdata$??0?$DrawCommon@NNHHNNEH@@QEAA@PEAN00HHH0HPEAHHH1EEE0HPEAE00@Z 000000018007c8e8     insertShapeUtilsCore.obj
 0002:00000910       $cppxdata$??0?$DrawCommon@NNHHNNEE@@QEAA@PEAN00HHH0HPEAHHH1EEE0HPEAE00@Z 000000018007c910     insertShapeUtilsCore.obj
 0002:00000938       $cppxdata$??0?$DrawCommon@EEHHMMEH@@QEAA@PEAE00HHH0HPEAHHH1EEEPEAMH002@Z 000000018007c938     insertShapeUtilsCore.obj
 0002:00000960       $cppxdata$??0?$DrawCommon@EEHHMMEE@@QEAA@PEAE00HHH0HPEAHHH1EEEPEAMH002@Z 000000018007c960     insertShapeUtilsCore.obj
 0002:00000988       $cppxdata$??0?$DrawCommon@GGHHMMEH@@QEAA@PEAG00HHH0HPEAHHH1EEEPEAMHPEAE02@Z 000000018007c988     insertShapeUtilsCore.obj
 0002:000009b0       $cppxdata$??0?$DrawCommon@GGHHMMEE@@QEAA@PEAG00HHH0HPEAHHH1EEEPEAMHPEAE02@Z 000000018007c9b0     insertShapeUtilsCore.obj
 0002:000009d8       $cppxdata$??0?$DrawCommon@FFHHMMEH@@QEAA@PEAF00HHH0HPEAHHH1EEEPEAMHPEAE02@Z 000000018007c9d8     insertShapeUtilsCore.obj
 0002:00000a00       $cppxdata$??0?$DrawCommon@FFHHMMEE@@QEAA@PEAF00HHH0HPEAHHH1EEEPEAMHPEAE02@Z 000000018007ca00     insertShapeUtilsCore.obj
 0002:00004658       GS_ExceptionPointers       0000000180080658     MSVCRT:gs_report.obj
 0002:00008b50       $unwind$load_CameraCalImageCapture_optimization_info 0000000180084b50     CameraCalImageCapture_sfun.obj
 0002:00008b58       $unwind$unload_CameraCalImageCapture_optimization_info 0000000180084b58     CameraCalImageCapture_sfun.obj
 0002:00008b60       $unwind$sf_CameraCalImageCapture_method_dispatcher 0000000180084b60     CameraCalImageCapture_sfun.obj
 0002:00008b68       $unwind$sf_CameraCalImageCapture_process_check_sum_call 0000000180084b68     CameraCalImageCapture_sfun.obj
 0002:00008b78       $unwind$sf_CameraCalImageCapture_get_eml_resolved_functions_info 0000000180084b78     CameraCalImageCapture_sfun.obj
 0002:00008b88       $unwind$sf_CameraCalImageCapture_third_party_uses_info 0000000180084b88     CameraCalImageCapture_sfun.obj
 0002:00008b98       $unwind$sf_CameraCalImageCapture_jit_fallback_info 0000000180084b98     CameraCalImageCapture_sfun.obj
 0002:00008ba8       $unwind$sf_CameraCalImageCapture_get_post_codegen_info 0000000180084ba8     CameraCalImageCapture_sfun.obj
 0002:00008bb8       $unwind$sf_CameraCalImageCapture_updateBuildInfo_args_info 0000000180084bb8     CameraCalImageCapture_sfun.obj
 0002:00008bc8       $unwind$sf_c2_CameraCalImageCapture_get_eml_resolved_functions_info 0000000180084bc8     c2_CameraCalImageCapture.obj
 0002:00008bd0       $unwind$sf_c2_CameraCalImageCapture_get_check_sum 0000000180084bd0     c2_CameraCalImageCapture.obj
 0002:00008bd8       $unwind$c2_CameraCalImageCapture_method_dispatcher 0000000180084bd8     c2_CameraCalImageCapture.obj
 0002:00008be0       $unwind$initialize_c2_CameraCalImageCapture 0000000180084be0     c2_CameraCalImageCapture.obj
 0002:00008be8       $unwind$mdl_setup_runtime_resources_c2_CameraCalImageCapture 0000000180084be8     c2_CameraCalImageCapture.obj
 0002:00008bf0       $unwind$mdl_cleanup_runtime_resources_c2_CameraCalImageCapture 0000000180084bf0     c2_CameraCalImageCapture.obj
 0002:00008bf8       $unwind$enable_c2_CameraCalImageCapture 0000000180084bf8     c2_CameraCalImageCapture.obj
 0002:00008c00       $unwind$disable_c2_CameraCalImageCapture 0000000180084c00     c2_CameraCalImageCapture.obj
 0002:00008c08       $unwind$sf_gateway_c2_CameraCalImageCapture 0000000180084c08     c2_CameraCalImageCapture.obj
 0002:00008c1c       $unwind$c2_do_animation_call_c2_CameraCalImageCapture 0000000180084c1c     c2_CameraCalImageCapture.obj
 0002:00008c24       $unwind$get_sim_state_c2_CameraCalImageCapture 0000000180084c24     c2_CameraCalImageCapture.obj
 0002:00008c2c       $unwind$set_sim_state_c2_CameraCalImageCapture 0000000180084c2c     c2_CameraCalImageCapture.obj
 0002:00008c34       $unwind$c2_cameraIntrinsicsImpl_cameraParameters 0000000180084c34     c2_CameraCalImageCapture.obj
 0002:00008c44       $unwind$c2_validateattributes 0000000180084c44     c2_CameraCalImageCapture.obj
 0002:00008c4c       $unwind$c2_any             0000000180084c4c     c2_CameraCalImageCapture.obj
 0002:00008c5c       $unwind$c2_CameraParametersImpl_checkImageSize 0000000180084c5c     c2_CameraCalImageCapture.obj
 0002:00008c64       $unwind$c2_readAprilTag    0000000180084c64     c2_CameraCalImageCapture.obj
 0002:00008c78       $unwind$c2_check_forloop_overflow_error 0000000180084c78     c2_CameraCalImageCapture.obj
 0002:00008c80       $unwind$c2_readAprilTagIDPose 0000000180084c80     c2_CameraCalImageCapture.obj
 0002:00008c94       $unwind$c2_constrainToRotationMatrix3D 0000000180084c94     c2_CameraCalImageCapture.obj
 0002:00008ca4       $unwind$c2_xzsvdc          0000000180084ca4     c2_CameraCalImageCapture.obj
 0002:00008cb4       $unwind$c2_xnrm2           0000000180084cb4     c2_CameraCalImageCapture.obj
 0002:00008cbc       $unwind$c2_xdotc           0000000180084cbc     c2_CameraCalImageCapture.obj
 0002:00008cc4       $unwind$c2_b_xnrm2         0000000180084cc4     c2_CameraCalImageCapture.obj
 0002:00008ccc       $unwind$c2_det             0000000180084ccc     c2_CameraCalImageCapture.obj
 0002:00008cdc       $unwind$c2_norm            0000000180084cdc     c2_CameraCalImageCapture.obj
 0002:00008cec       $unwind$c2_b_xzsvdc        0000000180084cec     c2_CameraCalImageCapture.obj
 0002:00008cfc       $unwind$c2_make_bitarray   0000000180084cfc     c2_CameraCalImageCapture.obj
 0002:00008d04       $unwind$c2_num_true        0000000180084d04     c2_CameraCalImageCapture.obj
 0002:00008d0c       $unwind$c2_emlrt_marshallOut 0000000180084d0c     c2_CameraCalImageCapture.obj
 0002:00008d14       $unwind$c2_emlrt_marshallIn 0000000180084d14     c2_CameraCalImageCapture.obj
 0002:00008d1c       $unwind$c2_b_emlrt_marshallIn 0000000180084d1c     c2_CameraCalImageCapture.obj
 0002:00008d24       $unwind$c2_c_emlrt_marshallIn 0000000180084d24     c2_CameraCalImageCapture.obj
 0002:00008d2c       $unwind$c2_d_emlrt_marshallIn 0000000180084d2c     c2_CameraCalImageCapture.obj
 0002:00008d34       $unwind$c2_chart_data_browse_helper 0000000180084d34     c2_CameraCalImageCapture.obj
 0002:00008d3c       $unwind$c2_b_sqrt          0000000180084d3c     c2_CameraCalImageCapture.obj
 0002:00008d44       $unwind$c2_d_xscal         0000000180084d44     c2_CameraCalImageCapture.obj
 0002:00008d4c       $unwind$c2_d_xaxpy         0000000180084d4c     c2_CameraCalImageCapture.obj
 0002:00008d54       $unwind$c2_e_xscal         0000000180084d54     c2_CameraCalImageCapture.obj
 0002:00008d5c       $unwind$c2_e_xaxpy         0000000180084d5c     c2_CameraCalImageCapture.obj
 0002:00008d64       $unwind$c2_f_xaxpy         0000000180084d64     c2_CameraCalImageCapture.obj
 0002:00008d6c       $unwind$c2_f_xscal         0000000180084d6c     c2_CameraCalImageCapture.obj
 0002:00008d74       $unwind$c2_b_xrot          0000000180084d74     c2_CameraCalImageCapture.obj
 0002:00008d7c       $unwind$c2_b_xswap         0000000180084d7c     c2_CameraCalImageCapture.obj
 0002:00008d84       $unwind$c2_c_nullAssignment 0000000180084d84     c2_CameraCalImageCapture.obj
 0002:00008d94       $unwind$c2_d_nullAssignment 0000000180084d94     c2_CameraCalImageCapture.obj
 0002:00008d9c       $unwind$c2_emxEnsureCapacity_images_geotra 0000000180084d9c     c2_CameraCalImageCapture.obj
 0002:00008da4       $unwind$c2_emxInitStruct_cameraParameters 0000000180084da4     c2_CameraCalImageCapture.obj
 0002:00008dac       $unwind$c2_emxInitStruct_vision_internal_c 0000000180084dac     c2_CameraCalImageCapture.obj
 0002:00008db4       $unwind$c2_emxInit_real_T  0000000180084db4     c2_CameraCalImageCapture.obj
 0002:00008dbc       $unwind$c2_emxInit_char_T  0000000180084dbc     c2_CameraCalImageCapture.obj
 0002:00008dc4       $unwind$c2_emxInit_real_T1 0000000180084dc4     c2_CameraCalImageCapture.obj
 0002:00008dcc       $unwind$c2_emxInitStruct_rigidtform3d 0000000180084dcc     c2_CameraCalImageCapture.obj
 0002:00008dd4       $unwind$c2_emxInit_images_geotrans_interna 0000000180084dd4     c2_CameraCalImageCapture.obj
 0002:00008ddc       $unwind$c2_emxFree_real_T  0000000180084ddc     c2_CameraCalImageCapture.obj
 0002:00008de4       $unwind$c2_emxFreeStruct_vision_internal_c 0000000180084de4     c2_CameraCalImageCapture.obj
 0002:00008dec       $unwind$c2_emxFree_char_T  0000000180084dec     c2_CameraCalImageCapture.obj
 0002:00008df4       $unwind$c2_emxFreeStruct_cameraParameters 0000000180084df4     c2_CameraCalImageCapture.obj
 0002:00008dfc       $unwind$c2_emxFree_images_geotrans_interna 0000000180084dfc     c2_CameraCalImageCapture.obj
 0002:00008e04       $unwind$c2_emxFreeStruct_rigidtform3d 0000000180084e04     c2_CameraCalImageCapture.obj
 0002:00008e0c       $unwind$c2_emxEnsureCapacity_real_T 0000000180084e0c     c2_CameraCalImageCapture.obj
 0002:00008e14       $unwind$c2_emxEnsureCapacity_char_T 0000000180084e14     c2_CameraCalImageCapture.obj
 0002:00008e1c       $unwind$c2_emxEnsureCapacity_real_T1 0000000180084e1c     c2_CameraCalImageCapture.obj
 0002:00008e24       $unwind$c2_emxFreeStruct_cell_wrap_23 0000000180084e24     c2_CameraCalImageCapture.obj
 0002:00008e2c       $unwind$c2_emxTrim_cell_wrap_23 0000000180084e2c     c2_CameraCalImageCapture.obj
 0002:00008e34       $unwind$c2_emxInitStruct_cell_wrap_23 0000000180084e34     c2_CameraCalImageCapture.obj
 0002:00008e3c       $unwind$c2_emxExpand_cell_wrap_23 0000000180084e3c     c2_CameraCalImageCapture.obj
 0002:00008e44       $unwind$c2_emxEnsureCapacity_cell_wrap_23 0000000180084e44     c2_CameraCalImageCapture.obj
 0002:00008e4c       $unwind$c2_emxEnsureCapacity_int32_T 0000000180084e4c     c2_CameraCalImageCapture.obj
 0002:00008e54       $unwind$c2_b_emxEnsureCapacity_images_geotra 0000000180084e54     c2_CameraCalImageCapture.obj
 0002:00008e5c       $unwind$c2_emxInit_cell_wrap_23 0000000180084e5c     c2_CameraCalImageCapture.obj
 0002:00008e64       $unwind$c2_emxInit_int32_T 0000000180084e64     c2_CameraCalImageCapture.obj
 0002:00008e6c       $unwind$c2_b_emxInit_images_geotrans_interna 0000000180084e6c     c2_CameraCalImageCapture.obj
 0002:00008e74       $unwind$c2_emxInit_boolean_T 0000000180084e74     c2_CameraCalImageCapture.obj
 0002:00008e7c       $unwind$c2_emxFree_cell_wrap_23 0000000180084e7c     c2_CameraCalImageCapture.obj
 0002:00008e84       $unwind$c2_emxFree_int32_T 0000000180084e84     c2_CameraCalImageCapture.obj
 0002:00008e8c       $unwind$c2_emxFree_boolean_T 0000000180084e8c     c2_CameraCalImageCapture.obj
 0002:00008e94       $unwind$c2_emxEnsureCapacity_boolean_T 0000000180084e94     c2_CameraCalImageCapture.obj
 0002:00008e9c       $unwind$c2_emxCopyStruct_cell_wrap_23 0000000180084e9c     c2_CameraCalImageCapture.obj
 0002:00008ea4       $unwind$c2_emxCopy_char_T  0000000180084ea4     c2_CameraCalImageCapture.obj
 0002:00008eac       $unwind$c2__s32_add__      0000000180084eac     c2_CameraCalImageCapture.obj
 0002:00008eb4       $unwind$init_simulink_io_address 0000000180084eb4     c2_CameraCalImageCapture.obj
 0002:00008ebc       $unwind$sf_c2_CameraCalImageCapture_third_party_uses_info 0000000180084ebc     c2_CameraCalImageCapture.obj
 0002:00008ec4       $unwind$sf_c2_CameraCalImageCapture_jit_fallback_info 0000000180084ec4     c2_CameraCalImageCapture.obj
 0002:00008ed4       $unwind$sf_c2_CameraCalImageCapture_updateBuildInfo_args_info 0000000180084ed4     c2_CameraCalImageCapture.obj
 0002:00008edc       $unwind$sf_get_sim_state_info_c2_CameraCalImageCapture 0000000180084edc     c2_CameraCalImageCapture.obj
 0002:00008ee4       $unwind$sf_opaque_initialize_c2_CameraCalImageCapture 0000000180084ee4     c2_CameraCalImageCapture.obj
 0002:00008eec       $unwind$sf_opaque_enable_c2_CameraCalImageCapture 0000000180084eec     c2_CameraCalImageCapture.obj
 0002:00008ef4       $unwind$sf_opaque_disable_c2_CameraCalImageCapture 0000000180084ef4     c2_CameraCalImageCapture.obj
 0002:00008efc       $unwind$sf_opaque_gateway_c2_CameraCalImageCapture 0000000180084efc     c2_CameraCalImageCapture.obj
 0002:00008f04       $unwind$sf_opaque_get_sim_state_c2_CameraCalImageCapture 0000000180084f04     c2_CameraCalImageCapture.obj
 0002:00008f0c       $unwind$sf_opaque_set_sim_state_c2_CameraCalImageCapture 0000000180084f0c     c2_CameraCalImageCapture.obj
 0002:00008f14       $unwind$sf_opaque_cleanup_runtime_resources_c2_CameraCalImageCapture 0000000180084f14     c2_CameraCalImageCapture.obj
 0002:00008f1c       $unwind$sf_opaque_mdl_start_c2_CameraCalImageCapture 0000000180084f1c     c2_CameraCalImageCapture.obj
 0002:00008f24       $unwind$sf_opaque_mdl_terminate_c2_CameraCalImageCapture 0000000180084f24     c2_CameraCalImageCapture.obj
 0002:00008f2c       $unwind$mdlProcessParameters_c2_CameraCalImageCapture 0000000180084f2c     c2_CameraCalImageCapture.obj
 0002:00008f34       $unwind$sf_c2_CameraCalImageCapture_get_post_codegen_info 0000000180084f34     c2_CameraCalImageCapture.obj
 0002:00008f44       $unwind$mdlSetWorkWidths_c2_CameraCalImageCapture 0000000180084f44     c2_CameraCalImageCapture.obj
 0002:00008f4c       $unwind$mdlRTW_c2_CameraCalImageCapture 0000000180084f4c     c2_CameraCalImageCapture.obj
 0002:00008f54       $unwind$mdlSetupRuntimeResources_c2_CameraCalImageCapture 0000000180084f54     c2_CameraCalImageCapture.obj
 0002:00008f5c       $unwind$_vsnprintf_l       0000000180084f5c     CameraCalImageCapture_sfun_registry.obj
 0002:00008f64       $unwind$_vsprintf_l        0000000180084f64     CameraCalImageCapture_sfun_registry.obj
 0002:00008f6c       $unwind$sprintf            0000000180084f6c     CameraCalImageCapture_sfun_registry.obj
 0002:00008f74       $unwind$mexFunction        0000000180084f74     CameraCalImageCapture_sfun_registry.obj
 0002:00008f84       $unwind$_ssSetInputPortDirectFeedThroughFcn 0000000180084f84     CameraCalImageCapture_sfun_registry.obj
 0002:00008f94       $unwind$_ssSetRWorkValueFcn 0000000180084f94     CameraCalImageCapture_sfun_registry.obj
 0002:00008f9c       $unwind$_ssGetRWorkValueFcn 0000000180084f9c     CameraCalImageCapture_sfun_registry.obj
 0002:00008fa4       $unwind$_ssSetIWorkValueFcn 0000000180084fa4     CameraCalImageCapture_sfun_registry.obj
 0002:00008fac       $unwind$_ssGetIWorkValueFcn 0000000180084fac     CameraCalImageCapture_sfun_registry.obj
 0002:00008fb4       $unwind$_ssSetPWorkValueFcn 0000000180084fb4     CameraCalImageCapture_sfun_registry.obj
 0002:00008fbc       $unwind$_ssGetPWorkValueFcn 0000000180084fbc     CameraCalImageCapture_sfun_registry.obj
 0002:00008fc4       $unwind$_ssGetInputPortSignalFcn 0000000180084fc4     CameraCalImageCapture_sfun_registry.obj
 0002:00008fd4       $unwind$_ssGetInputPortBufferDstPortFcn 0000000180084fd4     CameraCalImageCapture_sfun_registry.obj
 0002:00008fdc       $unwind$_ssGetInputPortSignalPtrsFcn 0000000180084fdc     CameraCalImageCapture_sfun_registry.obj
 0002:00008fec       $unwind$ssGetParameterTuningCompliance 0000000180084fec     CameraCalImageCapture_sfun_registry.obj
 0002:00008ff4       $unwind$_ssReadInputStringFcn 0000000180084ff4     CameraCalImageCapture_sfun_registry.obj
 0002:00008ffc       $unwind$ssGetDTypeIdFromMxArray 0000000180084ffc     CameraCalImageCapture_sfun_registry.obj
 0002:00009004       $unwind$ssWriteRTWMx2dMatParam 0000000180085004     CameraCalImageCapture_sfun_registry.obj
 0002:0000900c       $unwind$ssWriteRTWMxVectParam 000000018008500c     CameraCalImageCapture_sfun_registry.obj
 0002:00009014       $unwind$ssWriteRTWParameters 0000000180085014     CameraCalImageCapture_sfun_registry.obj
 0002:0000901c       $unwind$ssWriteRTWParamSettings 000000018008501c     CameraCalImageCapture_sfun_registry.obj
 0002:00009024       $unwind$ssWriteRTWStr      0000000180085024     CameraCalImageCapture_sfun_registry.obj
 0002:0000902c       $unwind$ssWriteRTWWorkVect 000000018008502c     CameraCalImageCapture_sfun_registry.obj
 0002:00009040       $unwind$ssWarning          0000000180085040     CameraCalImageCapture_sfun_registry.obj
 0002:00009054       $unwind$ssWriteRTWNameValuePair 0000000180085054     CameraCalImageCapture_sfun_registry.obj
 0002:0000905c       $unwind$_ssSetInputPortMatrixDimensions 000000018008505c     CameraCalImageCapture_sfun_registry.obj
 0002:00009068       $unwind$_ssSetOutputPortMatrixDimensions 0000000180085068     CameraCalImageCapture_sfun_registry.obj
 0002:00009074       $unwind$_ssSetInputPortVectorDimension 0000000180085074     CameraCalImageCapture_sfun_registry.obj
 0002:00009080       $unwind$_ssSetOutputPortVectorDimension 0000000180085080     CameraCalImageCapture_sfun_registry.obj
 0002:0000908c       $unwind$ssIsRunTimeParamTunable 000000018008508c     CameraCalImageCapture_sfun_registry.obj
 0002:00009094       $unwind$ssGetSFuncBlockHandle 0000000180085094     CameraCalImageCapture_sfun_registry.obj
 0002:0000909c       $unwind$_ssGetCallSystemNumFcnCallDestinations 000000018008509c     CameraCalImageCapture_sfun_registry.obj
 0002:000090a4       $unwind$_ssGetCurrentInputPortWidth 00000001800850a4     CameraCalImageCapture_sfun_registry.obj
 0002:000090ac       $unwind$_ssGetCurrentOutputPortWidth 00000001800850ac     CameraCalImageCapture_sfun_registry.obj
 0002:000090b4       $unwind$ssGetIsZeroCrossControlDisabled 00000001800850b4     CameraCalImageCapture_sfun_registry.obj
 0002:000090bc       $unwind$ssSetIsInputPortUsedForContZcSignal 00000001800850bc     CameraCalImageCapture_sfun_registry.obj
 0002:000090c4       $unwind$ssSetZcSignalIsZcElementDisc 00000001800850c4     CameraCalImageCapture_sfun_registry.obj
 0002:000090d4       $unwind$ssSetZcSignalName  00000001800850d4     CameraCalImageCapture_sfun_registry.obj
 0002:000090dc       $unwind$ssSetZcSignalWidth 00000001800850dc     CameraCalImageCapture_sfun_registry.obj
 0002:000090e4       $unwind$ssSetZcSignalZcEventType 00000001800850e4     CameraCalImageCapture_sfun_registry.obj
 0002:000090ec       $unwind$ssSetZcSignalType  00000001800850ec     CameraCalImageCapture_sfun_registry.obj
 0002:000090f4       $unwind$ssSetZcSignalZcTol 00000001800850f4     CameraCalImageCapture_sfun_registry.obj
 0002:000090fc       $unwind$ssSetZcSignalNeedsEventNotification 00000001800850fc     CameraCalImageCapture_sfun_registry.obj
 0002:00009104       $unwind$ssCreateAndAddZcSignalInfo 0000000180085104     CameraCalImageCapture_sfun_registry.obj
 0002:0000910c       $unwind$ssCloneAndAddZcSignalInfo 000000018008510c     CameraCalImageCapture_sfun_registry.obj
 0002:00009114       $unwind$ssGetNumZcSignals  0000000180085114     CameraCalImageCapture_sfun_registry.obj
 0002:0000911c       $unwind$ssGetZcSignalVector 000000018008511c     CameraCalImageCapture_sfun_registry.obj
 0002:00009124       $unwind$ssGetZcSignalName  0000000180085124     CameraCalImageCapture_sfun_registry.obj
 0002:0000912c       $unwind$ssGetZcSignalWidth 000000018008512c     CameraCalImageCapture_sfun_registry.obj
 0002:00009134       $unwind$ssGetZcSignalZcEventType 0000000180085134     CameraCalImageCapture_sfun_registry.obj
 0002:0000913c       $unwind$ssGetZcSignalZcEvents 000000018008513c     CameraCalImageCapture_sfun_registry.obj
 0002:00009144       $unwind$ssGetZcSignalType  0000000180085144     CameraCalImageCapture_sfun_registry.obj
 0002:0000914c       $unwind$ssGetZcSignalZcTol 000000018008514c     CameraCalImageCapture_sfun_registry.obj
 0002:00009154       $unwind$ssGetZcSignalNeedsEventNotification 0000000180085154     CameraCalImageCapture_sfun_registry.obj
 0002:0000915c       $unwind$ssGetZcSignalIsZcElementDisc 000000018008515c     CameraCalImageCapture_sfun_registry.obj
 0002:0000916c       $unwind$ssGetIsInputPortElementContinuous 000000018008516c     CameraCalImageCapture_sfun_registry.obj
 0002:0000917c       $unwind$_ssGetAbsTol       000000018008517c     CameraCalImageCapture_sfun_registry.obj
 0002:00009184       $unwind$_ssSetInputPortReusableFcn 0000000180085184     CameraCalImageCapture_sfun_registry.obj
 0002:0000918c       $unwind$_ssSetOutputPortReusableFcn 000000018008518c     CameraCalImageCapture_sfun_registry.obj
 0002:00009194       $unwind$_ssSetSymbolicDimsSupport 0000000180085194     CameraCalImageCapture_sfun_registry.obj
 0002:0000919c       $unwind$_ssRegisterSymbolicDimsExpr 000000018008519c     CameraCalImageCapture_sfun_registry.obj
 0002:000091a4       $unwind$_ssRegisterSymbolicDimsMATLABExpr 00000001800851a4     CameraCalImageCapture_sfun_registry.obj
 0002:000091ac       $unwind$_ssRegisterSymbolicDims 00000001800851ac     CameraCalImageCapture_sfun_registry.obj
 0002:000091b4       $unwind$_ssRegisterSymbolicDimsString 00000001800851b4     CameraCalImageCapture_sfun_registry.obj
 0002:000091bc       $unwind$_ssRegisterSymbolicDimsIntValue 00000001800851bc     CameraCalImageCapture_sfun_registry.obj
 0002:000091c4       $unwind$_ssRegisterSymbolicEqualRelation 00000001800851c4     CameraCalImageCapture_sfun_registry.obj
 0002:000091cc       $unwind$_ssRegisterSymbolicEqualValue 00000001800851cc     CameraCalImageCapture_sfun_registry.obj
 0002:000091d4       $unwind$_ssAmendLeadingSymbolicDims 00000001800851d4     CameraCalImageCapture_sfun_registry.obj
 0002:000091dc       $unwind$_ssAmendTrailingSymbolicDims 00000001800851dc     CameraCalImageCapture_sfun_registry.obj
 0002:000091e4       $unwind$_ssRegisterSymbolicDimsPlus 00000001800851e4     CameraCalImageCapture_sfun_registry.obj
 0002:000091ec       $unwind$_ssRegisterSymbolicDimsMinus 00000001800851ec     CameraCalImageCapture_sfun_registry.obj
 0002:000091f4       $unwind$_ssRegisterSymbolicDimsMultiply 00000001800851f4     CameraCalImageCapture_sfun_registry.obj
 0002:000091fc       $unwind$_ssRegisterSymbolicDimsDivide 00000001800851fc     CameraCalImageCapture_sfun_registry.obj
 0002:00009204       $unwind$_ssGetNumSymbolicDims 0000000180085204     CameraCalImageCapture_sfun_registry.obj
 0002:0000920c       $unwind$_ssGetSymbolicDim  000000018008520c     CameraCalImageCapture_sfun_registry.obj
 0002:00009214       $unwind$_ssSetInputPortSymbolicDimsId 0000000180085214     CameraCalImageCapture_sfun_registry.obj
 0002:0000921c       $unwind$_ssGetCompInputPortSymbolicDimsId 000000018008521c     CameraCalImageCapture_sfun_registry.obj
 0002:00009224       $unwind$_ssSetCompInputPortSymbolicDimsId 0000000180085224     CameraCalImageCapture_sfun_registry.obj
 0002:0000922c       $unwind$_ssSetOutputPortSymbolicDimsId 000000018008522c     CameraCalImageCapture_sfun_registry.obj
 0002:00009234       $unwind$_ssGetCompOutputPortSymbolicDimsId 0000000180085234     CameraCalImageCapture_sfun_registry.obj
 0002:0000923c       $unwind$_ssSetCompOutputPortSymbolicDimsId 000000018008523c     CameraCalImageCapture_sfun_registry.obj
 0002:00009244       $unwind$_ssGetDWorkSymbolicDimsId 0000000180085244     CameraCalImageCapture_sfun_registry.obj
 0002:0000924c       $unwind$_ssSetDWorkSymbolicDimsId 000000018008524c     CameraCalImageCapture_sfun_registry.obj
 0002:00009254       $unwind$_ssGetCompDWorkSymbolicDimsId 0000000180085254     CameraCalImageCapture_sfun_registry.obj
 0002:0000925c       $unwind$_ssSetCompDWorkSymbolicDimsId 000000018008525c     CameraCalImageCapture_sfun_registry.obj
 0002:00009264       $unwind$_ssCreateSLCGStringBuffer 0000000180085264     CameraCalImageCapture_sfun_registry.obj
 0002:0000926c       $unwind$_ssAddToSLCGStringBuffer 000000018008526c     CameraCalImageCapture_sfun_registry.obj
 0002:00009274       $unwind$_ssGetPointerContainedData 0000000180085274     CameraCalImageCapture_sfun_registry.obj
 0002:0000927c       $unwind$_ssGetPointerContainedDataWidth 000000018008527c     CameraCalImageCapture_sfun_registry.obj
 0002:00009284       $unwind$_ssRegisterDynamicArrayDataTypeFcn 0000000180085284     CameraCalImageCapture_sfun_registry.obj
 0002:0000928c       $unwind$_ssGetDynamicArrayContainedDataCurrentWidthFcn 000000018008528c     CameraCalImageCapture_sfun_registry.obj
 0002:00009294       $unwind$_ssGetDynamicArrayContainedDataFcn 0000000180085294     CameraCalImageCapture_sfun_registry.obj
 0002:0000929c       $unwind$_ssGetInputPortDynamicArrayDataFcn 000000018008529c     CameraCalImageCapture_sfun_registry.obj
 0002:000092a4       $unwind$_ssGetOutputPortDynamicArrayDataFcn 00000001800852a4     CameraCalImageCapture_sfun_registry.obj
 0002:000092ac       $unwind$_ssGetInputPortDynamicArrayContainedDataFcn 00000001800852ac     CameraCalImageCapture_sfun_registry.obj
 0002:000092b4       $unwind$_ssGetOutputPortDynamicArrayContainedDataFcn 00000001800852b4     CameraCalImageCapture_sfun_registry.obj
 0002:000092bc       $unwind$sf_process_check_sum_call 00000001800852bc     CameraCalImageCapture_sfun_registry.obj
 0002:000092c4       $unwind$sf_process_get_third_party_uses_info_call 00000001800852c4     CameraCalImageCapture_sfun_registry.obj
 0002:000092d4       $unwind$sf_process_get_jit_fallback_info_call 00000001800852d4     CameraCalImageCapture_sfun_registry.obj
 0002:000092e4       $unwind$sf_process_get_post_codegen_info_call 00000001800852e4     CameraCalImageCapture_sfun_registry.obj
 0002:000092f4       $unwind$sf_process_get_updateBuildInfo_args_info_call 00000001800852f4     CameraCalImageCapture_sfun_registry.obj
 0002:00009304       $unwind$sf_process_get_eml_resolved_functions_info_call 0000000180085304     CameraCalImageCapture_sfun_registry.obj
 0002:00009314       $unwind$sf_mex_unlock_call 0000000180085314     CameraCalImageCapture_sfun_registry.obj
 0002:00009324       $unwind$ProcessMexSfunctionCmdLineCall 0000000180085324     CameraCalImageCapture_sfun_registry.obj
 0002:0000932c       $unwind$sf_machine_global_initializer_called 000000018008532c     CameraCalImageCapture_sfun_registry.obj
 0002:00009334       $unwind$sf_machine_global_method_dispatcher 0000000180085334     CameraCalImageCapture_sfun_registry.obj
 0002:0000933c       $unwind$sf_machine_global_terminator 000000018008533c     CameraCalImageCapture_sfun_registry.obj
 0002:00009344       $unwind$sf_register_machine_exported_symbols 0000000180085344     CameraCalImageCapture_sfun_registry.obj
 0002:0000934c       $unwind$sf_machine_global_initializer 000000018008534c     CameraCalImageCapture_sfun_registry.obj
 0002:00009354       $unwind$mdlGetSimState     0000000180085354     CameraCalImageCapture_sfun_registry.obj
 0002:0000935c       $unwind$mdlSetSimState     000000018008535c     CameraCalImageCapture_sfun_registry.obj
 0002:00009364       $unwind$mdlSetWorkWidths   0000000180085364     CameraCalImageCapture_sfun_registry.obj
 0002:0000936c       $unwind$mdlProcessParameters 000000018008536c     CameraCalImageCapture_sfun_registry.obj
 0002:00009374       $unwind$mdl_setup_runtime_resources_processing 0000000180085374     CameraCalImageCapture_sfun_registry.obj
 0002:0000937c       $unwind$mdlSetupRuntimeResources 000000018008537c     CameraCalImageCapture_sfun_registry.obj
 0002:00009384       $unwind$mdl_cleanup_runtime_resources_processing 0000000180085384     CameraCalImageCapture_sfun_registry.obj
 0002:0000938c       $unwind$mdlCleanupRuntimeResources 000000018008538c     CameraCalImageCapture_sfun_registry.obj
 0002:00009394       $unwind$mdl_start_processing 0000000180085394     CameraCalImageCapture_sfun_registry.obj
 0002:0000939c       $unwind$mdlStart           000000018008539c     CameraCalImageCapture_sfun_registry.obj
 0002:000093a4       $unwind$mdl_terminate_processing 00000001800853a4     CameraCalImageCapture_sfun_registry.obj
 0002:000093ac       $unwind$mdlTerminate       00000001800853ac     CameraCalImageCapture_sfun_registry.obj
 0002:000093b4       $unwind$mdlInitializeSizes 00000001800853b4     CameraCalImageCapture_sfun_registry.obj
 0002:000093bc       $unwind$mdlInitializeSampleTimes 00000001800853bc     CameraCalImageCapture_sfun_registry.obj
 0002:000093c4       $unwind$mdl_outputs_continuous_legacy 00000001800853c4     CameraCalImageCapture_sfun_registry.obj
 0002:000093cc       $unwind$mdl_outputs_processing 00000001800853cc     CameraCalImageCapture_sfun_registry.obj
 0002:000093d4       $unwind$mdl_zeroCrossings_processing 00000001800853d4     CameraCalImageCapture_sfun_registry.obj
 0002:000093dc       $unwind$mdlZeroCrossings   00000001800853dc     CameraCalImageCapture_sfun_registry.obj
 0002:000093e4       $unwind$mdl_derivatives_processing 00000001800853e4     CameraCalImageCapture_sfun_registry.obj
 0002:000093ec       $unwind$mdlDerivatives     00000001800853ec     CameraCalImageCapture_sfun_registry.obj
 0002:000093f4       $unwind$mdl_initialize_conditions_processing 00000001800853f4     CameraCalImageCapture_sfun_registry.obj
 0002:000093fc       $unwind$mdlInitializeConditions 00000001800853fc     CameraCalImageCapture_sfun_registry.obj
 0002:00009404       $unwind$mdl_ext_mode_exec_processing 0000000180085404     CameraCalImageCapture_sfun_registry.obj
 0002:0000940c       $unwind$mdlExtModeExec     000000018008540c     CameraCalImageCapture_sfun_registry.obj
 0002:00009414       $unwind$mdlRTW             0000000180085414     CameraCalImageCapture_sfun_registry.obj
 0002:0000941c       $unwind$mdl_enable_processing 000000018008541c     CameraCalImageCapture_sfun_registry.obj
 0002:00009424       $unwind$mdlEnable          0000000180085424     CameraCalImageCapture_sfun_registry.obj
 0002:0000942c       $unwind$mdl_disable_processing 000000018008542c     CameraCalImageCapture_sfun_registry.obj
 0002:00009434       $unwind$mdlDisable         0000000180085434     CameraCalImageCapture_sfun_registry.obj
 0002:0000943c       $unwind$mdlOutputs         000000018008543c     CameraCalImageCapture_sfun_registry.obj
 0002:00009444       $unwind$mdl_update_processing 0000000180085444     CameraCalImageCapture_sfun_registry.obj
 0002:0000944c       $unwind$mdlUpdate          000000018008544c     CameraCalImageCapture_sfun_registry.obj
 0002:00009454       $unwind$ProcessMexSfunctionEveryCall 0000000180085454     CameraCalImageCapture_sfun_registry.obj
 0002:0000945c       $unwind$_RegNumInputPortsCB 000000018008545c     CameraCalImageCapture_sfun_registry.obj
 0002:00009464       $unwind$_RegNumOutputPortsCB 0000000180085464     CameraCalImageCapture_sfun_registry.obj
 0002:0000946c       $unwind$_CreateSimStruct   000000018008546c     CameraCalImageCapture_sfun_registry.obj
 0002:00009474       $unwind$_ProcessMexSfunctionCmdLineCall 0000000180085474     CameraCalImageCapture_sfun_registry.obj
 0002:00009484       $unwind$ReportIndexOutOfBoundsError 0000000180085484     CameraCalImageCapture_sfun_registry.obj
 0002:00009494       $unwind$constructDrawBaseObjectShape 0000000180085494     insertShapeUtilsCore.obj
 0002:0000949c       $unwind$getPositionDataPointer 000000018008549c     insertShapeUtilsCore.obj
 0002:000094a4       $unwind$deletePositionDataPointer 00000001800854a4     insertShapeUtilsCore.obj
 0002:000094ac       $unwind$getPtsDWPointer    00000001800854ac     insertShapeUtilsCore.obj
 0002:000094b4       $unwind$deletePtsDWPointer 00000001800854b4     insertShapeUtilsCore.obj
 0002:000094bc       $unwind$allocatePolygonEdgePointer 00000001800854bc     insertShapeUtilsCore.obj
 0002:000094c4       $unwind$deallocatePolygonEdgePointer 00000001800854c4     insertShapeUtilsCore.obj
 0002:000094cc       $unwind$getColorDataPointer_single 00000001800854cc     insertShapeUtilsCore.obj
 0002:000094d4       $unwind$deleteColorDataPointer_single 00000001800854d4     insertShapeUtilsCore.obj
 0002:000094dc       $unwind$getColorDataPointer_double 00000001800854dc     insertShapeUtilsCore.obj
 0002:000094e4       $unwind$deleteColorDataPointer_double 00000001800854e4     insertShapeUtilsCore.obj
 0002:000094ec       $unwind$getColorDataPointer_uint8 00000001800854ec     insertShapeUtilsCore.obj
 0002:000094f4       $unwind$deleteColorDataPointer_uint8 00000001800854f4     insertShapeUtilsCore.obj
 0002:000094fc       $unwind$getColorDataPointer_uint16 00000001800854fc     insertShapeUtilsCore.obj
 0002:00009504       $unwind$deleteColorDataPointer_uint16 0000000180085504     insertShapeUtilsCore.obj
 0002:0000950c       $unwind$getColorDataPointer_int16 000000018008550c     insertShapeUtilsCore.obj
 0002:00009514       $unwind$deleteColorDataPointer_int16 0000000180085514     insertShapeUtilsCore.obj
 0002:0000951c       $unwind$initialiseDrawbaseShape 000000018008551c     insertShapeUtilsCore.obj
 0002:00009524       $unwind$instantiateDrawBaseShape_single 0000000180085524     insertShapeUtilsCore.obj
 0002:0000952c       $unwind$instantiateDrawBaseShape_double 000000018008552c     insertShapeUtilsCore.obj
 0002:00009534       $unwind$instantiateDrawBaseShape_uint8 0000000180085534     insertShapeUtilsCore.obj
 0002:0000953c       $unwind$instantiateDrawBaseShape_uint16 000000018008553c     insertShapeUtilsCore.obj
 0002:00009544       $unwind$instantiateDrawBaseShape_int16 0000000180085544     insertShapeUtilsCore.obj
 0002:0000954c       $unwind$mDrawShapes        000000018008554c     insertShapeUtilsCore.obj
 0002:00009554       $unwind$deallocateMemoryShape 0000000180085554     insertShapeUtilsCore.obj
 0002:0000955c       $unwind$?floor@@YAMM@Z     000000018008555c     insertShapeUtilsCore.obj
 0002:00009570       $ip2state$?floor@@YAMM@Z   0000000180085570     insertShapeUtilsCore.obj
 0002:00009578       $unwind$?sqrt@@YAMM@Z      0000000180085578     insertShapeUtilsCore.obj
 0002:00009588       $ip2state$?sqrt@@YAMM@Z    0000000180085588     insertShapeUtilsCore.obj
 0002:00009590       $unwind$??_GDrawBase@@UEAAPEAXI@Z 0000000180085590     insertShapeUtilsCore.obj
 0002:00009598       $unwind$??$CheckAndGetNumShape@H@@YAEHHPEBHPEAH1@Z 0000000180085598     insertShapeUtilsCore.obj
 0002:000095a0       $unwind$??$InstantiateShape@MMHHMM@@YAPEAVDrawBase@@PEAMPEAH001HEHHHH1HEEPEAE11@Z 00000001800855a0     insertShapeUtilsCore.obj
 0002:000095b0       $stateUnwindMap$??$InstantiateShape@MMHHMM@@YAPEAVDrawBase@@PEAMPEAH001HEHHHH1HEEPEAE11@Z 00000001800855b0     insertShapeUtilsCore.obj
 0002:00009630       $ip2state$??$InstantiateShape@MMHHMM@@YAPEAVDrawBase@@PEAMPEAH001HEHHHH1HEEPEAE11@Z 0000000180085630     insertShapeUtilsCore.obj
 0002:00009738       $unwind$?dtor$0@?0???$InstantiateShape@MMHHMM@@YAPEAVDrawBase@@PEAMPEAH001HEHHHH1HEEPEAE11@Z@4HA 0000000180085738     insertShapeUtilsCore.obj
 0002:00009740       $unwind$?dtor$1@?0???$InstantiateShape@MMHHMM@@YAPEAVDrawBase@@PEAMPEAH001HEHHHH1HEEPEAE11@Z@4HA 0000000180085740     insertShapeUtilsCore.obj
 0002:00009748       $unwind$?dtor$2@?0???$InstantiateShape@MMHHMM@@YAPEAVDrawBase@@PEAMPEAH001HEHHHH1HEEPEAE11@Z@4HA 0000000180085748     insertShapeUtilsCore.obj
 0002:00009750       $unwind$?dtor$3@?0???$InstantiateShape@MMHHMM@@YAPEAVDrawBase@@PEAMPEAH001HEHHHH1HEEPEAE11@Z@4HA 0000000180085750     insertShapeUtilsCore.obj
 0002:00009758       $unwind$?dtor$4@?0???$InstantiateShape@MMHHMM@@YAPEAVDrawBase@@PEAMPEAH001HEHHHH1HEEPEAE11@Z@4HA 0000000180085758     insertShapeUtilsCore.obj
 0002:00009760       $unwind$?dtor$5@?0???$InstantiateShape@MMHHMM@@YAPEAVDrawBase@@PEAMPEAH001HEHHHH1HEEPEAE11@Z@4HA 0000000180085760     insertShapeUtilsCore.obj
 0002:00009768       $unwind$?dtor$6@?0???$InstantiateShape@MMHHMM@@YAPEAVDrawBase@@PEAMPEAH001HEHHHH1HEEPEAE11@Z@4HA 0000000180085768     insertShapeUtilsCore.obj
 0002:00009770       $unwind$?dtor$7@?0???$InstantiateShape@MMHHMM@@YAPEAVDrawBase@@PEAMPEAH001HEHHHH1HEEPEAE11@Z@4HA 0000000180085770     insertShapeUtilsCore.obj
 0002:00009778       $unwind$?dtor$8@?0???$InstantiateShape@MMHHMM@@YAPEAVDrawBase@@PEAMPEAH001HEHHHH1HEEPEAE11@Z@4HA 0000000180085778     insertShapeUtilsCore.obj
 0002:00009780       $unwind$?dtor$9@?0???$InstantiateShape@MMHHMM@@YAPEAVDrawBase@@PEAMPEAH001HEHHHH1HEEPEAE11@Z@4HA 0000000180085780     insertShapeUtilsCore.obj
 0002:00009788       $unwind$?dtor$10@?0???$InstantiateShape@MMHHMM@@YAPEAVDrawBase@@PEAMPEAH001HEHHHH1HEEPEAE11@Z@4HA 0000000180085788     insertShapeUtilsCore.obj
 0002:00009790       $unwind$?dtor$11@?0???$InstantiateShape@MMHHMM@@YAPEAVDrawBase@@PEAMPEAH001HEHHHH1HEEPEAE11@Z@4HA 0000000180085790     insertShapeUtilsCore.obj
 0002:00009798       $unwind$?dtor$12@?0???$InstantiateShape@MMHHMM@@YAPEAVDrawBase@@PEAMPEAH001HEHHHH1HEEPEAE11@Z@4HA 0000000180085798     insertShapeUtilsCore.obj
 0002:000097a0       $unwind$?dtor$13@?0???$InstantiateShape@MMHHMM@@YAPEAVDrawBase@@PEAMPEAH001HEHHHH1HEEPEAE11@Z@4HA 00000001800857a0     insertShapeUtilsCore.obj
 0002:000097a8       $unwind$?dtor$14@?0???$InstantiateShape@MMHHMM@@YAPEAVDrawBase@@PEAMPEAH001HEHHHH1HEEPEAE11@Z@4HA 00000001800857a8     insertShapeUtilsCore.obj
 0002:000097b0       $unwind$?dtor$15@?0???$InstantiateShape@MMHHMM@@YAPEAVDrawBase@@PEAMPEAH001HEHHHH1HEEPEAE11@Z@4HA 00000001800857b0     insertShapeUtilsCore.obj
 0002:000097b8       $unwind$??$InstantiateShape@NNHHNN@@YAPEAVDrawBase@@PEANPEAH001HEHHHH1HEEPEAE11@Z 00000001800857b8     insertShapeUtilsCore.obj
 0002:000097c8       $stateUnwindMap$??$InstantiateShape@NNHHNN@@YAPEAVDrawBase@@PEANPEAH001HEHHHH1HEEPEAE11@Z 00000001800857c8     insertShapeUtilsCore.obj
 0002:00009850       $ip2state$??$InstantiateShape@NNHHNN@@YAPEAVDrawBase@@PEANPEAH001HEHHHH1HEEPEAE11@Z 0000000180085850     insertShapeUtilsCore.obj
 0002:00009958       $unwind$?dtor$0@?0???$InstantiateShape@NNHHNN@@YAPEAVDrawBase@@PEANPEAH001HEHHHH1HEEPEAE11@Z@4HA 0000000180085958     insertShapeUtilsCore.obj
 0002:00009960       $unwind$?dtor$1@?0???$InstantiateShape@NNHHNN@@YAPEAVDrawBase@@PEANPEAH001HEHHHH1HEEPEAE11@Z@4HA 0000000180085960     insertShapeUtilsCore.obj
 0002:00009968       $unwind$?dtor$2@?0???$InstantiateShape@NNHHNN@@YAPEAVDrawBase@@PEANPEAH001HEHHHH1HEEPEAE11@Z@4HA 0000000180085968     insertShapeUtilsCore.obj
 0002:00009970       $unwind$?dtor$3@?0???$InstantiateShape@NNHHNN@@YAPEAVDrawBase@@PEANPEAH001HEHHHH1HEEPEAE11@Z@4HA 0000000180085970     insertShapeUtilsCore.obj
 0002:00009978       $unwind$?dtor$4@?0???$InstantiateShape@NNHHNN@@YAPEAVDrawBase@@PEANPEAH001HEHHHH1HEEPEAE11@Z@4HA 0000000180085978     insertShapeUtilsCore.obj
 0002:00009980       $unwind$?dtor$5@?0???$InstantiateShape@NNHHNN@@YAPEAVDrawBase@@PEANPEAH001HEHHHH1HEEPEAE11@Z@4HA 0000000180085980     insertShapeUtilsCore.obj
 0002:00009988       $unwind$?dtor$6@?0???$InstantiateShape@NNHHNN@@YAPEAVDrawBase@@PEANPEAH001HEHHHH1HEEPEAE11@Z@4HA 0000000180085988     insertShapeUtilsCore.obj
 0002:00009990       $unwind$?dtor$7@?0???$InstantiateShape@NNHHNN@@YAPEAVDrawBase@@PEANPEAH001HEHHHH1HEEPEAE11@Z@4HA 0000000180085990     insertShapeUtilsCore.obj
 0002:00009998       $unwind$?dtor$8@?0???$InstantiateShape@NNHHNN@@YAPEAVDrawBase@@PEANPEAH001HEHHHH1HEEPEAE11@Z@4HA 0000000180085998     insertShapeUtilsCore.obj
 0002:000099a0       $unwind$?dtor$9@?0???$InstantiateShape@NNHHNN@@YAPEAVDrawBase@@PEANPEAH001HEHHHH1HEEPEAE11@Z@4HA 00000001800859a0     insertShapeUtilsCore.obj
 0002:000099a8       $unwind$?dtor$10@?0???$InstantiateShape@NNHHNN@@YAPEAVDrawBase@@PEANPEAH001HEHHHH1HEEPEAE11@Z@4HA 00000001800859a8     insertShapeUtilsCore.obj
 0002:000099b0       $unwind$?dtor$11@?0???$InstantiateShape@NNHHNN@@YAPEAVDrawBase@@PEANPEAH001HEHHHH1HEEPEAE11@Z@4HA 00000001800859b0     insertShapeUtilsCore.obj
 0002:000099b8       $unwind$?dtor$12@?0???$InstantiateShape@NNHHNN@@YAPEAVDrawBase@@PEANPEAH001HEHHHH1HEEPEAE11@Z@4HA 00000001800859b8     insertShapeUtilsCore.obj
 0002:000099c0       $unwind$?dtor$13@?0???$InstantiateShape@NNHHNN@@YAPEAVDrawBase@@PEANPEAH001HEHHHH1HEEPEAE11@Z@4HA 00000001800859c0     insertShapeUtilsCore.obj
 0002:000099c8       $unwind$?dtor$14@?0???$InstantiateShape@NNHHNN@@YAPEAVDrawBase@@PEANPEAH001HEHHHH1HEEPEAE11@Z@4HA 00000001800859c8     insertShapeUtilsCore.obj
 0002:000099d0       $unwind$?dtor$15@?0???$InstantiateShape@NNHHNN@@YAPEAVDrawBase@@PEANPEAH001HEHHHH1HEEPEAE11@Z@4HA 00000001800859d0     insertShapeUtilsCore.obj
 0002:000099d8       $unwind$??$InstantiateShape@EEHHMM@@YAPEAVDrawBase@@PEAEPEAH0PEAM1HEHHHH1HEE011@Z 00000001800859d8     insertShapeUtilsCore.obj
 0002:000099e8       $stateUnwindMap$??$InstantiateShape@EEHHMM@@YAPEAVDrawBase@@PEAEPEAH0PEAM1HEHHHH1HEE011@Z 00000001800859e8     insertShapeUtilsCore.obj
 0002:00009a70       $ip2state$??$InstantiateShape@EEHHMM@@YAPEAVDrawBase@@PEAEPEAH0PEAM1HEHHHH1HEE011@Z 0000000180085a70     insertShapeUtilsCore.obj
 0002:00009b78       $unwind$?dtor$0@?0???$InstantiateShape@EEHHMM@@YAPEAVDrawBase@@PEAEPEAH0PEAM1HEHHHH1HEE011@Z@4HA 0000000180085b78     insertShapeUtilsCore.obj
 0002:00009b80       $unwind$?dtor$1@?0???$InstantiateShape@EEHHMM@@YAPEAVDrawBase@@PEAEPEAH0PEAM1HEHHHH1HEE011@Z@4HA 0000000180085b80     insertShapeUtilsCore.obj
 0002:00009b88       $unwind$?dtor$2@?0???$InstantiateShape@EEHHMM@@YAPEAVDrawBase@@PEAEPEAH0PEAM1HEHHHH1HEE011@Z@4HA 0000000180085b88     insertShapeUtilsCore.obj
 0002:00009b90       $unwind$?dtor$3@?0???$InstantiateShape@EEHHMM@@YAPEAVDrawBase@@PEAEPEAH0PEAM1HEHHHH1HEE011@Z@4HA 0000000180085b90     insertShapeUtilsCore.obj
 0002:00009b98       $unwind$?dtor$4@?0???$InstantiateShape@EEHHMM@@YAPEAVDrawBase@@PEAEPEAH0PEAM1HEHHHH1HEE011@Z@4HA 0000000180085b98     insertShapeUtilsCore.obj
 0002:00009ba0       $unwind$?dtor$5@?0???$InstantiateShape@EEHHMM@@YAPEAVDrawBase@@PEAEPEAH0PEAM1HEHHHH1HEE011@Z@4HA 0000000180085ba0     insertShapeUtilsCore.obj
 0002:00009ba8       $unwind$?dtor$6@?0???$InstantiateShape@EEHHMM@@YAPEAVDrawBase@@PEAEPEAH0PEAM1HEHHHH1HEE011@Z@4HA 0000000180085ba8     insertShapeUtilsCore.obj
 0002:00009bb0       $unwind$?dtor$7@?0???$InstantiateShape@EEHHMM@@YAPEAVDrawBase@@PEAEPEAH0PEAM1HEHHHH1HEE011@Z@4HA 0000000180085bb0     insertShapeUtilsCore.obj
 0002:00009bb8       $unwind$?dtor$8@?0???$InstantiateShape@EEHHMM@@YAPEAVDrawBase@@PEAEPEAH0PEAM1HEHHHH1HEE011@Z@4HA 0000000180085bb8     insertShapeUtilsCore.obj
 0002:00009bc0       $unwind$?dtor$9@?0???$InstantiateShape@EEHHMM@@YAPEAVDrawBase@@PEAEPEAH0PEAM1HEHHHH1HEE011@Z@4HA 0000000180085bc0     insertShapeUtilsCore.obj
 0002:00009bc8       $unwind$?dtor$10@?0???$InstantiateShape@EEHHMM@@YAPEAVDrawBase@@PEAEPEAH0PEAM1HEHHHH1HEE011@Z@4HA 0000000180085bc8     insertShapeUtilsCore.obj
 0002:00009bd0       $unwind$?dtor$11@?0???$InstantiateShape@EEHHMM@@YAPEAVDrawBase@@PEAEPEAH0PEAM1HEHHHH1HEE011@Z@4HA 0000000180085bd0     insertShapeUtilsCore.obj
 0002:00009bd8       $unwind$?dtor$12@?0???$InstantiateShape@EEHHMM@@YAPEAVDrawBase@@PEAEPEAH0PEAM1HEHHHH1HEE011@Z@4HA 0000000180085bd8     insertShapeUtilsCore.obj
 0002:00009be0       $unwind$?dtor$13@?0???$InstantiateShape@EEHHMM@@YAPEAVDrawBase@@PEAEPEAH0PEAM1HEHHHH1HEE011@Z@4HA 0000000180085be0     insertShapeUtilsCore.obj
 0002:00009be8       $unwind$?dtor$14@?0???$InstantiateShape@EEHHMM@@YAPEAVDrawBase@@PEAEPEAH0PEAM1HEHHHH1HEE011@Z@4HA 0000000180085be8     insertShapeUtilsCore.obj
 0002:00009bf0       $unwind$?dtor$15@?0???$InstantiateShape@EEHHMM@@YAPEAVDrawBase@@PEAEPEAH0PEAM1HEHHHH1HEE011@Z@4HA 0000000180085bf0     insertShapeUtilsCore.obj
 0002:00009bf8       $unwind$??$InstantiateShape@GGHHMM@@YAPEAVDrawBase@@PEAGPEAH0PEAM1HEHHHH1HEEPEAE11@Z 0000000180085bf8     insertShapeUtilsCore.obj
 0002:00009c08       $stateUnwindMap$??$InstantiateShape@GGHHMM@@YAPEAVDrawBase@@PEAGPEAH0PEAM1HEHHHH1HEEPEAE11@Z 0000000180085c08     insertShapeUtilsCore.obj
 0002:00009c90       $ip2state$??$InstantiateShape@GGHHMM@@YAPEAVDrawBase@@PEAGPEAH0PEAM1HEHHHH1HEEPEAE11@Z 0000000180085c90     insertShapeUtilsCore.obj
 0002:00009d98       $unwind$?dtor$0@?0???$InstantiateShape@GGHHMM@@YAPEAVDrawBase@@PEAGPEAH0PEAM1HEHHHH1HEEPEAE11@Z@4HA 0000000180085d98     insertShapeUtilsCore.obj
 0002:00009da0       $unwind$?dtor$1@?0???$InstantiateShape@GGHHMM@@YAPEAVDrawBase@@PEAGPEAH0PEAM1HEHHHH1HEEPEAE11@Z@4HA 0000000180085da0     insertShapeUtilsCore.obj
 0002:00009da8       $unwind$?dtor$2@?0???$InstantiateShape@GGHHMM@@YAPEAVDrawBase@@PEAGPEAH0PEAM1HEHHHH1HEEPEAE11@Z@4HA 0000000180085da8     insertShapeUtilsCore.obj
 0002:00009db0       $unwind$?dtor$3@?0???$InstantiateShape@GGHHMM@@YAPEAVDrawBase@@PEAGPEAH0PEAM1HEHHHH1HEEPEAE11@Z@4HA 0000000180085db0     insertShapeUtilsCore.obj
 0002:00009db8       $unwind$?dtor$4@?0???$InstantiateShape@GGHHMM@@YAPEAVDrawBase@@PEAGPEAH0PEAM1HEHHHH1HEEPEAE11@Z@4HA 0000000180085db8     insertShapeUtilsCore.obj
 0002:00009dc0       $unwind$?dtor$5@?0???$InstantiateShape@GGHHMM@@YAPEAVDrawBase@@PEAGPEAH0PEAM1HEHHHH1HEEPEAE11@Z@4HA 0000000180085dc0     insertShapeUtilsCore.obj
 0002:00009dc8       $unwind$?dtor$6@?0???$InstantiateShape@GGHHMM@@YAPEAVDrawBase@@PEAGPEAH0PEAM1HEHHHH1HEEPEAE11@Z@4HA 0000000180085dc8     insertShapeUtilsCore.obj
 0002:00009dd0       $unwind$?dtor$7@?0???$InstantiateShape@GGHHMM@@YAPEAVDrawBase@@PEAGPEAH0PEAM1HEHHHH1HEEPEAE11@Z@4HA 0000000180085dd0     insertShapeUtilsCore.obj
 0002:00009dd8       $unwind$?dtor$8@?0???$InstantiateShape@GGHHMM@@YAPEAVDrawBase@@PEAGPEAH0PEAM1HEHHHH1HEEPEAE11@Z@4HA 0000000180085dd8     insertShapeUtilsCore.obj
 0002:00009de0       $unwind$?dtor$9@?0???$InstantiateShape@GGHHMM@@YAPEAVDrawBase@@PEAGPEAH0PEAM1HEHHHH1HEEPEAE11@Z@4HA 0000000180085de0     insertShapeUtilsCore.obj
 0002:00009de8       $unwind$?dtor$10@?0???$InstantiateShape@GGHHMM@@YAPEAVDrawBase@@PEAGPEAH0PEAM1HEHHHH1HEEPEAE11@Z@4HA 0000000180085de8     insertShapeUtilsCore.obj
 0002:00009df0       $unwind$?dtor$11@?0???$InstantiateShape@GGHHMM@@YAPEAVDrawBase@@PEAGPEAH0PEAM1HEHHHH1HEEPEAE11@Z@4HA 0000000180085df0     insertShapeUtilsCore.obj
 0002:00009df8       $unwind$?dtor$12@?0???$InstantiateShape@GGHHMM@@YAPEAVDrawBase@@PEAGPEAH0PEAM1HEHHHH1HEEPEAE11@Z@4HA 0000000180085df8     insertShapeUtilsCore.obj
 0002:00009e00       $unwind$?dtor$13@?0???$InstantiateShape@GGHHMM@@YAPEAVDrawBase@@PEAGPEAH0PEAM1HEHHHH1HEEPEAE11@Z@4HA 0000000180085e00     insertShapeUtilsCore.obj
 0002:00009e08       $unwind$?dtor$14@?0???$InstantiateShape@GGHHMM@@YAPEAVDrawBase@@PEAGPEAH0PEAM1HEHHHH1HEEPEAE11@Z@4HA 0000000180085e08     insertShapeUtilsCore.obj
 0002:00009e10       $unwind$?dtor$15@?0???$InstantiateShape@GGHHMM@@YAPEAVDrawBase@@PEAGPEAH0PEAM1HEHHHH1HEEPEAE11@Z@4HA 0000000180085e10     insertShapeUtilsCore.obj
 0002:00009e18       $unwind$??$InstantiateShape@FFHHMM@@YAPEAVDrawBase@@PEAFPEAH0PEAM1HEHHHH1HEEPEAE11@Z 0000000180085e18     insertShapeUtilsCore.obj
 0002:00009e28       $stateUnwindMap$??$InstantiateShape@FFHHMM@@YAPEAVDrawBase@@PEAFPEAH0PEAM1HEHHHH1HEEPEAE11@Z 0000000180085e28     insertShapeUtilsCore.obj
 0002:00009eb0       $ip2state$??$InstantiateShape@FFHHMM@@YAPEAVDrawBase@@PEAFPEAH0PEAM1HEHHHH1HEEPEAE11@Z 0000000180085eb0     insertShapeUtilsCore.obj
 0002:00009fb8       $unwind$?dtor$0@?0???$InstantiateShape@FFHHMM@@YAPEAVDrawBase@@PEAFPEAH0PEAM1HEHHHH1HEEPEAE11@Z@4HA 0000000180085fb8     insertShapeUtilsCore.obj
 0002:00009fc0       $unwind$?dtor$1@?0???$InstantiateShape@FFHHMM@@YAPEAVDrawBase@@PEAFPEAH0PEAM1HEHHHH1HEEPEAE11@Z@4HA 0000000180085fc0     insertShapeUtilsCore.obj
 0002:00009fc8       $unwind$?dtor$2@?0???$InstantiateShape@FFHHMM@@YAPEAVDrawBase@@PEAFPEAH0PEAM1HEHHHH1HEEPEAE11@Z@4HA 0000000180085fc8     insertShapeUtilsCore.obj
 0002:00009fd0       $unwind$?dtor$3@?0???$InstantiateShape@FFHHMM@@YAPEAVDrawBase@@PEAFPEAH0PEAM1HEHHHH1HEEPEAE11@Z@4HA 0000000180085fd0     insertShapeUtilsCore.obj
 0002:00009fd8       $unwind$?dtor$4@?0???$InstantiateShape@FFHHMM@@YAPEAVDrawBase@@PEAFPEAH0PEAM1HEHHHH1HEEPEAE11@Z@4HA 0000000180085fd8     insertShapeUtilsCore.obj
 0002:00009fe0       $unwind$?dtor$5@?0???$InstantiateShape@FFHHMM@@YAPEAVDrawBase@@PEAFPEAH0PEAM1HEHHHH1HEEPEAE11@Z@4HA 0000000180085fe0     insertShapeUtilsCore.obj
 0002:00009fe8       $unwind$?dtor$6@?0???$InstantiateShape@FFHHMM@@YAPEAVDrawBase@@PEAFPEAH0PEAM1HEHHHH1HEEPEAE11@Z@4HA 0000000180085fe8     insertShapeUtilsCore.obj
 0002:00009ff0       $unwind$?dtor$7@?0???$InstantiateShape@FFHHMM@@YAPEAVDrawBase@@PEAFPEAH0PEAM1HEHHHH1HEEPEAE11@Z@4HA 0000000180085ff0     insertShapeUtilsCore.obj
 0002:00009ff8       $unwind$?dtor$8@?0???$InstantiateShape@FFHHMM@@YAPEAVDrawBase@@PEAFPEAH0PEAM1HEHHHH1HEEPEAE11@Z@4HA 0000000180085ff8     insertShapeUtilsCore.obj
 0002:0000a000       $unwind$?dtor$9@?0???$InstantiateShape@FFHHMM@@YAPEAVDrawBase@@PEAFPEAH0PEAM1HEHHHH1HEEPEAE11@Z@4HA 0000000180086000     insertShapeUtilsCore.obj
 0002:0000a008       $unwind$?dtor$10@?0???$InstantiateShape@FFHHMM@@YAPEAVDrawBase@@PEAFPEAH0PEAM1HEHHHH1HEEPEAE11@Z@4HA 0000000180086008     insertShapeUtilsCore.obj
 0002:0000a010       $unwind$?dtor$11@?0???$InstantiateShape@FFHHMM@@YAPEAVDrawBase@@PEAFPEAH0PEAM1HEHHHH1HEEPEAE11@Z@4HA 0000000180086010     insertShapeUtilsCore.obj
 0002:0000a018       $unwind$?dtor$12@?0???$InstantiateShape@FFHHMM@@YAPEAVDrawBase@@PEAFPEAH0PEAM1HEHHHH1HEEPEAE11@Z@4HA 0000000180086018     insertShapeUtilsCore.obj
 0002:0000a020       $unwind$?dtor$13@?0???$InstantiateShape@FFHHMM@@YAPEAVDrawBase@@PEAFPEAH0PEAM1HEHHHH1HEEPEAE11@Z@4HA 0000000180086020     insertShapeUtilsCore.obj
 0002:0000a028       $unwind$?dtor$14@?0???$InstantiateShape@FFHHMM@@YAPEAVDrawBase@@PEAFPEAH0PEAM1HEHHHH1HEEPEAE11@Z@4HA 0000000180086028     insertShapeUtilsCore.obj
 0002:0000a030       $unwind$?dtor$15@?0???$InstantiateShape@FFHHMM@@YAPEAVDrawBase@@PEAFPEAH0PEAM1HEHHHH1HEEPEAE11@Z@4HA 0000000180086030     insertShapeUtilsCore.obj
 0002:0000a038       $unwind$??$CheckDataDimen@H@@YAEHPEBHHAEAH@Z 0000000180086038     insertShapeUtilsCore.obj
 0002:0000a040       $unwind$??$CheckDataDimenEven@H@@YAEHPEBHHAEAH1@Z 0000000180086040     insertShapeUtilsCore.obj
 0002:0000a048       $unwind$??0?$DrawCommon@MMHHMMEH@@QEAA@PEAM00HHH0HPEAHHH1EEE0HPEAE00@Z 0000000180086048     insertShapeUtilsCore.obj
 0002:0000a058       $stateUnwindMap$??0?$DrawCommon@MMHHMMEH@@QEAA@PEAM00HHH0HPEAHHH1EEE0HPEAE00@Z 0000000180086058     insertShapeUtilsCore.obj
 0002:0000a060       $ip2state$??0?$DrawCommon@MMHHMMEH@@QEAA@PEAM00HHH0HPEAHHH1EEE0HPEAE00@Z 0000000180086060     insertShapeUtilsCore.obj
 0002:0000a078       $unwind$?dtor$0@?0???0?$DrawCommon@MMHHMMEH@@QEAA@PEAM00HHH0HPEAHHH1EEE0HPEAE00@Z@4HA 0000000180086078     insertShapeUtilsCore.obj
 0002:0000a080       $unwind$??1?$DrawCommon@MMHHMMEH@@UEAA@XZ 0000000180086080     insertShapeUtilsCore.obj
 0002:0000a088       $unwind$?CleanUp@?$DrawCommon@MMHHMMEH@@UEAAXXZ 0000000180086088     insertShapeUtilsCore.obj
 0002:0000a090       $unwind$?UpdateImageBoundary@?$DrawCommon@MMHHMMEH@@UEAAXHH@Z 0000000180086090     insertShapeUtilsCore.obj
 0002:0000a098       $unwind$?UpdateViewPort@?$DrawCommon@MMHHMMEH@@UEAAXPEAH@Z 0000000180086098     insertShapeUtilsCore.obj
 0002:0000a0a0       $unwind$?UpdateFillColorOpacity@?$DrawCommon@MMHHMMEH@@UEAAXE@Z 00000001800860a0     insertShapeUtilsCore.obj
 0002:0000a0a8       $unwind$?MoveToNextFillColor@?$DrawCommon@MMHHMMEH@@IEAAXXZ 00000001800860a8     insertShapeUtilsCore.obj
 0002:0000a0b0       $unwind$?MoveToNextOpacity@?$DrawCommon@MMHHMMEH@@IEAAXXZ 00000001800860b0     insertShapeUtilsCore.obj
 0002:0000a0b8       $unwind$?PlotSubPixels@?$DrawCommon@MMHHMMEH@@IEAAXHHHHH@Z 00000001800860b8     insertShapeUtilsCore.obj
 0002:0000a0c0       $unwind$?PlotVerticalLine@?$DrawCommon@MMHHMMEH@@IEAAXHHHHH@Z 00000001800860c0     insertShapeUtilsCore.obj
 0002:0000a0c8       $unwind$?PlotVerticalLineCheckRange@?$DrawCommon@MMHHMMEH@@IEAAXHHHHH@Z 00000001800860c8     insertShapeUtilsCore.obj
 0002:0000a0d0       $unwind$?CountSubPixel@?$DrawCommon@MMHHMMEH@@IEAAXHHHHAEAH0HH@Z 00000001800860d0     insertShapeUtilsCore.obj
 0002:0000a0d8       $unwind$?PlotVerticalLine@?$DrawCommon@MMHHMMEH@@AEAAXHHHHHE@Z 00000001800860d8     insertShapeUtilsCore.obj
 0002:0000a0e0       $unwind$?PlotVerticalLineOneColor@?$DrawCommon@MMHHMMEH@@AEAAXPEAMHHHHH@Z 00000001800860e0     insertShapeUtilsCore.obj
 0002:0000a0e8       $unwind$?PlotSubPixels@?$DrawCommon@MMHHMMEH@@AEAAXHHHHHE@Z 00000001800860e8     insertShapeUtilsCore.obj
 0002:0000a0f0       $unwind$?PlotSubPixelsOneColor@?$DrawCommon@MMHHMMEH@@AEAAXPEAMHHHHH@Z 00000001800860f0     insertShapeUtilsCore.obj
 0002:0000a0f8       $unwind$?PlotOneSubPixelOneColor@?$DrawCommon@MMHHMMEH@@AEAAXPEAMHEHH@Z 00000001800860f8     insertShapeUtilsCore.obj
 0002:0000a100       $unwind$?IsMoreClr@?$DrawCommon@MMHHMMEH@@AEAAHH@Z 0000000180086100     insertShapeUtilsCore.obj
 0002:0000a108       $unwind$??_G?$DrawCommon@MMHHMMEH@@UEAAPEAXI@Z 0000000180086108     insertShapeUtilsCore.obj
 0002:0000a110       $unwind$??0?$DrawFilledRectangle@MMHHMME@@QEAA@PEAM00HHH0HPEAHHH1EEE0HPEAE00@Z 0000000180086110     insertShapeUtilsCore.obj
 0002:0000a118       $unwind$?ProcessOneShape@?$DrawFilledRectangle@MMHHMME@@QEAAXXZ 0000000180086118     insertShapeUtilsCore.obj
 0002:0000a128       $unwind$??1?$DrawFilledRectangle@MMHHMME@@UEAA@XZ 0000000180086128     insertShapeUtilsCore.obj
 0002:0000a130       $unwind$??_G?$DrawFilledRectangle@MMHHMME@@UEAAPEAXI@Z 0000000180086130     insertShapeUtilsCore.obj
 0002:0000a138       $unwind$??0?$DrawFilledRectangleAnySize@MMHHMME@@QEAA@PEAM00HHH0HPEAHHH1EEE0HPEAE00PEBH@Z 0000000180086138     insertShapeUtilsCore.obj
 0002:0000a140       $unwind$??1?$DrawFilledRectangleAnySize@MMHHMME@@UEAA@XZ 0000000180086140     insertShapeUtilsCore.obj
 0002:0000a148       $unwind$?ProcessStep@?$DrawFilledRectangleAnySize@MMHHMME@@UEAAXXZ 0000000180086148     insertShapeUtilsCore.obj
 0002:0000a150       $unwind$??_G?$DrawFilledRectangleAnySize@MMHHMME@@UEAAPEAXI@Z 0000000180086150     insertShapeUtilsCore.obj
 0002:0000a158       $unwind$??0?$DrawCommon@MMHHMMEE@@QEAA@PEAM00HHH0HPEAHHH1EEE0HPEAE00@Z 0000000180086158     insertShapeUtilsCore.obj
 0002:0000a168       $stateUnwindMap$??0?$DrawCommon@MMHHMMEE@@QEAA@PEAM00HHH0HPEAHHH1EEE0HPEAE00@Z 0000000180086168     insertShapeUtilsCore.obj
 0002:0000a170       $ip2state$??0?$DrawCommon@MMHHMMEE@@QEAA@PEAM00HHH0HPEAHHH1EEE0HPEAE00@Z 0000000180086170     insertShapeUtilsCore.obj
 0002:0000a188       $unwind$?dtor$0@?0???0?$DrawCommon@MMHHMMEE@@QEAA@PEAM00HHH0HPEAHHH1EEE0HPEAE00@Z@4HA 0000000180086188     insertShapeUtilsCore.obj
 0002:0000a190       $unwind$??1?$DrawCommon@MMHHMMEE@@UEAA@XZ 0000000180086190     insertShapeUtilsCore.obj
 0002:0000a198       $unwind$?CleanUp@?$DrawCommon@MMHHMMEE@@UEAAXXZ 0000000180086198     insertShapeUtilsCore.obj
 0002:0000a1a0       $unwind$?UpdateImageBoundary@?$DrawCommon@MMHHMMEE@@UEAAXHH@Z 00000001800861a0     insertShapeUtilsCore.obj
 0002:0000a1a8       $unwind$?UpdateViewPort@?$DrawCommon@MMHHMMEE@@UEAAXPEAH@Z 00000001800861a8     insertShapeUtilsCore.obj
 0002:0000a1b0       $unwind$?UpdateFillColorOpacity@?$DrawCommon@MMHHMMEE@@UEAAXE@Z 00000001800861b0     insertShapeUtilsCore.obj
 0002:0000a1b8       $unwind$?MoveToNextFillColor@?$DrawCommon@MMHHMMEE@@IEAAXXZ 00000001800861b8     insertShapeUtilsCore.obj
 0002:0000a1c0       $unwind$?MoveToNextOpacity@?$DrawCommon@MMHHMMEE@@IEAAXXZ 00000001800861c0     insertShapeUtilsCore.obj
 0002:0000a1c8       $unwind$?PlotOnePixel@?$DrawCommon@MMHHMMEE@@IEAAXHH@Z 00000001800861c8     insertShapeUtilsCore.obj
 0002:0000a1d0       $unwind$?PlotPixelsCheckRange@?$DrawCommon@MMHHMMEE@@IEAAXHHH@Z 00000001800861d0     insertShapeUtilsCore.obj
 0002:0000a1d8       $unwind$?PlotSubPixels@?$DrawCommon@MMHHMMEE@@IEAAXHHHHH@Z 00000001800861d8     insertShapeUtilsCore.obj
 0002:0000a1e0       $unwind$?PlotSubPixels@?$DrawCommon@MMHHMMEE@@IEAAXHEHH@Z 00000001800861e0     insertShapeUtilsCore.obj
 0002:0000a1e8       $unwind$?CountSubPixel@?$DrawCommon@MMHHMMEE@@IEAAXHHHHAEAH0HH@Z 00000001800861e8     insertShapeUtilsCore.obj
 0002:0000a1f0       $unwind$?PlotOnePixel@?$DrawCommon@MMHHMMEE@@AEAAXHHE@Z 00000001800861f0     insertShapeUtilsCore.obj
 0002:0000a1f8       $unwind$?PlotSubPixels@?$DrawCommon@MMHHMMEE@@AEAAXHHHHHE@Z 00000001800861f8     insertShapeUtilsCore.obj
 0002:0000a200       $unwind$?PlotSubPixelsOneColor@?$DrawCommon@MMHHMMEE@@AEAAXPEAMHHHHH@Z 0000000180086200     insertShapeUtilsCore.obj
 0002:0000a208       $unwind$?PlotSubPixels@?$DrawCommon@MMHHMMEE@@AEAAXHEHHE@Z 0000000180086208     insertShapeUtilsCore.obj
 0002:0000a210       $unwind$?PlotOneSubPixelOneColor@?$DrawCommon@MMHHMMEE@@AEAAXPEAMHEHH@Z 0000000180086210     insertShapeUtilsCore.obj
 0002:0000a218       $unwind$?IsMoreClr@?$DrawCommon@MMHHMMEE@@AEAAHH@Z 0000000180086218     insertShapeUtilsCore.obj
 0002:0000a220       $unwind$??_G?$DrawCommon@MMHHMMEE@@UEAAPEAXI@Z 0000000180086220     insertShapeUtilsCore.obj
 0002:0000a228       $unwind$??0?$DrawLine@MMHHMMEE@@QEAA@PEAM00HHH0HPEAHHH1EEE0HPEAE00@Z 0000000180086228     insertShapeUtilsCore.obj
 0002:0000a230       $unwind$??1?$DrawLine@MMHHMMEE@@UEAA@XZ 0000000180086230     insertShapeUtilsCore.obj
 0002:0000a238       $unwind$?ProcessOneShape@?$DrawLine@MMHHMMEE@@QEAAXXZ 0000000180086238     insertShapeUtilsCore.obj
 0002:0000a240       $unwind$?ProcessOneShape@?$DrawLine@MMHHMMEE@@QEAAXE@Z 0000000180086240     insertShapeUtilsCore.obj
 0002:0000a250       $unwind$?Initialize@?$BresenhamLine@HE@@QEAAXPEAHH@Z 0000000180086250     insertShapeUtilsCore.obj
 0002:0000a258       $unwind$?IsInRange@?$BresenhamLine@HE@@QEAAEXZ 0000000180086258     insertShapeUtilsCore.obj
 0002:0000a260       $unwind$?MoveToNextPosition@?$BresenhamLine@HE@@QEAAXXZ 0000000180086260     insertShapeUtilsCore.obj
 0002:0000a268       $unwind$?AbsoluteValue@?$BresenhamLine@HE@@AEAAHH@Z 0000000180086268     insertShapeUtilsCore.obj
 0002:0000a270       $unwind$?SwapValues@?$BresenhamLine@HE@@AEAAXAEAH0@Z 0000000180086270     insertShapeUtilsCore.obj
 0002:0000a278       $unwind$??_G?$DrawLine@MMHHMMEE@@UEAAPEAXI@Z 0000000180086278     insertShapeUtilsCore.obj
 0002:0000a280       $unwind$??0?$DrawMarkerLine@MMHHMMEE@@QEAA@PEAM00HHH0HPEAHHH1EEE0HPEAE00@Z 0000000180086280     insertShapeUtilsCore.obj
 0002:0000a288       $unwind$?ProcessOneShape@?$DrawMarkerLine@MMHHMMEE@@QEAAXXZ 0000000180086288     insertShapeUtilsCore.obj
 0002:0000a290       $unwind$?ProcessOneShape@?$DrawMarkerLine@MMHHMMEE@@QEAAXE@Z 0000000180086290     insertShapeUtilsCore.obj
 0002:0000a2a0       $unwind$??1?$DrawMarkerLine@MMHHMMEE@@UEAA@XZ 00000001800862a0     insertShapeUtilsCore.obj
 0002:0000a2a8       $unwind$??_G?$DrawMarkerLine@MMHHMMEE@@UEAAPEAXI@Z 00000001800862a8     insertShapeUtilsCore.obj
 0002:0000a2b0       $unwind$??0?$DrawRectangleAnySize@MMHHMME@@QEAA@PEAM00HHH0HPEAHHH1EEE0HPEAE001@Z 00000001800862b0     insertShapeUtilsCore.obj
 0002:0000a2b8       $unwind$??1?$DrawRectangleAnySize@MMHHMME@@UEAA@XZ 00000001800862b8     insertShapeUtilsCore.obj
 0002:0000a2c0       $unwind$?ProcessStep@?$DrawRectangleAnySize@MMHHMME@@UEAAXXZ 00000001800862c0     insertShapeUtilsCore.obj
 0002:0000a2c8       $unwind$??_G?$DrawRectangleAnySize@MMHHMME@@UEAAPEAXI@Z 00000001800862c8     insertShapeUtilsCore.obj
 0002:0000a2d0       $unwind$?NextColumn@?$Polygon@HHH@@QEAAXXZ 00000001800862d0     insertShapeUtilsCore.obj
 0002:0000a2d8       $unwind$?MoveToColumn@?$Polygon@HHH@@QEAAXH@Z 00000001800862d8     insertShapeUtilsCore.obj
 0002:0000a2e0       $unwind$?GetFirstCol@?$Polygon@HHH@@QEAAHXZ 00000001800862e0     insertShapeUtilsCore.obj
 0002:0000a2e8       $unwind$?GetLastCol@?$Polygon@HHH@@QEAAHXZ 00000001800862e8     insertShapeUtilsCore.obj
 0002:0000a2f0       $unwind$?IsMoreSeparator@?$Polygon@HHH@@QEAAEXZ 00000001800862f0     insertShapeUtilsCore.obj
 0002:0000a2f8       $unwind$?GetAndAdvanceSeparator@?$Polygon@HHH@@QEAAHXZ 00000001800862f8     insertShapeUtilsCore.obj
 0002:0000a300       $unwind$?GetSeparator@?$Polygon@HHH@@QEAAHXZ 0000000180086300     insertShapeUtilsCore.obj
 0002:0000a308       $unwind$?Reset@?$Polygon@HHH@@QEAAXXZ 0000000180086308     insertShapeUtilsCore.obj
 0002:0000a310       $unwind$?IsMorePolygon@?$Polygon@HHH@@QEAAEXZ 0000000180086310     insertShapeUtilsCore.obj
 0002:0000a318       $unwind$?IniPolygon@?$Polygon@HHH@@QEAAXE@Z 0000000180086318     insertShapeUtilsCore.obj
 0002:0000a320       $unwind$??0?$Polygon@HHH@@QEAA@PEBHPEAH11HHHEE@Z 0000000180086320     insertShapeUtilsCore.obj
 0002:0000a328       $unwind$?ConvertVerticesToEdges@?$Polygon@HHH@@AEAAEXZ 0000000180086328     insertShapeUtilsCore.obj
 0002:0000a330       $unwind$?getCoordinate@?$Polygon@HHH@@AEAAHH@Z 0000000180086330     insertShapeUtilsCore.obj
 0002:0000a338       $unwind$?SortEdges@?$Polygon@HHH@@AEAAXHHH@Z 0000000180086338     insertShapeUtilsCore.obj
 0002:0000a340       $unwind$?CopyEdge@?$Polygon@HHH@@AEAAXPEAH0HH@Z 0000000180086340     insertShapeUtilsCore.obj
 0002:0000a348       $unwind$?BresenhamLineIni@?$Polygon@HHH@@AEAAXHHHHH@Z 0000000180086348     insertShapeUtilsCore.obj
 0002:0000a350       $unwind$?BresenhamLineMerge@?$Polygon@HHH@@AEAAEHH@Z 0000000180086350     insertShapeUtilsCore.obj
 0002:0000a358       $unwind$?IsMoreForeScanLine@?$ScanLineBase@HHH@@QEAAEXZ 0000000180086358     insertShapeUtilsCore.obj
 0002:0000a360       $unwind$?GetScanLine@?$ScanLineBase@HHH@@QEAAXAEAEAEAH11@Z 0000000180086360     insertShapeUtilsCore.obj
 0002:0000a368       $unwind$?IsMoreLayer@?$ScanLineBase@HHH@@QEAAEXZ 0000000180086368     insertShapeUtilsCore.obj
 0002:0000a370       $unwind$?UpdatePolygonNumbers@?$ScanLineBase@HHH@@QEAAXHHH@Z 0000000180086370     insertShapeUtilsCore.obj
 0002:0000a378       $unwind$??1?$ScanLineBase@HHH@@UEAA@XZ 0000000180086378     insertShapeUtilsCore.obj
 0002:0000a380       $unwind$??_G?$ScanLineBase@HHH@@UEAAPEAXI@Z 0000000180086380     insertShapeUtilsCore.obj
 0002:0000a388       $unwind$?IniLayer@?$ScanLine@HHH@@UEAAXXZ 0000000180086388     insertShapeUtilsCore.obj
 0002:0000a390       $unwind$?NextLayer@?$ScanLine@HHH@@UEAAXXZ 0000000180086390     insertShapeUtilsCore.obj
 0002:0000a398       $unwind$?Reset@?$ScanLine@HHH@@UEAAXXZ 0000000180086398     insertShapeUtilsCore.obj
 0002:0000a3a0       $unwind$??0?$ScanLine@HHH@@QEAA@PEAV?$Polygon@HHH@@HHHH@Z 00000001800863a0     insertShapeUtilsCore.obj
 0002:0000a3a8       $unwind$?NextColumn@?$ScanLine@HHH@@EEAAXXZ 00000001800863a8     insertShapeUtilsCore.obj
 0002:0000a3b0       $unwind$??1?$ScanLine@HHH@@UEAA@XZ 00000001800863b0     insertShapeUtilsCore.obj
 0002:0000a3b8       $unwind$??_G?$ScanLine@HHH@@UEAAPEAXI@Z 00000001800863b8     insertShapeUtilsCore.obj
 0002:0000a3c0       $unwind$??0?$DrawFilledPolygon@MMHHMMEH@@QEAA@PEAM00HHH0HPEAHHH1EEE0HPEAE00PEAV?$ScanLineBase@HHH@@11@Z 00000001800863c0     insertShapeUtilsCore.obj
 0002:0000a3c8       $unwind$??1?$DrawFilledPolygon@MMHHMMEH@@UEAA@XZ 00000001800863c8     insertShapeUtilsCore.obj
 0002:0000a3d0       $unwind$?ProcessStep@?$DrawFilledPolygon@MMHHMMEH@@UEAAXXZ 00000001800863d0     insertShapeUtilsCore.obj
 0002:0000a3d8       $unwind$?nearest@?$DrawFilledPolygon@MMHHMMEH@@AEAAHM@Z 00000001800863d8     insertShapeUtilsCore.obj
 0002:0000a3e0       $unwind$?lclDSPFixptSqrt@?$DrawFilledPolygon@MMHHMMEH@@AEAAXAEAMM@Z 00000001800863e0     insertShapeUtilsCore.obj
 0002:0000a3e8       $unwind$?getLineParams@?$DrawFilledPolygon@MMHHMMEH@@AEAAXHHHHHHPEAMAEAW4Paral_T@@@Z 00000001800863e8     insertShapeUtilsCore.obj
 0002:0000a3f0       $unwind$?isValidPair@?$DrawFilledPolygon@MMHHMMEH@@AEAAEHHHHHHPEAM0W4Paral_T@@1@Z 00000001800863f0     insertShapeUtilsCore.obj
 0002:0000a3f8       $unwind$?findPointOfIntersectionNormal@?$DrawFilledPolygon@MMHHMMEH@@AEAAXEPEAMAEAH1W4Paral_T@@@Z 00000001800863f8     insertShapeUtilsCore.obj
 0002:0000a400       $unwind$?findPointOfIntersection@?$DrawFilledPolygon@MMHHMMEH@@AEAAXEPEAM0AEAH1W4Paral_T@@2HH@Z 0000000180086400     insertShapeUtilsCore.obj
 0002:0000a408       $unwind$?is_RightOfLine_CtrToRef@?$DrawFilledPolygon@MMHHMMEH@@AEAAEUXY_T@@00@Z 0000000180086408     insertShapeUtilsCore.obj
 0002:0000a410       $unwind$?convertLinePts2PolygonPts@?$DrawFilledPolygon@MMHHMMEH@@AEAAXXZ 0000000180086410     insertShapeUtilsCore.obj
 0002:0000a420       $unwind$?converPolygonPts2TwoPolygonPts@?$DrawFilledPolygon@MMHHMMEH@@AEAAXXZ 0000000180086420     insertShapeUtilsCore.obj
 0002:0000a430       $unwind$?ProcessStep@?$DrawFilledPolygon@MMHHMMEH@@AEAAXH@Z 0000000180086430     insertShapeUtilsCore.obj
 0002:0000a438       $unwind$??_G?$DrawFilledPolygon@MMHHMMEH@@UEAAPEAXI@Z 0000000180086438     insertShapeUtilsCore.obj
 0002:0000a440       $unwind$?NextColumn@?$Polygon@HHE@@QEAAXXZ 0000000180086440     insertShapeUtilsCore.obj
 0002:0000a448       $unwind$?MoveToColumn@?$Polygon@HHE@@QEAAXH@Z 0000000180086448     insertShapeUtilsCore.obj
 0002:0000a450       $unwind$?GetFirstCol@?$Polygon@HHE@@QEAAHXZ 0000000180086450     insertShapeUtilsCore.obj
 0002:0000a458       $unwind$?GetLastCol@?$Polygon@HHE@@QEAAHXZ 0000000180086458     insertShapeUtilsCore.obj
 0002:0000a460       $unwind$?IsMoreSeparator@?$Polygon@HHE@@QEAAEXZ 0000000180086460     insertShapeUtilsCore.obj
 0002:0000a468       $unwind$?GetAndAdvanceSeparator@?$Polygon@HHE@@QEAAHXZ 0000000180086468     insertShapeUtilsCore.obj
 0002:0000a470       $unwind$?GetSeparator@?$Polygon@HHE@@QEAAHXZ 0000000180086470     insertShapeUtilsCore.obj
 0002:0000a478       $unwind$?Reset@?$Polygon@HHE@@QEAAXXZ 0000000180086478     insertShapeUtilsCore.obj
 0002:0000a480       $unwind$?IsMorePolygon@?$Polygon@HHE@@QEAAEXZ 0000000180086480     insertShapeUtilsCore.obj
 0002:0000a488       $unwind$?IniPolygon@?$Polygon@HHE@@QEAAXE@Z 0000000180086488     insertShapeUtilsCore.obj
 0002:0000a490       $unwind$??0?$Polygon@HHE@@QEAA@PEBHPEAH11HHHEE@Z 0000000180086490     insertShapeUtilsCore.obj
 0002:0000a498       $unwind$?ConvertVerticesToEdges@?$Polygon@HHE@@AEAAEXZ 0000000180086498     insertShapeUtilsCore.obj
 0002:0000a4a0       $unwind$?getCoordinate@?$Polygon@HHE@@AEAAHH@Z 00000001800864a0     insertShapeUtilsCore.obj
 0002:0000a4a8       $unwind$?SortEdges@?$Polygon@HHE@@AEAAXHHH@Z 00000001800864a8     insertShapeUtilsCore.obj
 0002:0000a4b0       $unwind$?CopyEdge@?$Polygon@HHE@@AEAAXPEAH0HH@Z 00000001800864b0     insertShapeUtilsCore.obj
 0002:0000a4b8       $unwind$?BresenhamLineIni@?$Polygon@HHE@@AEAAXHHHHH@Z 00000001800864b8     insertShapeUtilsCore.obj
 0002:0000a4c0       $unwind$?BresenhamLineMerge@?$Polygon@HHE@@AEAAEHH@Z 00000001800864c0     insertShapeUtilsCore.obj
 0002:0000a4c8       $unwind$?IsMoreForeScanLine@?$ScanLineBase@HHE@@QEAAEXZ 00000001800864c8     insertShapeUtilsCore.obj
 0002:0000a4d0       $unwind$?GetScanLine@?$ScanLineBase@HHE@@QEAAXAEAEAEAH11@Z 00000001800864d0     insertShapeUtilsCore.obj
 0002:0000a4d8       $unwind$?IsMoreLayer@?$ScanLineBase@HHE@@QEAAEXZ 00000001800864d8     insertShapeUtilsCore.obj
 0002:0000a4e0       $unwind$?UpdatePolygonNumbers@?$ScanLineBase@HHE@@QEAAXHHH@Z 00000001800864e0     insertShapeUtilsCore.obj
 0002:0000a4e8       $unwind$??1?$ScanLineBase@HHE@@UEAA@XZ 00000001800864e8     insertShapeUtilsCore.obj
 0002:0000a4f0       $unwind$??_G?$ScanLineBase@HHE@@UEAAPEAXI@Z 00000001800864f0     insertShapeUtilsCore.obj
 0002:0000a4f8       $unwind$?IniLayer@?$ScanLine@HHE@@UEAAXXZ 00000001800864f8     insertShapeUtilsCore.obj
 0002:0000a500       $unwind$?NextLayer@?$ScanLine@HHE@@UEAAXXZ 0000000180086500     insertShapeUtilsCore.obj
 0002:0000a508       $unwind$?Reset@?$ScanLine@HHE@@UEAAXXZ 0000000180086508     insertShapeUtilsCore.obj
 0002:0000a510       $unwind$??0?$ScanLine@HHE@@QEAA@PEAV?$Polygon@HHE@@HHHH@Z 0000000180086510     insertShapeUtilsCore.obj
 0002:0000a518       $unwind$?NextColumn@?$ScanLine@HHE@@EEAAXXZ 0000000180086518     insertShapeUtilsCore.obj
 0002:0000a520       $unwind$??1?$ScanLine@HHE@@UEAA@XZ 0000000180086520     insertShapeUtilsCore.obj
 0002:0000a528       $unwind$??_G?$ScanLine@HHE@@UEAAPEAXI@Z 0000000180086528     insertShapeUtilsCore.obj
 0002:0000a530       $unwind$??0?$DrawFilledPolygon@MMHHMMEE@@QEAA@PEAM00HHH0HPEAHHH1EEE0HPEAE00PEAV?$ScanLineBase@HHE@@11@Z 0000000180086530     insertShapeUtilsCore.obj
 0002:0000a538       $unwind$??1?$DrawFilledPolygon@MMHHMMEE@@UEAA@XZ 0000000180086538     insertShapeUtilsCore.obj
 0002:0000a540       $unwind$?ProcessStep@?$DrawFilledPolygon@MMHHMMEE@@UEAAXXZ 0000000180086540     insertShapeUtilsCore.obj
 0002:0000a548       $unwind$?nearest@?$DrawFilledPolygon@MMHHMMEE@@AEAAHM@Z 0000000180086548     insertShapeUtilsCore.obj
 0002:0000a550       $unwind$?lclDSPFixptSqrt@?$DrawFilledPolygon@MMHHMMEE@@AEAAXAEAMM@Z 0000000180086550     insertShapeUtilsCore.obj
 0002:0000a558       $unwind$?getLineParams@?$DrawFilledPolygon@MMHHMMEE@@AEAAXHHHHHHPEAMAEAW4Paral_T@@@Z 0000000180086558     insertShapeUtilsCore.obj
 0002:0000a560       $unwind$?isValidPair@?$DrawFilledPolygon@MMHHMMEE@@AEAAEHHHHHHPEAM0W4Paral_T@@1@Z 0000000180086560     insertShapeUtilsCore.obj
 0002:0000a568       $unwind$?findPointOfIntersectionNormal@?$DrawFilledPolygon@MMHHMMEE@@AEAAXEPEAMAEAH1W4Paral_T@@@Z 0000000180086568     insertShapeUtilsCore.obj
 0002:0000a570       $unwind$?findPointOfIntersection@?$DrawFilledPolygon@MMHHMMEE@@AEAAXEPEAM0AEAH1W4Paral_T@@2HH@Z 0000000180086570     insertShapeUtilsCore.obj
 0002:0000a578       $unwind$?is_RightOfLine_CtrToRef@?$DrawFilledPolygon@MMHHMMEE@@AEAAEUXY_T@@00@Z 0000000180086578     insertShapeUtilsCore.obj
 0002:0000a580       $unwind$?convertLinePts2PolygonPts@?$DrawFilledPolygon@MMHHMMEE@@AEAAXXZ 0000000180086580     insertShapeUtilsCore.obj
 0002:0000a590       $unwind$?converPolygonPts2TwoPolygonPts@?$DrawFilledPolygon@MMHHMMEE@@AEAAXXZ 0000000180086590     insertShapeUtilsCore.obj
 0002:0000a5a0       $unwind$?ProcessStep@?$DrawFilledPolygon@MMHHMMEE@@AEAAXE@Z 00000001800865a0     insertShapeUtilsCore.obj
 0002:0000a5a8       $unwind$??_G?$DrawFilledPolygon@MMHHMMEE@@UEAAPEAXI@Z 00000001800865a8     insertShapeUtilsCore.obj
 0002:0000a5b0       $unwind$??0?$DrawLine@MMHHMMEH@@QEAA@PEAM00HHH0HPEAHHH1EEE0HPEAE00@Z 00000001800865b0     insertShapeUtilsCore.obj
 0002:0000a5b8       $unwind$??1?$DrawLine@MMHHMMEH@@UEAA@XZ 00000001800865b8     insertShapeUtilsCore.obj
 0002:0000a5c0       $unwind$?ProcessOneShape@?$DrawLine@MMHHMMEH@@QEAAXXZ 00000001800865c0     insertShapeUtilsCore.obj
 0002:0000a5c8       $unwind$?ProcessOneShape@?$DrawLine@MMHHMMEH@@QEAAXH@Z 00000001800865c8     insertShapeUtilsCore.obj
 0002:0000a5d8       $unwind$?Initialize@?$BresenhamLine@HH@@QEAAXPEAHH@Z 00000001800865d8     insertShapeUtilsCore.obj
 0002:0000a5e0       $unwind$?IsInRange@?$BresenhamLine@HH@@QEAAEXZ 00000001800865e0     insertShapeUtilsCore.obj
 0002:0000a5e8       $unwind$?IsHorizontal@?$BresenhamLine@HH@@QEAAEXZ 00000001800865e8     insertShapeUtilsCore.obj
 0002:0000a5f0       $unwind$?MoveToNextPosition@?$BresenhamLine@HH@@QEAAXXZ 00000001800865f0     insertShapeUtilsCore.obj
 0002:0000a5f8       $unwind$?AbsoluteValue@?$BresenhamLine@HH@@AEAAHH@Z 00000001800865f8     insertShapeUtilsCore.obj
 0002:0000a600       $unwind$?SwapValues@?$BresenhamLine@HH@@AEAAXAEAH0@Z 0000000180086600     insertShapeUtilsCore.obj
 0002:0000a608       $unwind$??_G?$DrawLine@MMHHMMEH@@UEAAPEAXI@Z 0000000180086608     insertShapeUtilsCore.obj
 0002:0000a610       $unwind$??0?$DrawPolygon@MMHHMMEH@@QEAA@PEAM00HHH0HPEAHHH1EEE0HPEAE0011@Z 0000000180086610     insertShapeUtilsCore.obj
 0002:0000a618       $unwind$??1?$DrawPolygon@MMHHMMEH@@UEAA@XZ 0000000180086618     insertShapeUtilsCore.obj
 0002:0000a620       $unwind$?ProcessStep@?$DrawPolygon@MMHHMMEH@@UEAAXXZ 0000000180086620     insertShapeUtilsCore.obj
 0002:0000a628       $unwind$??_G?$DrawPolygon@MMHHMMEH@@UEAAPEAXI@Z 0000000180086628     insertShapeUtilsCore.obj
 0002:0000a630       $unwind$??0?$DrawPolygon@MMHHMMEE@@QEAA@PEAM00HHH0HPEAHHH1EEE0HPEAE0011@Z 0000000180086630     insertShapeUtilsCore.obj
 0002:0000a638       $unwind$??1?$DrawPolygon@MMHHMMEE@@UEAA@XZ 0000000180086638     insertShapeUtilsCore.obj
 0002:0000a640       $unwind$?ProcessStep@?$DrawPolygon@MMHHMMEE@@UEAAXXZ 0000000180086640     insertShapeUtilsCore.obj
 0002:0000a648       $unwind$??_G?$DrawPolygon@MMHHMMEE@@UEAAPEAXI@Z 0000000180086648     insertShapeUtilsCore.obj
 0002:0000a650       $unwind$??0?$DrawAnyLine@MMHHMMEH@@QEAA@PEAM00HHH0HPEAHHH1EEE0HPEAE0011@Z 0000000180086650     insertShapeUtilsCore.obj
 0002:0000a658       $unwind$??1?$DrawAnyLine@MMHHMMEH@@UEAA@XZ 0000000180086658     insertShapeUtilsCore.obj
 0002:0000a660       $unwind$?ProcessStep@?$DrawAnyLine@MMHHMMEH@@UEAAXXZ 0000000180086660     insertShapeUtilsCore.obj
 0002:0000a668       $unwind$??_G?$DrawAnyLine@MMHHMMEH@@UEAAPEAXI@Z 0000000180086668     insertShapeUtilsCore.obj
 0002:0000a670       $unwind$??0?$DrawAnyLine@MMHHMMEE@@QEAA@PEAM00HHH0HPEAHHH1EEE0HPEAE0011@Z 0000000180086670     insertShapeUtilsCore.obj
 0002:0000a678       $unwind$??1?$DrawAnyLine@MMHHMMEE@@UEAA@XZ 0000000180086678     insertShapeUtilsCore.obj
 0002:0000a680       $unwind$?ProcessStep@?$DrawAnyLine@MMHHMMEE@@UEAAXXZ 0000000180086680     insertShapeUtilsCore.obj
 0002:0000a688       $unwind$??_G?$DrawAnyLine@MMHHMMEE@@UEAAPEAXI@Z 0000000180086688     insertShapeUtilsCore.obj
 0002:0000a690       $unwind$??0?$DrawCircle@MMHHMMEHH@@QEAA@PEAM00HHH0HPEAHHH1EEE0HPEAE00@Z 0000000180086690     insertShapeUtilsCore.obj
 0002:0000a698       $unwind$?ProcessOneShape@?$DrawCircle@MMHHMMEHH@@QEAAXXZ 0000000180086698     insertShapeUtilsCore.obj
 0002:0000a6a0       $unwind$?ProcessOneShape@?$DrawCircle@MMHHMMEHH@@AEAAXHHHHH@Z 00000001800866a0     insertShapeUtilsCore.obj
 0002:0000a6a8       $unwind$?DrawLineAndResetStates@?$DrawCircle@MMHHMMEHH@@AEAAXHHAEAH0H@Z 00000001800866a8     insertShapeUtilsCore.obj
 0002:0000a6b0       $unwind$??1?$DrawCircle@MMHHMMEHH@@UEAA@XZ 00000001800866b0     insertShapeUtilsCore.obj
 0002:0000a6b8       $unwind$??_G?$DrawCircle@MMHHMMEHH@@UEAAPEAXI@Z 00000001800866b8     insertShapeUtilsCore.obj
 0002:0000a6c0       $unwind$??0?$DrawCircleAnySize@MMHHMMEHH@@QEAA@PEAM00HHH0HPEAHHH1EEE0HPEAE001@Z 00000001800866c0     insertShapeUtilsCore.obj
 0002:0000a6c8       $unwind$??1?$DrawCircleAnySize@MMHHMMEHH@@UEAA@XZ 00000001800866c8     insertShapeUtilsCore.obj
 0002:0000a6d0       $unwind$?ProcessStep@?$DrawCircleAnySize@MMHHMMEHH@@UEAAXXZ 00000001800866d0     insertShapeUtilsCore.obj
 0002:0000a6d8       $unwind$??_G?$DrawCircleAnySize@MMHHMMEHH@@UEAAPEAXI@Z 00000001800866d8     insertShapeUtilsCore.obj
 0002:0000a6e0       $unwind$??0?$DrawCircle@MMHHMMEEH@@QEAA@PEAM00HHH0HPEAHHH1EEE0HPEAE00@Z 00000001800866e0     insertShapeUtilsCore.obj
 0002:0000a6e8       $unwind$?ProcessOneShape@?$DrawCircle@MMHHMMEEH@@QEAAXXZ 00000001800866e8     insertShapeUtilsCore.obj
 0002:0000a6f0       $unwind$?ProcessOneShape@?$DrawCircle@MMHHMMEEH@@AEAAXHHHEH@Z 00000001800866f0     insertShapeUtilsCore.obj
 0002:0000a6f8       $unwind$?DrawLineAndResetStates@?$DrawCircle@MMHHMMEEH@@AEAAXHHAEAH0H@Z 00000001800866f8     insertShapeUtilsCore.obj
 0002:0000a700       $unwind$??1?$DrawCircle@MMHHMMEEH@@UEAA@XZ 0000000180086700     insertShapeUtilsCore.obj
 0002:0000a708       $unwind$??_G?$DrawCircle@MMHHMMEEH@@UEAAPEAXI@Z 0000000180086708     insertShapeUtilsCore.obj
 0002:0000a710       $unwind$??0?$DrawCircleAnySize@MMHHMMEEH@@QEAA@PEAM00HHH0HPEAHHH1EEE0HPEAE001@Z 0000000180086710     insertShapeUtilsCore.obj
 0002:0000a718       $unwind$??1?$DrawCircleAnySize@MMHHMMEEH@@UEAA@XZ 0000000180086718     insertShapeUtilsCore.obj
 0002:0000a720       $unwind$?ProcessStep@?$DrawCircleAnySize@MMHHMMEEH@@UEAAXXZ 0000000180086720     insertShapeUtilsCore.obj
 0002:0000a728       $unwind$??_G?$DrawCircleAnySize@MMHHMMEEH@@UEAAPEAXI@Z 0000000180086728     insertShapeUtilsCore.obj
 0002:0000a730       $unwind$??0?$DrawCircle@MMHHMMEHE@@QEAA@PEAM00HHH0HPEAHHH1EEE0HPEAE00@Z 0000000180086730     insertShapeUtilsCore.obj
 0002:0000a738       $unwind$?ProcessOneShape@?$DrawCircle@MMHHMMEHE@@QEAAXXZ 0000000180086738     insertShapeUtilsCore.obj
 0002:0000a740       $unwind$?ProcessOneShape@?$DrawCircle@MMHHMMEHE@@AEAAXHHHHE@Z 0000000180086740     insertShapeUtilsCore.obj
 0002:0000a748       $unwind$??1?$DrawCircle@MMHHMMEHE@@UEAA@XZ 0000000180086748     insertShapeUtilsCore.obj
 0002:0000a750       $unwind$??_G?$DrawCircle@MMHHMMEHE@@UEAAPEAXI@Z 0000000180086750     insertShapeUtilsCore.obj
 0002:0000a758       $unwind$??0?$DrawCircleAnySize@MMHHMMEHE@@QEAA@PEAM00HHH0HPEAHHH1EEE0HPEAE001@Z 0000000180086758     insertShapeUtilsCore.obj
 0002:0000a760       $unwind$??1?$DrawCircleAnySize@MMHHMMEHE@@UEAA@XZ 0000000180086760     insertShapeUtilsCore.obj
 0002:0000a768       $unwind$?ProcessStep@?$DrawCircleAnySize@MMHHMMEHE@@UEAAXXZ 0000000180086768     insertShapeUtilsCore.obj
 0002:0000a770       $unwind$??_G?$DrawCircleAnySize@MMHHMMEHE@@UEAAPEAXI@Z 0000000180086770     insertShapeUtilsCore.obj
 0002:0000a778       $unwind$??0?$DrawCircle@MMHHMMEEE@@QEAA@PEAM00HHH0HPEAHHH1EEE0HPEAE00@Z 0000000180086778     insertShapeUtilsCore.obj
 0002:0000a780       $unwind$?ProcessOneShape@?$DrawCircle@MMHHMMEEE@@QEAAXXZ 0000000180086780     insertShapeUtilsCore.obj
 0002:0000a788       $unwind$?ProcessOneShape@?$DrawCircle@MMHHMMEEE@@AEAAXHHHEE@Z 0000000180086788     insertShapeUtilsCore.obj
 0002:0000a790       $unwind$?ProcessOneShape@?$DrawCircle@MMHHMMEEE@@AEAAXHHHEH@Z 0000000180086790     insertShapeUtilsCore.obj
 0002:0000a798       $unwind$?DrawLineAndResetStates@?$DrawCircle@MMHHMMEEE@@AEAAXHHAEAH0H@Z 0000000180086798     insertShapeUtilsCore.obj
 0002:0000a7a0       $unwind$??1?$DrawCircle@MMHHMMEEE@@UEAA@XZ 00000001800867a0     insertShapeUtilsCore.obj
 0002:0000a7a8       $unwind$??_G?$DrawCircle@MMHHMMEEE@@UEAAPEAXI@Z 00000001800867a8     insertShapeUtilsCore.obj
 0002:0000a7b0       $unwind$??0?$DrawCircleAnySize@MMHHMMEEE@@QEAA@PEAM00HHH0HPEAHHH1EEE0HPEAE001@Z 00000001800867b0     insertShapeUtilsCore.obj
 0002:0000a7b8       $unwind$??1?$DrawCircleAnySize@MMHHMMEEE@@UEAA@XZ 00000001800867b8     insertShapeUtilsCore.obj
 0002:0000a7c0       $unwind$?ProcessStep@?$DrawCircleAnySize@MMHHMMEEE@@UEAAXXZ 00000001800867c0     insertShapeUtilsCore.obj
 0002:0000a7c8       $unwind$??_G?$DrawCircleAnySize@MMHHMMEEE@@UEAAPEAXI@Z 00000001800867c8     insertShapeUtilsCore.obj
 0002:0000a7d0       $unwind$??0?$DrawCommon@NNHHNNEH@@QEAA@PEAN00HHH0HPEAHHH1EEE0HPEAE00@Z 00000001800867d0     insertShapeUtilsCore.obj
 0002:0000a7e0       $stateUnwindMap$??0?$DrawCommon@NNHHNNEH@@QEAA@PEAN00HHH0HPEAHHH1EEE0HPEAE00@Z 00000001800867e0     insertShapeUtilsCore.obj
 0002:0000a7e8       $ip2state$??0?$DrawCommon@NNHHNNEH@@QEAA@PEAN00HHH0HPEAHHH1EEE0HPEAE00@Z 00000001800867e8     insertShapeUtilsCore.obj
 0002:0000a800       $unwind$?dtor$0@?0???0?$DrawCommon@NNHHNNEH@@QEAA@PEAN00HHH0HPEAHHH1EEE0HPEAE00@Z@4HA 0000000180086800     insertShapeUtilsCore.obj
 0002:0000a808       $unwind$??1?$DrawCommon@NNHHNNEH@@UEAA@XZ 0000000180086808     insertShapeUtilsCore.obj
 0002:0000a810       $unwind$?CleanUp@?$DrawCommon@NNHHNNEH@@UEAAXXZ 0000000180086810     insertShapeUtilsCore.obj
 0002:0000a818       $unwind$?UpdateImageBoundary@?$DrawCommon@NNHHNNEH@@UEAAXHH@Z 0000000180086818     insertShapeUtilsCore.obj
 0002:0000a820       $unwind$?UpdateViewPort@?$DrawCommon@NNHHNNEH@@UEAAXPEAH@Z 0000000180086820     insertShapeUtilsCore.obj
 0002:0000a828       $unwind$?UpdateFillColorOpacity@?$DrawCommon@NNHHNNEH@@UEAAXE@Z 0000000180086828     insertShapeUtilsCore.obj
 0002:0000a830       $unwind$?MoveToNextFillColor@?$DrawCommon@NNHHNNEH@@IEAAXXZ 0000000180086830     insertShapeUtilsCore.obj
 0002:0000a838       $unwind$?MoveToNextOpacity@?$DrawCommon@NNHHNNEH@@IEAAXXZ 0000000180086838     insertShapeUtilsCore.obj
 0002:0000a840       $unwind$?PlotSubPixels@?$DrawCommon@NNHHNNEH@@IEAAXHHHHH@Z 0000000180086840     insertShapeUtilsCore.obj
 0002:0000a848       $unwind$?PlotVerticalLine@?$DrawCommon@NNHHNNEH@@IEAAXHHHHH@Z 0000000180086848     insertShapeUtilsCore.obj
 0002:0000a850       $unwind$?PlotVerticalLineCheckRange@?$DrawCommon@NNHHNNEH@@IEAAXHHHHH@Z 0000000180086850     insertShapeUtilsCore.obj
 0002:0000a858       $unwind$?CountSubPixel@?$DrawCommon@NNHHNNEH@@IEAAXHHHHAEAH0HH@Z 0000000180086858     insertShapeUtilsCore.obj
 0002:0000a860       $unwind$?PlotVerticalLine@?$DrawCommon@NNHHNNEH@@AEAAXHHHHHE@Z 0000000180086860     insertShapeUtilsCore.obj
 0002:0000a868       $unwind$?PlotVerticalLineOneColor@?$DrawCommon@NNHHNNEH@@AEAAXPEANHHHHH@Z 0000000180086868     insertShapeUtilsCore.obj
 0002:0000a870       $unwind$?PlotSubPixels@?$DrawCommon@NNHHNNEH@@AEAAXHHHHHE@Z 0000000180086870     insertShapeUtilsCore.obj
 0002:0000a878       $unwind$?PlotSubPixelsOneColor@?$DrawCommon@NNHHNNEH@@AEAAXPEANHHHHH@Z 0000000180086878     insertShapeUtilsCore.obj
 0002:0000a880       $unwind$?PlotOneSubPixelOneColor@?$DrawCommon@NNHHNNEH@@AEAAXPEANHEHH@Z 0000000180086880     insertShapeUtilsCore.obj
 0002:0000a888       $unwind$?IsMoreClr@?$DrawCommon@NNHHNNEH@@AEAAHH@Z 0000000180086888     insertShapeUtilsCore.obj
 0002:0000a890       $unwind$??_G?$DrawCommon@NNHHNNEH@@UEAAPEAXI@Z 0000000180086890     insertShapeUtilsCore.obj
 0002:0000a898       $unwind$??0?$DrawFilledRectangle@NNHHNNE@@QEAA@PEAN00HHH0HPEAHHH1EEE0HPEAE00@Z 0000000180086898     insertShapeUtilsCore.obj
 0002:0000a8a0       $unwind$?ProcessOneShape@?$DrawFilledRectangle@NNHHNNE@@QEAAXXZ 00000001800868a0     insertShapeUtilsCore.obj
 0002:0000a8b0       $unwind$??1?$DrawFilledRectangle@NNHHNNE@@UEAA@XZ 00000001800868b0     insertShapeUtilsCore.obj
 0002:0000a8b8       $unwind$??_G?$DrawFilledRectangle@NNHHNNE@@UEAAPEAXI@Z 00000001800868b8     insertShapeUtilsCore.obj
 0002:0000a8c0       $unwind$??0?$DrawFilledRectangleAnySize@NNHHNNE@@QEAA@PEAN00HHH0HPEAHHH1EEE0HPEAE00PEBH@Z 00000001800868c0     insertShapeUtilsCore.obj
 0002:0000a8c8       $unwind$??1?$DrawFilledRectangleAnySize@NNHHNNE@@UEAA@XZ 00000001800868c8     insertShapeUtilsCore.obj
 0002:0000a8d0       $unwind$?ProcessStep@?$DrawFilledRectangleAnySize@NNHHNNE@@UEAAXXZ 00000001800868d0     insertShapeUtilsCore.obj
 0002:0000a8d8       $unwind$??_G?$DrawFilledRectangleAnySize@NNHHNNE@@UEAAPEAXI@Z 00000001800868d8     insertShapeUtilsCore.obj
 0002:0000a8e0       $unwind$??0?$DrawCommon@NNHHNNEE@@QEAA@PEAN00HHH0HPEAHHH1EEE0HPEAE00@Z 00000001800868e0     insertShapeUtilsCore.obj
 0002:0000a8f0       $stateUnwindMap$??0?$DrawCommon@NNHHNNEE@@QEAA@PEAN00HHH0HPEAHHH1EEE0HPEAE00@Z 00000001800868f0     insertShapeUtilsCore.obj
 0002:0000a8f8       $ip2state$??0?$DrawCommon@NNHHNNEE@@QEAA@PEAN00HHH0HPEAHHH1EEE0HPEAE00@Z 00000001800868f8     insertShapeUtilsCore.obj
 0002:0000a910       $unwind$?dtor$0@?0???0?$DrawCommon@NNHHNNEE@@QEAA@PEAN00HHH0HPEAHHH1EEE0HPEAE00@Z@4HA 0000000180086910     insertShapeUtilsCore.obj
 0002:0000a918       $unwind$??1?$DrawCommon@NNHHNNEE@@UEAA@XZ 0000000180086918     insertShapeUtilsCore.obj
 0002:0000a920       $unwind$?CleanUp@?$DrawCommon@NNHHNNEE@@UEAAXXZ 0000000180086920     insertShapeUtilsCore.obj
 0002:0000a928       $unwind$?UpdateImageBoundary@?$DrawCommon@NNHHNNEE@@UEAAXHH@Z 0000000180086928     insertShapeUtilsCore.obj
 0002:0000a930       $unwind$?UpdateViewPort@?$DrawCommon@NNHHNNEE@@UEAAXPEAH@Z 0000000180086930     insertShapeUtilsCore.obj
 0002:0000a938       $unwind$?UpdateFillColorOpacity@?$DrawCommon@NNHHNNEE@@UEAAXE@Z 0000000180086938     insertShapeUtilsCore.obj
 0002:0000a940       $unwind$?MoveToNextFillColor@?$DrawCommon@NNHHNNEE@@IEAAXXZ 0000000180086940     insertShapeUtilsCore.obj
 0002:0000a948       $unwind$?MoveToNextOpacity@?$DrawCommon@NNHHNNEE@@IEAAXXZ 0000000180086948     insertShapeUtilsCore.obj
 0002:0000a950       $unwind$?PlotOnePixel@?$DrawCommon@NNHHNNEE@@IEAAXHH@Z 0000000180086950     insertShapeUtilsCore.obj
 0002:0000a958       $unwind$?PlotPixelsCheckRange@?$DrawCommon@NNHHNNEE@@IEAAXHHH@Z 0000000180086958     insertShapeUtilsCore.obj
 0002:0000a960       $unwind$?PlotSubPixels@?$DrawCommon@NNHHNNEE@@IEAAXHHHHH@Z 0000000180086960     insertShapeUtilsCore.obj
 0002:0000a968       $unwind$?PlotSubPixels@?$DrawCommon@NNHHNNEE@@IEAAXHEHH@Z 0000000180086968     insertShapeUtilsCore.obj
 0002:0000a970       $unwind$?CountSubPixel@?$DrawCommon@NNHHNNEE@@IEAAXHHHHAEAH0HH@Z 0000000180086970     insertShapeUtilsCore.obj
 0002:0000a978       $unwind$?PlotOnePixel@?$DrawCommon@NNHHNNEE@@AEAAXHHE@Z 0000000180086978     insertShapeUtilsCore.obj
 0002:0000a980       $unwind$?PlotSubPixels@?$DrawCommon@NNHHNNEE@@AEAAXHHHHHE@Z 0000000180086980     insertShapeUtilsCore.obj
 0002:0000a988       $unwind$?PlotSubPixelsOneColor@?$DrawCommon@NNHHNNEE@@AEAAXPEANHHHHH@Z 0000000180086988     insertShapeUtilsCore.obj
 0002:0000a990       $unwind$?PlotSubPixels@?$DrawCommon@NNHHNNEE@@AEAAXHEHHE@Z 0000000180086990     insertShapeUtilsCore.obj
 0002:0000a998       $unwind$?PlotOneSubPixelOneColor@?$DrawCommon@NNHHNNEE@@AEAAXPEANHEHH@Z 0000000180086998     insertShapeUtilsCore.obj
 0002:0000a9a0       $unwind$?IsMoreClr@?$DrawCommon@NNHHNNEE@@AEAAHH@Z 00000001800869a0     insertShapeUtilsCore.obj
 0002:0000a9a8       $unwind$??_G?$DrawCommon@NNHHNNEE@@UEAAPEAXI@Z 00000001800869a8     insertShapeUtilsCore.obj
 0002:0000a9b0       $unwind$??0?$DrawLine@NNHHNNEE@@QEAA@PEAN00HHH0HPEAHHH1EEE0HPEAE00@Z 00000001800869b0     insertShapeUtilsCore.obj
 0002:0000a9b8       $unwind$??1?$DrawLine@NNHHNNEE@@UEAA@XZ 00000001800869b8     insertShapeUtilsCore.obj
 0002:0000a9c0       $unwind$?ProcessOneShape@?$DrawLine@NNHHNNEE@@QEAAXXZ 00000001800869c0     insertShapeUtilsCore.obj
 0002:0000a9c8       $unwind$?ProcessOneShape@?$DrawLine@NNHHNNEE@@QEAAXE@Z 00000001800869c8     insertShapeUtilsCore.obj
 0002:0000a9d8       $unwind$??_G?$DrawLine@NNHHNNEE@@UEAAPEAXI@Z 00000001800869d8     insertShapeUtilsCore.obj
 0002:0000a9e0       $unwind$??0?$DrawMarkerLine@NNHHNNEE@@QEAA@PEAN00HHH0HPEAHHH1EEE0HPEAE00@Z 00000001800869e0     insertShapeUtilsCore.obj
 0002:0000a9e8       $unwind$?ProcessOneShape@?$DrawMarkerLine@NNHHNNEE@@QEAAXXZ 00000001800869e8     insertShapeUtilsCore.obj
 0002:0000a9f0       $unwind$?ProcessOneShape@?$DrawMarkerLine@NNHHNNEE@@QEAAXE@Z 00000001800869f0     insertShapeUtilsCore.obj
 0002:0000aa00       $unwind$??1?$DrawMarkerLine@NNHHNNEE@@UEAA@XZ 0000000180086a00     insertShapeUtilsCore.obj
 0002:0000aa08       $unwind$??_G?$DrawMarkerLine@NNHHNNEE@@UEAAPEAXI@Z 0000000180086a08     insertShapeUtilsCore.obj
 0002:0000aa10       $unwind$??0?$DrawRectangleAnySize@NNHHNNE@@QEAA@PEAN00HHH0HPEAHHH1EEE0HPEAE001@Z 0000000180086a10     insertShapeUtilsCore.obj
 0002:0000aa18       $unwind$??1?$DrawRectangleAnySize@NNHHNNE@@UEAA@XZ 0000000180086a18     insertShapeUtilsCore.obj
 0002:0000aa20       $unwind$?ProcessStep@?$DrawRectangleAnySize@NNHHNNE@@UEAAXXZ 0000000180086a20     insertShapeUtilsCore.obj
 0002:0000aa28       $unwind$??_G?$DrawRectangleAnySize@NNHHNNE@@UEAAPEAXI@Z 0000000180086a28     insertShapeUtilsCore.obj
 0002:0000aa30       $unwind$??0?$DrawFilledPolygon@NNHHNNEH@@QEAA@PEAN00HHH0HPEAHHH1EEE0HPEAE00PEAV?$ScanLineBase@HHH@@11@Z 0000000180086a30     insertShapeUtilsCore.obj
 0002:0000aa38       $unwind$??1?$DrawFilledPolygon@NNHHNNEH@@UEAA@XZ 0000000180086a38     insertShapeUtilsCore.obj
 0002:0000aa40       $unwind$?ProcessStep@?$DrawFilledPolygon@NNHHNNEH@@UEAAXXZ 0000000180086a40     insertShapeUtilsCore.obj
 0002:0000aa48       $unwind$?nearest@?$DrawFilledPolygon@NNHHNNEH@@AEAAHN@Z 0000000180086a48     insertShapeUtilsCore.obj
 0002:0000aa50       $unwind$?lclDSPFixptSqrt@?$DrawFilledPolygon@NNHHNNEH@@AEAAXAEANN@Z 0000000180086a50     insertShapeUtilsCore.obj
 0002:0000aa58       $unwind$?getLineParams@?$DrawFilledPolygon@NNHHNNEH@@AEAAXHHHHHHPEANAEAW4Paral_T@@@Z 0000000180086a58     insertShapeUtilsCore.obj
 0002:0000aa60       $unwind$?isValidPair@?$DrawFilledPolygon@NNHHNNEH@@AEAAEHHHHHHPEAN0W4Paral_T@@1@Z 0000000180086a60     insertShapeUtilsCore.obj
 0002:0000aa68       $unwind$?findPointOfIntersectionNormal@?$DrawFilledPolygon@NNHHNNEH@@AEAAXEPEANAEAH1W4Paral_T@@@Z 0000000180086a68     insertShapeUtilsCore.obj
 0002:0000aa70       $unwind$?findPointOfIntersection@?$DrawFilledPolygon@NNHHNNEH@@AEAAXEPEAN0AEAH1W4Paral_T@@2HH@Z 0000000180086a70     insertShapeUtilsCore.obj
 0002:0000aa78       $unwind$?is_RightOfLine_CtrToRef@?$DrawFilledPolygon@NNHHNNEH@@AEAAEUXY_T@@00@Z 0000000180086a78     insertShapeUtilsCore.obj
 0002:0000aa80       $unwind$?convertLinePts2PolygonPts@?$DrawFilledPolygon@NNHHNNEH@@AEAAXXZ 0000000180086a80     insertShapeUtilsCore.obj
 0002:0000aa90       $unwind$?converPolygonPts2TwoPolygonPts@?$DrawFilledPolygon@NNHHNNEH@@AEAAXXZ 0000000180086a90     insertShapeUtilsCore.obj
 0002:0000aaa0       $unwind$?ProcessStep@?$DrawFilledPolygon@NNHHNNEH@@AEAAXH@Z 0000000180086aa0     insertShapeUtilsCore.obj
 0002:0000aaa8       $unwind$??_G?$DrawFilledPolygon@NNHHNNEH@@UEAAPEAXI@Z 0000000180086aa8     insertShapeUtilsCore.obj
 0002:0000aab0       $unwind$??0?$DrawFilledPolygon@NNHHNNEE@@QEAA@PEAN00HHH0HPEAHHH1EEE0HPEAE00PEAV?$ScanLineBase@HHE@@11@Z 0000000180086ab0     insertShapeUtilsCore.obj
 0002:0000aab8       $unwind$??1?$DrawFilledPolygon@NNHHNNEE@@UEAA@XZ 0000000180086ab8     insertShapeUtilsCore.obj
 0002:0000aac0       $unwind$?ProcessStep@?$DrawFilledPolygon@NNHHNNEE@@UEAAXXZ 0000000180086ac0     insertShapeUtilsCore.obj
 0002:0000aac8       $unwind$?nearest@?$DrawFilledPolygon@NNHHNNEE@@AEAAHN@Z 0000000180086ac8     insertShapeUtilsCore.obj
 0002:0000aad0       $unwind$?lclDSPFixptSqrt@?$DrawFilledPolygon@NNHHNNEE@@AEAAXAEANN@Z 0000000180086ad0     insertShapeUtilsCore.obj
 0002:0000aad8       $unwind$?getLineParams@?$DrawFilledPolygon@NNHHNNEE@@AEAAXHHHHHHPEANAEAW4Paral_T@@@Z 0000000180086ad8     insertShapeUtilsCore.obj
 0002:0000aae0       $unwind$?isValidPair@?$DrawFilledPolygon@NNHHNNEE@@AEAAEHHHHHHPEAN0W4Paral_T@@1@Z 0000000180086ae0     insertShapeUtilsCore.obj
 0002:0000aae8       $unwind$?findPointOfIntersectionNormal@?$DrawFilledPolygon@NNHHNNEE@@AEAAXEPEANAEAH1W4Paral_T@@@Z 0000000180086ae8     insertShapeUtilsCore.obj
 0002:0000aaf0       $unwind$?findPointOfIntersection@?$DrawFilledPolygon@NNHHNNEE@@AEAAXEPEAN0AEAH1W4Paral_T@@2HH@Z 0000000180086af0     insertShapeUtilsCore.obj
 0002:0000aaf8       $unwind$?is_RightOfLine_CtrToRef@?$DrawFilledPolygon@NNHHNNEE@@AEAAEUXY_T@@00@Z 0000000180086af8     insertShapeUtilsCore.obj
 0002:0000ab00       $unwind$?convertLinePts2PolygonPts@?$DrawFilledPolygon@NNHHNNEE@@AEAAXXZ 0000000180086b00     insertShapeUtilsCore.obj
 0002:0000ab10       $unwind$?converPolygonPts2TwoPolygonPts@?$DrawFilledPolygon@NNHHNNEE@@AEAAXXZ 0000000180086b10     insertShapeUtilsCore.obj
 0002:0000ab20       $unwind$?ProcessStep@?$DrawFilledPolygon@NNHHNNEE@@AEAAXE@Z 0000000180086b20     insertShapeUtilsCore.obj
 0002:0000ab28       $unwind$??_G?$DrawFilledPolygon@NNHHNNEE@@UEAAPEAXI@Z 0000000180086b28     insertShapeUtilsCore.obj
 0002:0000ab30       $unwind$??0?$DrawLine@NNHHNNEH@@QEAA@PEAN00HHH0HPEAHHH1EEE0HPEAE00@Z 0000000180086b30     insertShapeUtilsCore.obj
 0002:0000ab38       $unwind$??1?$DrawLine@NNHHNNEH@@UEAA@XZ 0000000180086b38     insertShapeUtilsCore.obj
 0002:0000ab40       $unwind$?ProcessOneShape@?$DrawLine@NNHHNNEH@@QEAAXXZ 0000000180086b40     insertShapeUtilsCore.obj
 0002:0000ab48       $unwind$?ProcessOneShape@?$DrawLine@NNHHNNEH@@QEAAXH@Z 0000000180086b48     insertShapeUtilsCore.obj
 0002:0000ab58       $unwind$??_G?$DrawLine@NNHHNNEH@@UEAAPEAXI@Z 0000000180086b58     insertShapeUtilsCore.obj
 0002:0000ab60       $unwind$??0?$DrawPolygon@NNHHNNEH@@QEAA@PEAN00HHH0HPEAHHH1EEE0HPEAE0011@Z 0000000180086b60     insertShapeUtilsCore.obj
 0002:0000ab68       $unwind$??1?$DrawPolygon@NNHHNNEH@@UEAA@XZ 0000000180086b68     insertShapeUtilsCore.obj
 0002:0000ab70       $unwind$?ProcessStep@?$DrawPolygon@NNHHNNEH@@UEAAXXZ 0000000180086b70     insertShapeUtilsCore.obj
 0002:0000ab78       $unwind$??_G?$DrawPolygon@NNHHNNEH@@UEAAPEAXI@Z 0000000180086b78     insertShapeUtilsCore.obj
 0002:0000ab80       $unwind$??0?$DrawPolygon@NNHHNNEE@@QEAA@PEAN00HHH0HPEAHHH1EEE0HPEAE0011@Z 0000000180086b80     insertShapeUtilsCore.obj
 0002:0000ab88       $unwind$??1?$DrawPolygon@NNHHNNEE@@UEAA@XZ 0000000180086b88     insertShapeUtilsCore.obj
 0002:0000ab90       $unwind$?ProcessStep@?$DrawPolygon@NNHHNNEE@@UEAAXXZ 0000000180086b90     insertShapeUtilsCore.obj
 0002:0000ab98       $unwind$??_G?$DrawPolygon@NNHHNNEE@@UEAAPEAXI@Z 0000000180086b98     insertShapeUtilsCore.obj
 0002:0000aba0       $unwind$??0?$DrawAnyLine@NNHHNNEH@@QEAA@PEAN00HHH0HPEAHHH1EEE0HPEAE0011@Z 0000000180086ba0     insertShapeUtilsCore.obj
 0002:0000aba8       $unwind$??1?$DrawAnyLine@NNHHNNEH@@UEAA@XZ 0000000180086ba8     insertShapeUtilsCore.obj
 0002:0000abb0       $unwind$?ProcessStep@?$DrawAnyLine@NNHHNNEH@@UEAAXXZ 0000000180086bb0     insertShapeUtilsCore.obj
 0002:0000abb8       $unwind$??_G?$DrawAnyLine@NNHHNNEH@@UEAAPEAXI@Z 0000000180086bb8     insertShapeUtilsCore.obj
 0002:0000abc0       $unwind$??0?$DrawAnyLine@NNHHNNEE@@QEAA@PEAN00HHH0HPEAHHH1EEE0HPEAE0011@Z 0000000180086bc0     insertShapeUtilsCore.obj
 0002:0000abc8       $unwind$??1?$DrawAnyLine@NNHHNNEE@@UEAA@XZ 0000000180086bc8     insertShapeUtilsCore.obj
 0002:0000abd0       $unwind$?ProcessStep@?$DrawAnyLine@NNHHNNEE@@UEAAXXZ 0000000180086bd0     insertShapeUtilsCore.obj
 0002:0000abd8       $unwind$??_G?$DrawAnyLine@NNHHNNEE@@UEAAPEAXI@Z 0000000180086bd8     insertShapeUtilsCore.obj
 0002:0000abe0       $unwind$??0?$DrawCircle@NNHHNNEHH@@QEAA@PEAN00HHH0HPEAHHH1EEE0HPEAE00@Z 0000000180086be0     insertShapeUtilsCore.obj
 0002:0000abe8       $unwind$?ProcessOneShape@?$DrawCircle@NNHHNNEHH@@QEAAXXZ 0000000180086be8     insertShapeUtilsCore.obj
 0002:0000abf0       $unwind$?ProcessOneShape@?$DrawCircle@NNHHNNEHH@@AEAAXHHHHH@Z 0000000180086bf0     insertShapeUtilsCore.obj
 0002:0000abf8       $unwind$?DrawLineAndResetStates@?$DrawCircle@NNHHNNEHH@@AEAAXHHAEAH0H@Z 0000000180086bf8     insertShapeUtilsCore.obj
 0002:0000ac00       $unwind$??1?$DrawCircle@NNHHNNEHH@@UEAA@XZ 0000000180086c00     insertShapeUtilsCore.obj
 0002:0000ac08       $unwind$??_G?$DrawCircle@NNHHNNEHH@@UEAAPEAXI@Z 0000000180086c08     insertShapeUtilsCore.obj
 0002:0000ac10       $unwind$??0?$DrawCircleAnySize@NNHHNNEHH@@QEAA@PEAN00HHH0HPEAHHH1EEE0HPEAE001@Z 0000000180086c10     insertShapeUtilsCore.obj
 0002:0000ac18       $unwind$??1?$DrawCircleAnySize@NNHHNNEHH@@UEAA@XZ 0000000180086c18     insertShapeUtilsCore.obj
 0002:0000ac20       $unwind$?ProcessStep@?$DrawCircleAnySize@NNHHNNEHH@@UEAAXXZ 0000000180086c20     insertShapeUtilsCore.obj
 0002:0000ac28       $unwind$??_G?$DrawCircleAnySize@NNHHNNEHH@@UEAAPEAXI@Z 0000000180086c28     insertShapeUtilsCore.obj
 0002:0000ac30       $unwind$??0?$DrawCircle@NNHHNNEEH@@QEAA@PEAN00HHH0HPEAHHH1EEE0HPEAE00@Z 0000000180086c30     insertShapeUtilsCore.obj
 0002:0000ac38       $unwind$?ProcessOneShape@?$DrawCircle@NNHHNNEEH@@QEAAXXZ 0000000180086c38     insertShapeUtilsCore.obj
 0002:0000ac40       $unwind$?ProcessOneShape@?$DrawCircle@NNHHNNEEH@@AEAAXHHHEH@Z 0000000180086c40     insertShapeUtilsCore.obj
 0002:0000ac48       $unwind$?DrawLineAndResetStates@?$DrawCircle@NNHHNNEEH@@AEAAXHHAEAH0H@Z 0000000180086c48     insertShapeUtilsCore.obj
 0002:0000ac50       $unwind$??1?$DrawCircle@NNHHNNEEH@@UEAA@XZ 0000000180086c50     insertShapeUtilsCore.obj
 0002:0000ac58       $unwind$??_G?$DrawCircle@NNHHNNEEH@@UEAAPEAXI@Z 0000000180086c58     insertShapeUtilsCore.obj
 0002:0000ac60       $unwind$??0?$DrawCircleAnySize@NNHHNNEEH@@QEAA@PEAN00HHH0HPEAHHH1EEE0HPEAE001@Z 0000000180086c60     insertShapeUtilsCore.obj
 0002:0000ac68       $unwind$??1?$DrawCircleAnySize@NNHHNNEEH@@UEAA@XZ 0000000180086c68     insertShapeUtilsCore.obj
 0002:0000ac70       $unwind$?ProcessStep@?$DrawCircleAnySize@NNHHNNEEH@@UEAAXXZ 0000000180086c70     insertShapeUtilsCore.obj
 0002:0000ac78       $unwind$??_G?$DrawCircleAnySize@NNHHNNEEH@@UEAAPEAXI@Z 0000000180086c78     insertShapeUtilsCore.obj
 0002:0000ac80       $unwind$??0?$DrawCircle@NNHHNNEHE@@QEAA@PEAN00HHH0HPEAHHH1EEE0HPEAE00@Z 0000000180086c80     insertShapeUtilsCore.obj
 0002:0000ac88       $unwind$?ProcessOneShape@?$DrawCircle@NNHHNNEHE@@QEAAXXZ 0000000180086c88     insertShapeUtilsCore.obj
 0002:0000ac90       $unwind$?ProcessOneShape@?$DrawCircle@NNHHNNEHE@@AEAAXHHHHE@Z 0000000180086c90     insertShapeUtilsCore.obj
 0002:0000ac98       $unwind$??1?$DrawCircle@NNHHNNEHE@@UEAA@XZ 0000000180086c98     insertShapeUtilsCore.obj
 0002:0000aca0       $unwind$??_G?$DrawCircle@NNHHNNEHE@@UEAAPEAXI@Z 0000000180086ca0     insertShapeUtilsCore.obj
 0002:0000aca8       $unwind$??0?$DrawCircleAnySize@NNHHNNEHE@@QEAA@PEAN00HHH0HPEAHHH1EEE0HPEAE001@Z 0000000180086ca8     insertShapeUtilsCore.obj
 0002:0000acb0       $unwind$??1?$DrawCircleAnySize@NNHHNNEHE@@UEAA@XZ 0000000180086cb0     insertShapeUtilsCore.obj
 0002:0000acb8       $unwind$?ProcessStep@?$DrawCircleAnySize@NNHHNNEHE@@UEAAXXZ 0000000180086cb8     insertShapeUtilsCore.obj
 0002:0000acc0       $unwind$??_G?$DrawCircleAnySize@NNHHNNEHE@@UEAAPEAXI@Z 0000000180086cc0     insertShapeUtilsCore.obj
 0002:0000acc8       $unwind$??0?$DrawCircle@NNHHNNEEE@@QEAA@PEAN00HHH0HPEAHHH1EEE0HPEAE00@Z 0000000180086cc8     insertShapeUtilsCore.obj
 0002:0000acd0       $unwind$?ProcessOneShape@?$DrawCircle@NNHHNNEEE@@QEAAXXZ 0000000180086cd0     insertShapeUtilsCore.obj
 0002:0000acd8       $unwind$?ProcessOneShape@?$DrawCircle@NNHHNNEEE@@AEAAXHHHEE@Z 0000000180086cd8     insertShapeUtilsCore.obj
 0002:0000ace0       $unwind$?ProcessOneShape@?$DrawCircle@NNHHNNEEE@@AEAAXHHHEH@Z 0000000180086ce0     insertShapeUtilsCore.obj
 0002:0000ace8       $unwind$?DrawLineAndResetStates@?$DrawCircle@NNHHNNEEE@@AEAAXHHAEAH0H@Z 0000000180086ce8     insertShapeUtilsCore.obj
 0002:0000acf0       $unwind$??1?$DrawCircle@NNHHNNEEE@@UEAA@XZ 0000000180086cf0     insertShapeUtilsCore.obj
 0002:0000acf8       $unwind$??_G?$DrawCircle@NNHHNNEEE@@UEAAPEAXI@Z 0000000180086cf8     insertShapeUtilsCore.obj
 0002:0000ad00       $unwind$??0?$DrawCircleAnySize@NNHHNNEEE@@QEAA@PEAN00HHH0HPEAHHH1EEE0HPEAE001@Z 0000000180086d00     insertShapeUtilsCore.obj
 0002:0000ad08       $unwind$??1?$DrawCircleAnySize@NNHHNNEEE@@UEAA@XZ 0000000180086d08     insertShapeUtilsCore.obj
 0002:0000ad10       $unwind$?ProcessStep@?$DrawCircleAnySize@NNHHNNEEE@@UEAAXXZ 0000000180086d10     insertShapeUtilsCore.obj
 0002:0000ad18       $unwind$??_G?$DrawCircleAnySize@NNHHNNEEE@@UEAAPEAXI@Z 0000000180086d18     insertShapeUtilsCore.obj
 0002:0000ad20       $unwind$??0?$DrawCommon@EEHHMMEH@@QEAA@PEAE00HHH0HPEAHHH1EEEPEAMH002@Z 0000000180086d20     insertShapeUtilsCore.obj
 0002:0000ad30       $stateUnwindMap$??0?$DrawCommon@EEHHMMEH@@QEAA@PEAE00HHH0HPEAHHH1EEEPEAMH002@Z 0000000180086d30     insertShapeUtilsCore.obj
 0002:0000ad38       $ip2state$??0?$DrawCommon@EEHHMMEH@@QEAA@PEAE00HHH0HPEAHHH1EEEPEAMH002@Z 0000000180086d38     insertShapeUtilsCore.obj
 0002:0000ad50       $unwind$?dtor$0@?0???0?$DrawCommon@EEHHMMEH@@QEAA@PEAE00HHH0HPEAHHH1EEEPEAMH002@Z@4HA 0000000180086d50     insertShapeUtilsCore.obj
 0002:0000ad58       $unwind$??1?$DrawCommon@EEHHMMEH@@UEAA@XZ 0000000180086d58     insertShapeUtilsCore.obj
 0002:0000ad60       $unwind$?CleanUp@?$DrawCommon@EEHHMMEH@@UEAAXXZ 0000000180086d60     insertShapeUtilsCore.obj
 0002:0000ad68       $unwind$?UpdateImageBoundary@?$DrawCommon@EEHHMMEH@@UEAAXHH@Z 0000000180086d68     insertShapeUtilsCore.obj
 0002:0000ad70       $unwind$?UpdateViewPort@?$DrawCommon@EEHHMMEH@@UEAAXPEAH@Z 0000000180086d70     insertShapeUtilsCore.obj
 0002:0000ad78       $unwind$?UpdateFillColorOpacity@?$DrawCommon@EEHHMMEH@@UEAAXE@Z 0000000180086d78     insertShapeUtilsCore.obj
 0002:0000ad80       $unwind$?MoveToNextFillColor@?$DrawCommon@EEHHMMEH@@IEAAXXZ 0000000180086d80     insertShapeUtilsCore.obj
 0002:0000ad88       $unwind$?MoveToNextOpacity@?$DrawCommon@EEHHMMEH@@IEAAXXZ 0000000180086d88     insertShapeUtilsCore.obj
 0002:0000ad90       $unwind$?PlotSubPixels@?$DrawCommon@EEHHMMEH@@IEAAXHHHHH@Z 0000000180086d90     insertShapeUtilsCore.obj
 0002:0000ad98       $unwind$?PlotVerticalLine@?$DrawCommon@EEHHMMEH@@IEAAXHHHHH@Z 0000000180086d98     insertShapeUtilsCore.obj
 0002:0000ada0       $unwind$?PlotVerticalLineCheckRange@?$DrawCommon@EEHHMMEH@@IEAAXHHHHH@Z 0000000180086da0     insertShapeUtilsCore.obj
 0002:0000ada8       $unwind$?CountSubPixel@?$DrawCommon@EEHHMMEH@@IEAAXHHHHAEAH0HH@Z 0000000180086da8     insertShapeUtilsCore.obj
 0002:0000adb0       $unwind$?PlotVerticalLine@?$DrawCommon@EEHHMMEH@@AEAAXHHHHHE@Z 0000000180086db0     insertShapeUtilsCore.obj
 0002:0000adb8       $unwind$?PlotVerticalLineOneColor@?$DrawCommon@EEHHMMEH@@AEAAXPEAEHHHHH@Z 0000000180086db8     insertShapeUtilsCore.obj
 0002:0000adc0       $unwind$?PlotSubPixels@?$DrawCommon@EEHHMMEH@@AEAAXHHHHHE@Z 0000000180086dc0     insertShapeUtilsCore.obj
 0002:0000adc8       $unwind$?PlotSubPixelsOneColor@?$DrawCommon@EEHHMMEH@@AEAAXPEAEHHHHH@Z 0000000180086dc8     insertShapeUtilsCore.obj
 0002:0000add0       $unwind$?PlotOneSubPixelOneColor@?$DrawCommon@EEHHMMEH@@AEAAXPEAEHEHH@Z 0000000180086dd0     insertShapeUtilsCore.obj
 0002:0000add8       $unwind$?IsMoreClr@?$DrawCommon@EEHHMMEH@@AEAAHH@Z 0000000180086dd8     insertShapeUtilsCore.obj
 0002:0000ade0       $unwind$??_G?$DrawCommon@EEHHMMEH@@UEAAPEAXI@Z 0000000180086de0     insertShapeUtilsCore.obj
 0002:0000ade8       $unwind$??0?$DrawFilledRectangle@EEHHMME@@QEAA@PEAE00HHH0HPEAHHH1EEEPEAMH002@Z 0000000180086de8     insertShapeUtilsCore.obj
 0002:0000adf0       $unwind$?ProcessOneShape@?$DrawFilledRectangle@EEHHMME@@QEAAXXZ 0000000180086df0     insertShapeUtilsCore.obj
 0002:0000ae00       $unwind$??1?$DrawFilledRectangle@EEHHMME@@UEAA@XZ 0000000180086e00     insertShapeUtilsCore.obj
 0002:0000ae08       $unwind$??_G?$DrawFilledRectangle@EEHHMME@@UEAAPEAXI@Z 0000000180086e08     insertShapeUtilsCore.obj
 0002:0000ae10       $unwind$??0?$DrawFilledRectangleAnySize@EEHHMME@@QEAA@PEAE00HHH0HPEAHHH1EEEPEAMH002PEBH@Z 0000000180086e10     insertShapeUtilsCore.obj
 0002:0000ae18       $unwind$??1?$DrawFilledRectangleAnySize@EEHHMME@@UEAA@XZ 0000000180086e18     insertShapeUtilsCore.obj
 0002:0000ae20       $unwind$?ProcessStep@?$DrawFilledRectangleAnySize@EEHHMME@@UEAAXXZ 0000000180086e20     insertShapeUtilsCore.obj
 0002:0000ae28       $unwind$??_G?$DrawFilledRectangleAnySize@EEHHMME@@UEAAPEAXI@Z 0000000180086e28     insertShapeUtilsCore.obj
 0002:0000ae30       $unwind$??0?$DrawCommon@EEHHMMEE@@QEAA@PEAE00HHH0HPEAHHH1EEEPEAMH002@Z 0000000180086e30     insertShapeUtilsCore.obj
 0002:0000ae40       $stateUnwindMap$??0?$DrawCommon@EEHHMMEE@@QEAA@PEAE00HHH0HPEAHHH1EEEPEAMH002@Z 0000000180086e40     insertShapeUtilsCore.obj
 0002:0000ae48       $ip2state$??0?$DrawCommon@EEHHMMEE@@QEAA@PEAE00HHH0HPEAHHH1EEEPEAMH002@Z 0000000180086e48     insertShapeUtilsCore.obj
 0002:0000ae60       $unwind$?dtor$0@?0???0?$DrawCommon@EEHHMMEE@@QEAA@PEAE00HHH0HPEAHHH1EEEPEAMH002@Z@4HA 0000000180086e60     insertShapeUtilsCore.obj
 0002:0000ae68       $unwind$??1?$DrawCommon@EEHHMMEE@@UEAA@XZ 0000000180086e68     insertShapeUtilsCore.obj
 0002:0000ae70       $unwind$?CleanUp@?$DrawCommon@EEHHMMEE@@UEAAXXZ 0000000180086e70     insertShapeUtilsCore.obj
 0002:0000ae78       $unwind$?UpdateImageBoundary@?$DrawCommon@EEHHMMEE@@UEAAXHH@Z 0000000180086e78     insertShapeUtilsCore.obj
 0002:0000ae80       $unwind$?UpdateViewPort@?$DrawCommon@EEHHMMEE@@UEAAXPEAH@Z 0000000180086e80     insertShapeUtilsCore.obj
 0002:0000ae88       $unwind$?UpdateFillColorOpacity@?$DrawCommon@EEHHMMEE@@UEAAXE@Z 0000000180086e88     insertShapeUtilsCore.obj
 0002:0000ae90       $unwind$?MoveToNextFillColor@?$DrawCommon@EEHHMMEE@@IEAAXXZ 0000000180086e90     insertShapeUtilsCore.obj
 0002:0000ae98       $unwind$?MoveToNextOpacity@?$DrawCommon@EEHHMMEE@@IEAAXXZ 0000000180086e98     insertShapeUtilsCore.obj
 0002:0000aea0       $unwind$?PlotOnePixel@?$DrawCommon@EEHHMMEE@@IEAAXHH@Z 0000000180086ea0     insertShapeUtilsCore.obj
 0002:0000aea8       $unwind$?PlotPixelsCheckRange@?$DrawCommon@EEHHMMEE@@IEAAXHHH@Z 0000000180086ea8     insertShapeUtilsCore.obj
 0002:0000aeb0       $unwind$?PlotSubPixels@?$DrawCommon@EEHHMMEE@@IEAAXHHHHH@Z 0000000180086eb0     insertShapeUtilsCore.obj
 0002:0000aeb8       $unwind$?PlotSubPixels@?$DrawCommon@EEHHMMEE@@IEAAXHEHH@Z 0000000180086eb8     insertShapeUtilsCore.obj
 0002:0000aec0       $unwind$?CountSubPixel@?$DrawCommon@EEHHMMEE@@IEAAXHHHHAEAH0HH@Z 0000000180086ec0     insertShapeUtilsCore.obj
 0002:0000aec8       $unwind$?PlotOnePixel@?$DrawCommon@EEHHMMEE@@AEAAXHHE@Z 0000000180086ec8     insertShapeUtilsCore.obj
 0002:0000aed0       $unwind$?PlotSubPixels@?$DrawCommon@EEHHMMEE@@AEAAXHHHHHE@Z 0000000180086ed0     insertShapeUtilsCore.obj
 0002:0000aed8       $unwind$?PlotSubPixelsOneColor@?$DrawCommon@EEHHMMEE@@AEAAXPEAEHHHHH@Z 0000000180086ed8     insertShapeUtilsCore.obj
 0002:0000aee0       $unwind$?PlotSubPixels@?$DrawCommon@EEHHMMEE@@AEAAXHEHHE@Z 0000000180086ee0     insertShapeUtilsCore.obj
 0002:0000aee8       $unwind$?PlotOneSubPixelOneColor@?$DrawCommon@EEHHMMEE@@AEAAXPEAEHEHH@Z 0000000180086ee8     insertShapeUtilsCore.obj
 0002:0000aef0       $unwind$?IsMoreClr@?$DrawCommon@EEHHMMEE@@AEAAHH@Z 0000000180086ef0     insertShapeUtilsCore.obj
 0002:0000aef8       $unwind$??_G?$DrawCommon@EEHHMMEE@@UEAAPEAXI@Z 0000000180086ef8     insertShapeUtilsCore.obj
 0002:0000af00       $unwind$??0?$DrawLine@EEHHMMEE@@QEAA@PEAE00HHH0HPEAHHH1EEEPEAMH002@Z 0000000180086f00     insertShapeUtilsCore.obj
 0002:0000af08       $unwind$??1?$DrawLine@EEHHMMEE@@UEAA@XZ 0000000180086f08     insertShapeUtilsCore.obj
 0002:0000af10       $unwind$?ProcessOneShape@?$DrawLine@EEHHMMEE@@QEAAXXZ 0000000180086f10     insertShapeUtilsCore.obj
 0002:0000af18       $unwind$?ProcessOneShape@?$DrawLine@EEHHMMEE@@QEAAXE@Z 0000000180086f18     insertShapeUtilsCore.obj
 0002:0000af28       $unwind$??_G?$DrawLine@EEHHMMEE@@UEAAPEAXI@Z 0000000180086f28     insertShapeUtilsCore.obj
 0002:0000af30       $unwind$??0?$DrawMarkerLine@EEHHMMEE@@QEAA@PEAE00HHH0HPEAHHH1EEEPEAMH002@Z 0000000180086f30     insertShapeUtilsCore.obj
 0002:0000af38       $unwind$?ProcessOneShape@?$DrawMarkerLine@EEHHMMEE@@QEAAXXZ 0000000180086f38     insertShapeUtilsCore.obj
 0002:0000af40       $unwind$?ProcessOneShape@?$DrawMarkerLine@EEHHMMEE@@QEAAXE@Z 0000000180086f40     insertShapeUtilsCore.obj
 0002:0000af50       $unwind$??1?$DrawMarkerLine@EEHHMMEE@@UEAA@XZ 0000000180086f50     insertShapeUtilsCore.obj
 0002:0000af58       $unwind$??_G?$DrawMarkerLine@EEHHMMEE@@UEAAPEAXI@Z 0000000180086f58     insertShapeUtilsCore.obj
 0002:0000af60       $unwind$??0?$DrawRectangleAnySize@EEHHMME@@QEAA@PEAE00HHH0HPEAHHH1EEEPEAMH0021@Z 0000000180086f60     insertShapeUtilsCore.obj
 0002:0000af68       $unwind$??1?$DrawRectangleAnySize@EEHHMME@@UEAA@XZ 0000000180086f68     insertShapeUtilsCore.obj
 0002:0000af70       $unwind$?ProcessStep@?$DrawRectangleAnySize@EEHHMME@@UEAAXXZ 0000000180086f70     insertShapeUtilsCore.obj
 0002:0000af78       $unwind$??_G?$DrawRectangleAnySize@EEHHMME@@UEAAPEAXI@Z 0000000180086f78     insertShapeUtilsCore.obj
 0002:0000af80       $unwind$??0?$DrawFilledPolygon@EEHHMMEH@@QEAA@PEAE00HHH0HPEAHHH1EEEPEAMH002PEAV?$ScanLineBase@HHH@@11@Z 0000000180086f80     insertShapeUtilsCore.obj
 0002:0000af88       $unwind$??1?$DrawFilledPolygon@EEHHMMEH@@UEAA@XZ 0000000180086f88     insertShapeUtilsCore.obj
 0002:0000af90       $unwind$?ProcessStep@?$DrawFilledPolygon@EEHHMMEH@@UEAAXXZ 0000000180086f90     insertShapeUtilsCore.obj
 0002:0000af98       $unwind$?nearest@?$DrawFilledPolygon@EEHHMMEH@@AEAAHM@Z 0000000180086f98     insertShapeUtilsCore.obj
 0002:0000afa0       $unwind$?lclDSPFixptSqrt@?$DrawFilledPolygon@EEHHMMEH@@AEAAXAEAMM@Z 0000000180086fa0     insertShapeUtilsCore.obj
 0002:0000afa8       $unwind$?getLineParams@?$DrawFilledPolygon@EEHHMMEH@@AEAAXHHHHHHPEAMAEAW4Paral_T@@@Z 0000000180086fa8     insertShapeUtilsCore.obj
 0002:0000afb0       $unwind$?isValidPair@?$DrawFilledPolygon@EEHHMMEH@@AEAAEHHHHHHPEAM0W4Paral_T@@1@Z 0000000180086fb0     insertShapeUtilsCore.obj
 0002:0000afb8       $unwind$?findPointOfIntersectionNormal@?$DrawFilledPolygon@EEHHMMEH@@AEAAXEPEAMAEAH1W4Paral_T@@@Z 0000000180086fb8     insertShapeUtilsCore.obj
 0002:0000afc0       $unwind$?findPointOfIntersection@?$DrawFilledPolygon@EEHHMMEH@@AEAAXEPEAM0AEAH1W4Paral_T@@2HH@Z 0000000180086fc0     insertShapeUtilsCore.obj
 0002:0000afc8       $unwind$?is_RightOfLine_CtrToRef@?$DrawFilledPolygon@EEHHMMEH@@AEAAEUXY_T@@00@Z 0000000180086fc8     insertShapeUtilsCore.obj
 0002:0000afd0       $unwind$?convertLinePts2PolygonPts@?$DrawFilledPolygon@EEHHMMEH@@AEAAXXZ 0000000180086fd0     insertShapeUtilsCore.obj
 0002:0000afe0       $unwind$?converPolygonPts2TwoPolygonPts@?$DrawFilledPolygon@EEHHMMEH@@AEAAXXZ 0000000180086fe0     insertShapeUtilsCore.obj
 0002:0000aff0       $unwind$?ProcessStep@?$DrawFilledPolygon@EEHHMMEH@@AEAAXH@Z 0000000180086ff0     insertShapeUtilsCore.obj
 0002:0000aff8       $unwind$??_G?$DrawFilledPolygon@EEHHMMEH@@UEAAPEAXI@Z 0000000180086ff8     insertShapeUtilsCore.obj
 0002:0000b000       $unwind$??0?$DrawFilledPolygon@EEHHMMEE@@QEAA@PEAE00HHH0HPEAHHH1EEEPEAMH002PEAV?$ScanLineBase@HHE@@11@Z 0000000180087000     insertShapeUtilsCore.obj
 0002:0000b008       $unwind$??1?$DrawFilledPolygon@EEHHMMEE@@UEAA@XZ 0000000180087008     insertShapeUtilsCore.obj
 0002:0000b010       $unwind$?ProcessStep@?$DrawFilledPolygon@EEHHMMEE@@UEAAXXZ 0000000180087010     insertShapeUtilsCore.obj
 0002:0000b018       $unwind$?nearest@?$DrawFilledPolygon@EEHHMMEE@@AEAAHM@Z 0000000180087018     insertShapeUtilsCore.obj
 0002:0000b020       $unwind$?lclDSPFixptSqrt@?$DrawFilledPolygon@EEHHMMEE@@AEAAXAEAMM@Z 0000000180087020     insertShapeUtilsCore.obj
 0002:0000b028       $unwind$?getLineParams@?$DrawFilledPolygon@EEHHMMEE@@AEAAXHHHHHHPEAMAEAW4Paral_T@@@Z 0000000180087028     insertShapeUtilsCore.obj
 0002:0000b030       $unwind$?isValidPair@?$DrawFilledPolygon@EEHHMMEE@@AEAAEHHHHHHPEAM0W4Paral_T@@1@Z 0000000180087030     insertShapeUtilsCore.obj
 0002:0000b038       $unwind$?findPointOfIntersectionNormal@?$DrawFilledPolygon@EEHHMMEE@@AEAAXEPEAMAEAH1W4Paral_T@@@Z 0000000180087038     insertShapeUtilsCore.obj
 0002:0000b040       $unwind$?findPointOfIntersection@?$DrawFilledPolygon@EEHHMMEE@@AEAAXEPEAM0AEAH1W4Paral_T@@2HH@Z 0000000180087040     insertShapeUtilsCore.obj
 0002:0000b048       $unwind$?is_RightOfLine_CtrToRef@?$DrawFilledPolygon@EEHHMMEE@@AEAAEUXY_T@@00@Z 0000000180087048     insertShapeUtilsCore.obj
 0002:0000b050       $unwind$?convertLinePts2PolygonPts@?$DrawFilledPolygon@EEHHMMEE@@AEAAXXZ 0000000180087050     insertShapeUtilsCore.obj
 0002:0000b060       $unwind$?converPolygonPts2TwoPolygonPts@?$DrawFilledPolygon@EEHHMMEE@@AEAAXXZ 0000000180087060     insertShapeUtilsCore.obj
 0002:0000b070       $unwind$?ProcessStep@?$DrawFilledPolygon@EEHHMMEE@@AEAAXE@Z 0000000180087070     insertShapeUtilsCore.obj
 0002:0000b078       $unwind$??_G?$DrawFilledPolygon@EEHHMMEE@@UEAAPEAXI@Z 0000000180087078     insertShapeUtilsCore.obj
 0002:0000b080       $unwind$??0?$DrawLine@EEHHMMEH@@QEAA@PEAE00HHH0HPEAHHH1EEEPEAMH002@Z 0000000180087080     insertShapeUtilsCore.obj
 0002:0000b088       $unwind$??1?$DrawLine@EEHHMMEH@@UEAA@XZ 0000000180087088     insertShapeUtilsCore.obj
 0002:0000b090       $unwind$?ProcessOneShape@?$DrawLine@EEHHMMEH@@QEAAXXZ 0000000180087090     insertShapeUtilsCore.obj
 0002:0000b098       $unwind$?ProcessOneShape@?$DrawLine@EEHHMMEH@@QEAAXH@Z 0000000180087098     insertShapeUtilsCore.obj
 0002:0000b0a8       $unwind$??_G?$DrawLine@EEHHMMEH@@UEAAPEAXI@Z 00000001800870a8     insertShapeUtilsCore.obj
 0002:0000b0b0       $unwind$??0?$DrawPolygon@EEHHMMEH@@QEAA@PEAE00HHH0HPEAHHH1EEEPEAMH00211@Z 00000001800870b0     insertShapeUtilsCore.obj
 0002:0000b0b8       $unwind$??1?$DrawPolygon@EEHHMMEH@@UEAA@XZ 00000001800870b8     insertShapeUtilsCore.obj
 0002:0000b0c0       $unwind$?ProcessStep@?$DrawPolygon@EEHHMMEH@@UEAAXXZ 00000001800870c0     insertShapeUtilsCore.obj
 0002:0000b0c8       $unwind$??_G?$DrawPolygon@EEHHMMEH@@UEAAPEAXI@Z 00000001800870c8     insertShapeUtilsCore.obj
 0002:0000b0d0       $unwind$??0?$DrawPolygon@EEHHMMEE@@QEAA@PEAE00HHH0HPEAHHH1EEEPEAMH00211@Z 00000001800870d0     insertShapeUtilsCore.obj
 0002:0000b0d8       $unwind$??1?$DrawPolygon@EEHHMMEE@@UEAA@XZ 00000001800870d8     insertShapeUtilsCore.obj
 0002:0000b0e0       $unwind$?ProcessStep@?$DrawPolygon@EEHHMMEE@@UEAAXXZ 00000001800870e0     insertShapeUtilsCore.obj
 0002:0000b0e8       $unwind$??_G?$DrawPolygon@EEHHMMEE@@UEAAPEAXI@Z 00000001800870e8     insertShapeUtilsCore.obj
 0002:0000b0f0       $unwind$??0?$DrawAnyLine@EEHHMMEH@@QEAA@PEAE00HHH0HPEAHHH1EEEPEAMH00211@Z 00000001800870f0     insertShapeUtilsCore.obj
 0002:0000b0f8       $unwind$??1?$DrawAnyLine@EEHHMMEH@@UEAA@XZ 00000001800870f8     insertShapeUtilsCore.obj
 0002:0000b100       $unwind$?ProcessStep@?$DrawAnyLine@EEHHMMEH@@UEAAXXZ 0000000180087100     insertShapeUtilsCore.obj
 0002:0000b108       $unwind$??_G?$DrawAnyLine@EEHHMMEH@@UEAAPEAXI@Z 0000000180087108     insertShapeUtilsCore.obj
 0002:0000b110       $unwind$??0?$DrawAnyLine@EEHHMMEE@@QEAA@PEAE00HHH0HPEAHHH1EEEPEAMH00211@Z 0000000180087110     insertShapeUtilsCore.obj
 0002:0000b118       $unwind$??1?$DrawAnyLine@EEHHMMEE@@UEAA@XZ 0000000180087118     insertShapeUtilsCore.obj
 0002:0000b120       $unwind$?ProcessStep@?$DrawAnyLine@EEHHMMEE@@UEAAXXZ 0000000180087120     insertShapeUtilsCore.obj
 0002:0000b128       $unwind$??_G?$DrawAnyLine@EEHHMMEE@@UEAAPEAXI@Z 0000000180087128     insertShapeUtilsCore.obj
 0002:0000b130       $unwind$??0?$DrawCircle@EEHHMMEHH@@QEAA@PEAE00HHH0HPEAHHH1EEEPEAMH002@Z 0000000180087130     insertShapeUtilsCore.obj
 0002:0000b138       $unwind$?ProcessOneShape@?$DrawCircle@EEHHMMEHH@@QEAAXXZ 0000000180087138     insertShapeUtilsCore.obj
 0002:0000b140       $unwind$?ProcessOneShape@?$DrawCircle@EEHHMMEHH@@AEAAXHHHHH@Z 0000000180087140     insertShapeUtilsCore.obj
 0002:0000b148       $unwind$?DrawLineAndResetStates@?$DrawCircle@EEHHMMEHH@@AEAAXHHAEAH0H@Z 0000000180087148     insertShapeUtilsCore.obj
 0002:0000b150       $unwind$??1?$DrawCircle@EEHHMMEHH@@UEAA@XZ 0000000180087150     insertShapeUtilsCore.obj
 0002:0000b158       $unwind$??_G?$DrawCircle@EEHHMMEHH@@UEAAPEAXI@Z 0000000180087158     insertShapeUtilsCore.obj
 0002:0000b160       $unwind$??0?$DrawCircleAnySize@EEHHMMEHH@@QEAA@PEAE00HHH0HPEAHHH1EEEPEAMH0021@Z 0000000180087160     insertShapeUtilsCore.obj
 0002:0000b168       $unwind$??1?$DrawCircleAnySize@EEHHMMEHH@@UEAA@XZ 0000000180087168     insertShapeUtilsCore.obj
 0002:0000b170       $unwind$?ProcessStep@?$DrawCircleAnySize@EEHHMMEHH@@UEAAXXZ 0000000180087170     insertShapeUtilsCore.obj
 0002:0000b178       $unwind$??_G?$DrawCircleAnySize@EEHHMMEHH@@UEAAPEAXI@Z 0000000180087178     insertShapeUtilsCore.obj
 0002:0000b180       $unwind$??0?$DrawCircle@EEHHMMEEH@@QEAA@PEAE00HHH0HPEAHHH1EEEPEAMH002@Z 0000000180087180     insertShapeUtilsCore.obj
 0002:0000b188       $unwind$?ProcessOneShape@?$DrawCircle@EEHHMMEEH@@QEAAXXZ 0000000180087188     insertShapeUtilsCore.obj
 0002:0000b190       $unwind$?ProcessOneShape@?$DrawCircle@EEHHMMEEH@@AEAAXHHHEH@Z 0000000180087190     insertShapeUtilsCore.obj
 0002:0000b198       $unwind$?DrawLineAndResetStates@?$DrawCircle@EEHHMMEEH@@AEAAXHHAEAH0H@Z 0000000180087198     insertShapeUtilsCore.obj
 0002:0000b1a0       $unwind$??1?$DrawCircle@EEHHMMEEH@@UEAA@XZ 00000001800871a0     insertShapeUtilsCore.obj
 0002:0000b1a8       $unwind$??_G?$DrawCircle@EEHHMMEEH@@UEAAPEAXI@Z 00000001800871a8     insertShapeUtilsCore.obj
 0002:0000b1b0       $unwind$??0?$DrawCircleAnySize@EEHHMMEEH@@QEAA@PEAE00HHH0HPEAHHH1EEEPEAMH0021@Z 00000001800871b0     insertShapeUtilsCore.obj
 0002:0000b1b8       $unwind$??1?$DrawCircleAnySize@EEHHMMEEH@@UEAA@XZ 00000001800871b8     insertShapeUtilsCore.obj
 0002:0000b1c0       $unwind$?ProcessStep@?$DrawCircleAnySize@EEHHMMEEH@@UEAAXXZ 00000001800871c0     insertShapeUtilsCore.obj
 0002:0000b1c8       $unwind$??_G?$DrawCircleAnySize@EEHHMMEEH@@UEAAPEAXI@Z 00000001800871c8     insertShapeUtilsCore.obj
 0002:0000b1d0       $unwind$??0?$DrawCircle@EEHHMMEHE@@QEAA@PEAE00HHH0HPEAHHH1EEEPEAMH002@Z 00000001800871d0     insertShapeUtilsCore.obj
 0002:0000b1d8       $unwind$?ProcessOneShape@?$DrawCircle@EEHHMMEHE@@QEAAXXZ 00000001800871d8     insertShapeUtilsCore.obj
 0002:0000b1e0       $unwind$?ProcessOneShape@?$DrawCircle@EEHHMMEHE@@AEAAXHHHHE@Z 00000001800871e0     insertShapeUtilsCore.obj
 0002:0000b1e8       $unwind$??1?$DrawCircle@EEHHMMEHE@@UEAA@XZ 00000001800871e8     insertShapeUtilsCore.obj
 0002:0000b1f0       $unwind$??_G?$DrawCircle@EEHHMMEHE@@UEAAPEAXI@Z 00000001800871f0     insertShapeUtilsCore.obj
 0002:0000b1f8       $unwind$??0?$DrawCircleAnySize@EEHHMMEHE@@QEAA@PEAE00HHH0HPEAHHH1EEEPEAMH0021@Z 00000001800871f8     insertShapeUtilsCore.obj
 0002:0000b200       $unwind$??1?$DrawCircleAnySize@EEHHMMEHE@@UEAA@XZ 0000000180087200     insertShapeUtilsCore.obj
 0002:0000b208       $unwind$?ProcessStep@?$DrawCircleAnySize@EEHHMMEHE@@UEAAXXZ 0000000180087208     insertShapeUtilsCore.obj
 0002:0000b210       $unwind$??_G?$DrawCircleAnySize@EEHHMMEHE@@UEAAPEAXI@Z 0000000180087210     insertShapeUtilsCore.obj
 0002:0000b218       $unwind$??0?$DrawCircle@EEHHMMEEE@@QEAA@PEAE00HHH0HPEAHHH1EEEPEAMH002@Z 0000000180087218     insertShapeUtilsCore.obj
 0002:0000b220       $unwind$?ProcessOneShape@?$DrawCircle@EEHHMMEEE@@QEAAXXZ 0000000180087220     insertShapeUtilsCore.obj
 0002:0000b228       $unwind$?ProcessOneShape@?$DrawCircle@EEHHMMEEE@@AEAAXHHHEE@Z 0000000180087228     insertShapeUtilsCore.obj
 0002:0000b230       $unwind$?ProcessOneShape@?$DrawCircle@EEHHMMEEE@@AEAAXHHHEH@Z 0000000180087230     insertShapeUtilsCore.obj
 0002:0000b238       $unwind$?DrawLineAndResetStates@?$DrawCircle@EEHHMMEEE@@AEAAXHHAEAH0H@Z 0000000180087238     insertShapeUtilsCore.obj
 0002:0000b240       $unwind$??1?$DrawCircle@EEHHMMEEE@@UEAA@XZ 0000000180087240     insertShapeUtilsCore.obj
 0002:0000b248       $unwind$??_G?$DrawCircle@EEHHMMEEE@@UEAAPEAXI@Z 0000000180087248     insertShapeUtilsCore.obj
 0002:0000b250       $unwind$??0?$DrawCircleAnySize@EEHHMMEEE@@QEAA@PEAE00HHH0HPEAHHH1EEEPEAMH0021@Z 0000000180087250     insertShapeUtilsCore.obj
 0002:0000b258       $unwind$??1?$DrawCircleAnySize@EEHHMMEEE@@UEAA@XZ 0000000180087258     insertShapeUtilsCore.obj
 0002:0000b260       $unwind$?ProcessStep@?$DrawCircleAnySize@EEHHMMEEE@@UEAAXXZ 0000000180087260     insertShapeUtilsCore.obj
 0002:0000b268       $unwind$??_G?$DrawCircleAnySize@EEHHMMEEE@@UEAAPEAXI@Z 0000000180087268     insertShapeUtilsCore.obj
 0002:0000b270       $unwind$??0?$DrawCommon@GGHHMMEH@@QEAA@PEAG00HHH0HPEAHHH1EEEPEAMHPEAE02@Z 0000000180087270     insertShapeUtilsCore.obj
 0002:0000b280       $stateUnwindMap$??0?$DrawCommon@GGHHMMEH@@QEAA@PEAG00HHH0HPEAHHH1EEEPEAMHPEAE02@Z 0000000180087280     insertShapeUtilsCore.obj
 0002:0000b288       $ip2state$??0?$DrawCommon@GGHHMMEH@@QEAA@PEAG00HHH0HPEAHHH1EEEPEAMHPEAE02@Z 0000000180087288     insertShapeUtilsCore.obj
 0002:0000b2a0       $unwind$?dtor$0@?0???0?$DrawCommon@GGHHMMEH@@QEAA@PEAG00HHH0HPEAHHH1EEEPEAMHPEAE02@Z@4HA 00000001800872a0     insertShapeUtilsCore.obj
 0002:0000b2a8       $unwind$??1?$DrawCommon@GGHHMMEH@@UEAA@XZ 00000001800872a8     insertShapeUtilsCore.obj
 0002:0000b2b0       $unwind$?CleanUp@?$DrawCommon@GGHHMMEH@@UEAAXXZ 00000001800872b0     insertShapeUtilsCore.obj
 0002:0000b2b8       $unwind$?UpdateImageBoundary@?$DrawCommon@GGHHMMEH@@UEAAXHH@Z 00000001800872b8     insertShapeUtilsCore.obj
 0002:0000b2c0       $unwind$?UpdateViewPort@?$DrawCommon@GGHHMMEH@@UEAAXPEAH@Z 00000001800872c0     insertShapeUtilsCore.obj
 0002:0000b2c8       $unwind$?UpdateFillColorOpacity@?$DrawCommon@GGHHMMEH@@UEAAXE@Z 00000001800872c8     insertShapeUtilsCore.obj
 0002:0000b2d0       $unwind$?MoveToNextFillColor@?$DrawCommon@GGHHMMEH@@IEAAXXZ 00000001800872d0     insertShapeUtilsCore.obj
 0002:0000b2d8       $unwind$?MoveToNextOpacity@?$DrawCommon@GGHHMMEH@@IEAAXXZ 00000001800872d8     insertShapeUtilsCore.obj
 0002:0000b2e0       $unwind$?PlotSubPixels@?$DrawCommon@GGHHMMEH@@IEAAXHHHHH@Z 00000001800872e0     insertShapeUtilsCore.obj
 0002:0000b2e8       $unwind$?PlotVerticalLine@?$DrawCommon@GGHHMMEH@@IEAAXHHHHH@Z 00000001800872e8     insertShapeUtilsCore.obj
 0002:0000b2f0       $unwind$?PlotVerticalLineCheckRange@?$DrawCommon@GGHHMMEH@@IEAAXHHHHH@Z 00000001800872f0     insertShapeUtilsCore.obj
 0002:0000b2f8       $unwind$?CountSubPixel@?$DrawCommon@GGHHMMEH@@IEAAXHHHHAEAH0HH@Z 00000001800872f8     insertShapeUtilsCore.obj
 0002:0000b300       $unwind$?PlotVerticalLine@?$DrawCommon@GGHHMMEH@@AEAAXHHHHHE@Z 0000000180087300     insertShapeUtilsCore.obj
 0002:0000b308       $unwind$?PlotVerticalLineOneColor@?$DrawCommon@GGHHMMEH@@AEAAXPEAGHHHHH@Z 0000000180087308     insertShapeUtilsCore.obj
 0002:0000b310       $unwind$?PlotSubPixels@?$DrawCommon@GGHHMMEH@@AEAAXHHHHHE@Z 0000000180087310     insertShapeUtilsCore.obj
 0002:0000b318       $unwind$?PlotSubPixelsOneColor@?$DrawCommon@GGHHMMEH@@AEAAXPEAGHHHHH@Z 0000000180087318     insertShapeUtilsCore.obj
 0002:0000b320       $unwind$?PlotOneSubPixelOneColor@?$DrawCommon@GGHHMMEH@@AEAAXPEAGHEHH@Z 0000000180087320     insertShapeUtilsCore.obj
 0002:0000b328       $unwind$?IsMoreClr@?$DrawCommon@GGHHMMEH@@AEAAHH@Z 0000000180087328     insertShapeUtilsCore.obj
 0002:0000b330       $unwind$??_G?$DrawCommon@GGHHMMEH@@UEAAPEAXI@Z 0000000180087330     insertShapeUtilsCore.obj
 0002:0000b338       $unwind$??0?$DrawFilledRectangle@GGHHMME@@QEAA@PEAG00HHH0HPEAHHH1EEEPEAMHPEAE02@Z 0000000180087338     insertShapeUtilsCore.obj
 0002:0000b340       $unwind$?ProcessOneShape@?$DrawFilledRectangle@GGHHMME@@QEAAXXZ 0000000180087340     insertShapeUtilsCore.obj
 0002:0000b350       $unwind$??1?$DrawFilledRectangle@GGHHMME@@UEAA@XZ 0000000180087350     insertShapeUtilsCore.obj
 0002:0000b358       $unwind$??_G?$DrawFilledRectangle@GGHHMME@@UEAAPEAXI@Z 0000000180087358     insertShapeUtilsCore.obj
 0002:0000b360       $unwind$??0?$DrawFilledRectangleAnySize@GGHHMME@@QEAA@PEAG00HHH0HPEAHHH1EEEPEAMHPEAE02PEBH@Z 0000000180087360     insertShapeUtilsCore.obj
 0002:0000b368       $unwind$??1?$DrawFilledRectangleAnySize@GGHHMME@@UEAA@XZ 0000000180087368     insertShapeUtilsCore.obj
 0002:0000b370       $unwind$?ProcessStep@?$DrawFilledRectangleAnySize@GGHHMME@@UEAAXXZ 0000000180087370     insertShapeUtilsCore.obj
 0002:0000b378       $unwind$??_G?$DrawFilledRectangleAnySize@GGHHMME@@UEAAPEAXI@Z 0000000180087378     insertShapeUtilsCore.obj
 0002:0000b380       $unwind$??0?$DrawCommon@GGHHMMEE@@QEAA@PEAG00HHH0HPEAHHH1EEEPEAMHPEAE02@Z 0000000180087380     insertShapeUtilsCore.obj
 0002:0000b390       $stateUnwindMap$??0?$DrawCommon@GGHHMMEE@@QEAA@PEAG00HHH0HPEAHHH1EEEPEAMHPEAE02@Z 0000000180087390     insertShapeUtilsCore.obj
 0002:0000b398       $ip2state$??0?$DrawCommon@GGHHMMEE@@QEAA@PEAG00HHH0HPEAHHH1EEEPEAMHPEAE02@Z 0000000180087398     insertShapeUtilsCore.obj
 0002:0000b3b0       $unwind$?dtor$0@?0???0?$DrawCommon@GGHHMMEE@@QEAA@PEAG00HHH0HPEAHHH1EEEPEAMHPEAE02@Z@4HA 00000001800873b0     insertShapeUtilsCore.obj
 0002:0000b3b8       $unwind$??1?$DrawCommon@GGHHMMEE@@UEAA@XZ 00000001800873b8     insertShapeUtilsCore.obj
 0002:0000b3c0       $unwind$?CleanUp@?$DrawCommon@GGHHMMEE@@UEAAXXZ 00000001800873c0     insertShapeUtilsCore.obj
 0002:0000b3c8       $unwind$?UpdateImageBoundary@?$DrawCommon@GGHHMMEE@@UEAAXHH@Z 00000001800873c8     insertShapeUtilsCore.obj
 0002:0000b3d0       $unwind$?UpdateViewPort@?$DrawCommon@GGHHMMEE@@UEAAXPEAH@Z 00000001800873d0     insertShapeUtilsCore.obj
 0002:0000b3d8       $unwind$?UpdateFillColorOpacity@?$DrawCommon@GGHHMMEE@@UEAAXE@Z 00000001800873d8     insertShapeUtilsCore.obj
 0002:0000b3e0       $unwind$?MoveToNextFillColor@?$DrawCommon@GGHHMMEE@@IEAAXXZ 00000001800873e0     insertShapeUtilsCore.obj
 0002:0000b3e8       $unwind$?MoveToNextOpacity@?$DrawCommon@GGHHMMEE@@IEAAXXZ 00000001800873e8     insertShapeUtilsCore.obj
 0002:0000b3f0       $unwind$?PlotOnePixel@?$DrawCommon@GGHHMMEE@@IEAAXHH@Z 00000001800873f0     insertShapeUtilsCore.obj
 0002:0000b3f8       $unwind$?PlotPixelsCheckRange@?$DrawCommon@GGHHMMEE@@IEAAXHHH@Z 00000001800873f8     insertShapeUtilsCore.obj
 0002:0000b400       $unwind$?PlotSubPixels@?$DrawCommon@GGHHMMEE@@IEAAXHHHHH@Z 0000000180087400     insertShapeUtilsCore.obj
 0002:0000b408       $unwind$?PlotSubPixels@?$DrawCommon@GGHHMMEE@@IEAAXHEHH@Z 0000000180087408     insertShapeUtilsCore.obj
 0002:0000b410       $unwind$?CountSubPixel@?$DrawCommon@GGHHMMEE@@IEAAXHHHHAEAH0HH@Z 0000000180087410     insertShapeUtilsCore.obj
 0002:0000b418       $unwind$?PlotOnePixel@?$DrawCommon@GGHHMMEE@@AEAAXHHE@Z 0000000180087418     insertShapeUtilsCore.obj
 0002:0000b420       $unwind$?PlotSubPixels@?$DrawCommon@GGHHMMEE@@AEAAXHHHHHE@Z 0000000180087420     insertShapeUtilsCore.obj
 0002:0000b428       $unwind$?PlotSubPixelsOneColor@?$DrawCommon@GGHHMMEE@@AEAAXPEAGHHHHH@Z 0000000180087428     insertShapeUtilsCore.obj
 0002:0000b430       $unwind$?PlotSubPixels@?$DrawCommon@GGHHMMEE@@AEAAXHEHHE@Z 0000000180087430     insertShapeUtilsCore.obj
 0002:0000b438       $unwind$?PlotOneSubPixelOneColor@?$DrawCommon@GGHHMMEE@@AEAAXPEAGHEHH@Z 0000000180087438     insertShapeUtilsCore.obj
 0002:0000b440       $unwind$?IsMoreClr@?$DrawCommon@GGHHMMEE@@AEAAHH@Z 0000000180087440     insertShapeUtilsCore.obj
 0002:0000b448       $unwind$??_G?$DrawCommon@GGHHMMEE@@UEAAPEAXI@Z 0000000180087448     insertShapeUtilsCore.obj
 0002:0000b450       $unwind$??0?$DrawLine@GGHHMMEE@@QEAA@PEAG00HHH0HPEAHHH1EEEPEAMHPEAE02@Z 0000000180087450     insertShapeUtilsCore.obj
 0002:0000b458       $unwind$??1?$DrawLine@GGHHMMEE@@UEAA@XZ 0000000180087458     insertShapeUtilsCore.obj
 0002:0000b460       $unwind$?ProcessOneShape@?$DrawLine@GGHHMMEE@@QEAAXXZ 0000000180087460     insertShapeUtilsCore.obj
 0002:0000b468       $unwind$?ProcessOneShape@?$DrawLine@GGHHMMEE@@QEAAXE@Z 0000000180087468     insertShapeUtilsCore.obj
 0002:0000b478       $unwind$??_G?$DrawLine@GGHHMMEE@@UEAAPEAXI@Z 0000000180087478     insertShapeUtilsCore.obj
 0002:0000b480       $unwind$??0?$DrawMarkerLine@GGHHMMEE@@QEAA@PEAG00HHH0HPEAHHH1EEEPEAMHPEAE02@Z 0000000180087480     insertShapeUtilsCore.obj
 0002:0000b488       $unwind$?ProcessOneShape@?$DrawMarkerLine@GGHHMMEE@@QEAAXXZ 0000000180087488     insertShapeUtilsCore.obj
 0002:0000b490       $unwind$?ProcessOneShape@?$DrawMarkerLine@GGHHMMEE@@QEAAXE@Z 0000000180087490     insertShapeUtilsCore.obj
 0002:0000b4a0       $unwind$??1?$DrawMarkerLine@GGHHMMEE@@UEAA@XZ 00000001800874a0     insertShapeUtilsCore.obj
 0002:0000b4a8       $unwind$??_G?$DrawMarkerLine@GGHHMMEE@@UEAAPEAXI@Z 00000001800874a8     insertShapeUtilsCore.obj
 0002:0000b4b0       $unwind$??0?$DrawRectangleAnySize@GGHHMME@@QEAA@PEAG00HHH0HPEAHHH1EEEPEAMHPEAE021@Z 00000001800874b0     insertShapeUtilsCore.obj
 0002:0000b4b8       $unwind$??1?$DrawRectangleAnySize@GGHHMME@@UEAA@XZ 00000001800874b8     insertShapeUtilsCore.obj
 0002:0000b4c0       $unwind$?ProcessStep@?$DrawRectangleAnySize@GGHHMME@@UEAAXXZ 00000001800874c0     insertShapeUtilsCore.obj
 0002:0000b4c8       $unwind$??_G?$DrawRectangleAnySize@GGHHMME@@UEAAPEAXI@Z 00000001800874c8     insertShapeUtilsCore.obj
 0002:0000b4d0       $unwind$??0?$DrawFilledPolygon@GGHHMMEH@@QEAA@PEAG00HHH0HPEAHHH1EEEPEAMHPEAE02PEAV?$ScanLineBase@HHH@@11@Z 00000001800874d0     insertShapeUtilsCore.obj
 0002:0000b4d8       $unwind$??1?$DrawFilledPolygon@GGHHMMEH@@UEAA@XZ 00000001800874d8     insertShapeUtilsCore.obj
 0002:0000b4e0       $unwind$?ProcessStep@?$DrawFilledPolygon@GGHHMMEH@@UEAAXXZ 00000001800874e0     insertShapeUtilsCore.obj
 0002:0000b4e8       $unwind$?nearest@?$DrawFilledPolygon@GGHHMMEH@@AEAAHM@Z 00000001800874e8     insertShapeUtilsCore.obj
 0002:0000b4f0       $unwind$?lclDSPFixptSqrt@?$DrawFilledPolygon@GGHHMMEH@@AEAAXAEAMM@Z 00000001800874f0     insertShapeUtilsCore.obj
 0002:0000b4f8       $unwind$?getLineParams@?$DrawFilledPolygon@GGHHMMEH@@AEAAXHHHHHHPEAMAEAW4Paral_T@@@Z 00000001800874f8     insertShapeUtilsCore.obj
 0002:0000b500       $unwind$?isValidPair@?$DrawFilledPolygon@GGHHMMEH@@AEAAEHHHHHHPEAM0W4Paral_T@@1@Z 0000000180087500     insertShapeUtilsCore.obj
 0002:0000b508       $unwind$?findPointOfIntersectionNormal@?$DrawFilledPolygon@GGHHMMEH@@AEAAXEPEAMAEAH1W4Paral_T@@@Z 0000000180087508     insertShapeUtilsCore.obj
 0002:0000b510       $unwind$?findPointOfIntersection@?$DrawFilledPolygon@GGHHMMEH@@AEAAXEPEAM0AEAH1W4Paral_T@@2HH@Z 0000000180087510     insertShapeUtilsCore.obj
 0002:0000b518       $unwind$?is_RightOfLine_CtrToRef@?$DrawFilledPolygon@GGHHMMEH@@AEAAEUXY_T@@00@Z 0000000180087518     insertShapeUtilsCore.obj
 0002:0000b520       $unwind$?convertLinePts2PolygonPts@?$DrawFilledPolygon@GGHHMMEH@@AEAAXXZ 0000000180087520     insertShapeUtilsCore.obj
 0002:0000b530       $unwind$?converPolygonPts2TwoPolygonPts@?$DrawFilledPolygon@GGHHMMEH@@AEAAXXZ 0000000180087530     insertShapeUtilsCore.obj
 0002:0000b540       $unwind$?ProcessStep@?$DrawFilledPolygon@GGHHMMEH@@AEAAXH@Z 0000000180087540     insertShapeUtilsCore.obj
 0002:0000b548       $unwind$??_G?$DrawFilledPolygon@GGHHMMEH@@UEAAPEAXI@Z 0000000180087548     insertShapeUtilsCore.obj
 0002:0000b550       $unwind$??0?$DrawFilledPolygon@GGHHMMEE@@QEAA@PEAG00HHH0HPEAHHH1EEEPEAMHPEAE02PEAV?$ScanLineBase@HHE@@11@Z 0000000180087550     insertShapeUtilsCore.obj
 0002:0000b558       $unwind$??1?$DrawFilledPolygon@GGHHMMEE@@UEAA@XZ 0000000180087558     insertShapeUtilsCore.obj
 0002:0000b560       $unwind$?ProcessStep@?$DrawFilledPolygon@GGHHMMEE@@UEAAXXZ 0000000180087560     insertShapeUtilsCore.obj
 0002:0000b568       $unwind$?nearest@?$DrawFilledPolygon@GGHHMMEE@@AEAAHM@Z 0000000180087568     insertShapeUtilsCore.obj
 0002:0000b570       $unwind$?lclDSPFixptSqrt@?$DrawFilledPolygon@GGHHMMEE@@AEAAXAEAMM@Z 0000000180087570     insertShapeUtilsCore.obj
 0002:0000b578       $unwind$?getLineParams@?$DrawFilledPolygon@GGHHMMEE@@AEAAXHHHHHHPEAMAEAW4Paral_T@@@Z 0000000180087578     insertShapeUtilsCore.obj
 0002:0000b580       $unwind$?isValidPair@?$DrawFilledPolygon@GGHHMMEE@@AEAAEHHHHHHPEAM0W4Paral_T@@1@Z 0000000180087580     insertShapeUtilsCore.obj
 0002:0000b588       $unwind$?findPointOfIntersectionNormal@?$DrawFilledPolygon@GGHHMMEE@@AEAAXEPEAMAEAH1W4Paral_T@@@Z 0000000180087588     insertShapeUtilsCore.obj
 0002:0000b590       $unwind$?findPointOfIntersection@?$DrawFilledPolygon@GGHHMMEE@@AEAAXEPEAM0AEAH1W4Paral_T@@2HH@Z 0000000180087590     insertShapeUtilsCore.obj
 0002:0000b598       $unwind$?is_RightOfLine_CtrToRef@?$DrawFilledPolygon@GGHHMMEE@@AEAAEUXY_T@@00@Z 0000000180087598     insertShapeUtilsCore.obj
 0002:0000b5a0       $unwind$?convertLinePts2PolygonPts@?$DrawFilledPolygon@GGHHMMEE@@AEAAXXZ 00000001800875a0     insertShapeUtilsCore.obj
 0002:0000b5b0       $unwind$?converPolygonPts2TwoPolygonPts@?$DrawFilledPolygon@GGHHMMEE@@AEAAXXZ 00000001800875b0     insertShapeUtilsCore.obj
 0002:0000b5c0       $unwind$?ProcessStep@?$DrawFilledPolygon@GGHHMMEE@@AEAAXE@Z 00000001800875c0     insertShapeUtilsCore.obj
 0002:0000b5c8       $unwind$??_G?$DrawFilledPolygon@GGHHMMEE@@UEAAPEAXI@Z 00000001800875c8     insertShapeUtilsCore.obj
 0002:0000b5d0       $unwind$??0?$DrawLine@GGHHMMEH@@QEAA@PEAG00HHH0HPEAHHH1EEEPEAMHPEAE02@Z 00000001800875d0     insertShapeUtilsCore.obj
 0002:0000b5d8       $unwind$??1?$DrawLine@GGHHMMEH@@UEAA@XZ 00000001800875d8     insertShapeUtilsCore.obj
 0002:0000b5e0       $unwind$?ProcessOneShape@?$DrawLine@GGHHMMEH@@QEAAXXZ 00000001800875e0     insertShapeUtilsCore.obj
 0002:0000b5e8       $unwind$?ProcessOneShape@?$DrawLine@GGHHMMEH@@QEAAXH@Z 00000001800875e8     insertShapeUtilsCore.obj
 0002:0000b5f8       $unwind$??_G?$DrawLine@GGHHMMEH@@UEAAPEAXI@Z 00000001800875f8     insertShapeUtilsCore.obj
 0002:0000b600       $unwind$??0?$DrawPolygon@GGHHMMEH@@QEAA@PEAG00HHH0HPEAHHH1EEEPEAMHPEAE0211@Z 0000000180087600     insertShapeUtilsCore.obj
 0002:0000b608       $unwind$??1?$DrawPolygon@GGHHMMEH@@UEAA@XZ 0000000180087608     insertShapeUtilsCore.obj
 0002:0000b610       $unwind$?ProcessStep@?$DrawPolygon@GGHHMMEH@@UEAAXXZ 0000000180087610     insertShapeUtilsCore.obj
 0002:0000b618       $unwind$??_G?$DrawPolygon@GGHHMMEH@@UEAAPEAXI@Z 0000000180087618     insertShapeUtilsCore.obj
 0002:0000b620       $unwind$??0?$DrawPolygon@GGHHMMEE@@QEAA@PEAG00HHH0HPEAHHH1EEEPEAMHPEAE0211@Z 0000000180087620     insertShapeUtilsCore.obj
 0002:0000b628       $unwind$??1?$DrawPolygon@GGHHMMEE@@UEAA@XZ 0000000180087628     insertShapeUtilsCore.obj
 0002:0000b630       $unwind$?ProcessStep@?$DrawPolygon@GGHHMMEE@@UEAAXXZ 0000000180087630     insertShapeUtilsCore.obj
 0002:0000b638       $unwind$??_G?$DrawPolygon@GGHHMMEE@@UEAAPEAXI@Z 0000000180087638     insertShapeUtilsCore.obj
 0002:0000b640       $unwind$??0?$DrawAnyLine@GGHHMMEH@@QEAA@PEAG00HHH0HPEAHHH1EEEPEAMHPEAE0211@Z 0000000180087640     insertShapeUtilsCore.obj
 0002:0000b648       $unwind$??1?$DrawAnyLine@GGHHMMEH@@UEAA@XZ 0000000180087648     insertShapeUtilsCore.obj
 0002:0000b650       $unwind$?ProcessStep@?$DrawAnyLine@GGHHMMEH@@UEAAXXZ 0000000180087650     insertShapeUtilsCore.obj
 0002:0000b658       $unwind$??_G?$DrawAnyLine@GGHHMMEH@@UEAAPEAXI@Z 0000000180087658     insertShapeUtilsCore.obj
 0002:0000b660       $unwind$??0?$DrawAnyLine@GGHHMMEE@@QEAA@PEAG00HHH0HPEAHHH1EEEPEAMHPEAE0211@Z 0000000180087660     insertShapeUtilsCore.obj
 0002:0000b668       $unwind$??1?$DrawAnyLine@GGHHMMEE@@UEAA@XZ 0000000180087668     insertShapeUtilsCore.obj
 0002:0000b670       $unwind$?ProcessStep@?$DrawAnyLine@GGHHMMEE@@UEAAXXZ 0000000180087670     insertShapeUtilsCore.obj
 0002:0000b678       $unwind$??_G?$DrawAnyLine@GGHHMMEE@@UEAAPEAXI@Z 0000000180087678     insertShapeUtilsCore.obj
 0002:0000b680       $unwind$??0?$DrawCircle@GGHHMMEHH@@QEAA@PEAG00HHH0HPEAHHH1EEEPEAMHPEAE02@Z 0000000180087680     insertShapeUtilsCore.obj
 0002:0000b688       $unwind$?ProcessOneShape@?$DrawCircle@GGHHMMEHH@@QEAAXXZ 0000000180087688     insertShapeUtilsCore.obj
 0002:0000b690       $unwind$?ProcessOneShape@?$DrawCircle@GGHHMMEHH@@AEAAXHHHHH@Z 0000000180087690     insertShapeUtilsCore.obj
 0002:0000b698       $unwind$?DrawLineAndResetStates@?$DrawCircle@GGHHMMEHH@@AEAAXHHAEAH0H@Z 0000000180087698     insertShapeUtilsCore.obj
 0002:0000b6a0       $unwind$??1?$DrawCircle@GGHHMMEHH@@UEAA@XZ 00000001800876a0     insertShapeUtilsCore.obj
 0002:0000b6a8       $unwind$??_G?$DrawCircle@GGHHMMEHH@@UEAAPEAXI@Z 00000001800876a8     insertShapeUtilsCore.obj
 0002:0000b6b0       $unwind$??0?$DrawCircleAnySize@GGHHMMEHH@@QEAA@PEAG00HHH0HPEAHHH1EEEPEAMHPEAE021@Z 00000001800876b0     insertShapeUtilsCore.obj
 0002:0000b6b8       $unwind$??1?$DrawCircleAnySize@GGHHMMEHH@@UEAA@XZ 00000001800876b8     insertShapeUtilsCore.obj
 0002:0000b6c0       $unwind$?ProcessStep@?$DrawCircleAnySize@GGHHMMEHH@@UEAAXXZ 00000001800876c0     insertShapeUtilsCore.obj
 0002:0000b6c8       $unwind$??_G?$DrawCircleAnySize@GGHHMMEHH@@UEAAPEAXI@Z 00000001800876c8     insertShapeUtilsCore.obj
 0002:0000b6d0       $unwind$??0?$DrawCircle@GGHHMMEEH@@QEAA@PEAG00HHH0HPEAHHH1EEEPEAMHPEAE02@Z 00000001800876d0     insertShapeUtilsCore.obj
 0002:0000b6d8       $unwind$?ProcessOneShape@?$DrawCircle@GGHHMMEEH@@QEAAXXZ 00000001800876d8     insertShapeUtilsCore.obj
 0002:0000b6e0       $unwind$?ProcessOneShape@?$DrawCircle@GGHHMMEEH@@AEAAXHHHEH@Z 00000001800876e0     insertShapeUtilsCore.obj
 0002:0000b6e8       $unwind$?DrawLineAndResetStates@?$DrawCircle@GGHHMMEEH@@AEAAXHHAEAH0H@Z 00000001800876e8     insertShapeUtilsCore.obj
 0002:0000b6f0       $unwind$??1?$DrawCircle@GGHHMMEEH@@UEAA@XZ 00000001800876f0     insertShapeUtilsCore.obj
 0002:0000b6f8       $unwind$??_G?$DrawCircle@GGHHMMEEH@@UEAAPEAXI@Z 00000001800876f8     insertShapeUtilsCore.obj
 0002:0000b700       $unwind$??0?$DrawCircleAnySize@GGHHMMEEH@@QEAA@PEAG00HHH0HPEAHHH1EEEPEAMHPEAE021@Z 0000000180087700     insertShapeUtilsCore.obj
 0002:0000b708       $unwind$??1?$DrawCircleAnySize@GGHHMMEEH@@UEAA@XZ 0000000180087708     insertShapeUtilsCore.obj
 0002:0000b710       $unwind$?ProcessStep@?$DrawCircleAnySize@GGHHMMEEH@@UEAAXXZ 0000000180087710     insertShapeUtilsCore.obj
 0002:0000b718       $unwind$??_G?$DrawCircleAnySize@GGHHMMEEH@@UEAAPEAXI@Z 0000000180087718     insertShapeUtilsCore.obj
 0002:0000b720       $unwind$??0?$DrawCircle@GGHHMMEHE@@QEAA@PEAG00HHH0HPEAHHH1EEEPEAMHPEAE02@Z 0000000180087720     insertShapeUtilsCore.obj
 0002:0000b728       $unwind$?ProcessOneShape@?$DrawCircle@GGHHMMEHE@@QEAAXXZ 0000000180087728     insertShapeUtilsCore.obj
 0002:0000b730       $unwind$?ProcessOneShape@?$DrawCircle@GGHHMMEHE@@AEAAXHHHHE@Z 0000000180087730     insertShapeUtilsCore.obj
 0002:0000b738       $unwind$??1?$DrawCircle@GGHHMMEHE@@UEAA@XZ 0000000180087738     insertShapeUtilsCore.obj
 0002:0000b740       $unwind$??_G?$DrawCircle@GGHHMMEHE@@UEAAPEAXI@Z 0000000180087740     insertShapeUtilsCore.obj
 0002:0000b748       $unwind$??0?$DrawCircleAnySize@GGHHMMEHE@@QEAA@PEAG00HHH0HPEAHHH1EEEPEAMHPEAE021@Z 0000000180087748     insertShapeUtilsCore.obj
 0002:0000b750       $unwind$??1?$DrawCircleAnySize@GGHHMMEHE@@UEAA@XZ 0000000180087750     insertShapeUtilsCore.obj
 0002:0000b758       $unwind$?ProcessStep@?$DrawCircleAnySize@GGHHMMEHE@@UEAAXXZ 0000000180087758     insertShapeUtilsCore.obj
 0002:0000b760       $unwind$??_G?$DrawCircleAnySize@GGHHMMEHE@@UEAAPEAXI@Z 0000000180087760     insertShapeUtilsCore.obj
 0002:0000b768       $unwind$??0?$DrawCircle@GGHHMMEEE@@QEAA@PEAG00HHH0HPEAHHH1EEEPEAMHPEAE02@Z 0000000180087768     insertShapeUtilsCore.obj
 0002:0000b770       $unwind$?ProcessOneShape@?$DrawCircle@GGHHMMEEE@@QEAAXXZ 0000000180087770     insertShapeUtilsCore.obj
 0002:0000b778       $unwind$?ProcessOneShape@?$DrawCircle@GGHHMMEEE@@AEAAXHHHEE@Z 0000000180087778     insertShapeUtilsCore.obj
 0002:0000b780       $unwind$?ProcessOneShape@?$DrawCircle@GGHHMMEEE@@AEAAXHHHEH@Z 0000000180087780     insertShapeUtilsCore.obj
 0002:0000b788       $unwind$?DrawLineAndResetStates@?$DrawCircle@GGHHMMEEE@@AEAAXHHAEAH0H@Z 0000000180087788     insertShapeUtilsCore.obj
 0002:0000b790       $unwind$??1?$DrawCircle@GGHHMMEEE@@UEAA@XZ 0000000180087790     insertShapeUtilsCore.obj
 0002:0000b798       $unwind$??_G?$DrawCircle@GGHHMMEEE@@UEAAPEAXI@Z 0000000180087798     insertShapeUtilsCore.obj
 0002:0000b7a0       $unwind$??0?$DrawCircleAnySize@GGHHMMEEE@@QEAA@PEAG00HHH0HPEAHHH1EEEPEAMHPEAE021@Z 00000001800877a0     insertShapeUtilsCore.obj
 0002:0000b7a8       $unwind$??1?$DrawCircleAnySize@GGHHMMEEE@@UEAA@XZ 00000001800877a8     insertShapeUtilsCore.obj
 0002:0000b7b0       $unwind$?ProcessStep@?$DrawCircleAnySize@GGHHMMEEE@@UEAAXXZ 00000001800877b0     insertShapeUtilsCore.obj
 0002:0000b7b8       $unwind$??_G?$DrawCircleAnySize@GGHHMMEEE@@UEAAPEAXI@Z 00000001800877b8     insertShapeUtilsCore.obj
 0002:0000b7c0       $unwind$??0?$DrawCommon@FFHHMMEH@@QEAA@PEAF00HHH0HPEAHHH1EEEPEAMHPEAE02@Z 00000001800877c0     insertShapeUtilsCore.obj
 0002:0000b7d0       $stateUnwindMap$??0?$DrawCommon@FFHHMMEH@@QEAA@PEAF00HHH0HPEAHHH1EEEPEAMHPEAE02@Z 00000001800877d0     insertShapeUtilsCore.obj
 0002:0000b7d8       $ip2state$??0?$DrawCommon@FFHHMMEH@@QEAA@PEAF00HHH0HPEAHHH1EEEPEAMHPEAE02@Z 00000001800877d8     insertShapeUtilsCore.obj
 0002:0000b7f0       $unwind$?dtor$0@?0???0?$DrawCommon@FFHHMMEH@@QEAA@PEAF00HHH0HPEAHHH1EEEPEAMHPEAE02@Z@4HA 00000001800877f0     insertShapeUtilsCore.obj
 0002:0000b7f8       $unwind$??1?$DrawCommon@FFHHMMEH@@UEAA@XZ 00000001800877f8     insertShapeUtilsCore.obj
 0002:0000b800       $unwind$?CleanUp@?$DrawCommon@FFHHMMEH@@UEAAXXZ 0000000180087800     insertShapeUtilsCore.obj
 0002:0000b808       $unwind$?UpdateImageBoundary@?$DrawCommon@FFHHMMEH@@UEAAXHH@Z 0000000180087808     insertShapeUtilsCore.obj
 0002:0000b810       $unwind$?UpdateViewPort@?$DrawCommon@FFHHMMEH@@UEAAXPEAH@Z 0000000180087810     insertShapeUtilsCore.obj
 0002:0000b818       $unwind$?UpdateFillColorOpacity@?$DrawCommon@FFHHMMEH@@UEAAXE@Z 0000000180087818     insertShapeUtilsCore.obj
 0002:0000b820       $unwind$?MoveToNextFillColor@?$DrawCommon@FFHHMMEH@@IEAAXXZ 0000000180087820     insertShapeUtilsCore.obj
 0002:0000b828       $unwind$?MoveToNextOpacity@?$DrawCommon@FFHHMMEH@@IEAAXXZ 0000000180087828     insertShapeUtilsCore.obj
 0002:0000b830       $unwind$?PlotSubPixels@?$DrawCommon@FFHHMMEH@@IEAAXHHHHH@Z 0000000180087830     insertShapeUtilsCore.obj
 0002:0000b838       $unwind$?PlotVerticalLine@?$DrawCommon@FFHHMMEH@@IEAAXHHHHH@Z 0000000180087838     insertShapeUtilsCore.obj
 0002:0000b840       $unwind$?PlotVerticalLineCheckRange@?$DrawCommon@FFHHMMEH@@IEAAXHHHHH@Z 0000000180087840     insertShapeUtilsCore.obj
 0002:0000b848       $unwind$?CountSubPixel@?$DrawCommon@FFHHMMEH@@IEAAXHHHHAEAH0HH@Z 0000000180087848     insertShapeUtilsCore.obj
 0002:0000b850       $unwind$?PlotVerticalLine@?$DrawCommon@FFHHMMEH@@AEAAXHHHHHE@Z 0000000180087850     insertShapeUtilsCore.obj
 0002:0000b858       $unwind$?PlotVerticalLineOneColor@?$DrawCommon@FFHHMMEH@@AEAAXPEAFHHHHH@Z 0000000180087858     insertShapeUtilsCore.obj
 0002:0000b860       $unwind$?PlotSubPixels@?$DrawCommon@FFHHMMEH@@AEAAXHHHHHE@Z 0000000180087860     insertShapeUtilsCore.obj
 0002:0000b868       $unwind$?PlotSubPixelsOneColor@?$DrawCommon@FFHHMMEH@@AEAAXPEAFHHHHH@Z 0000000180087868     insertShapeUtilsCore.obj
 0002:0000b870       $unwind$?PlotOneSubPixelOneColor@?$DrawCommon@FFHHMMEH@@AEAAXPEAFHEHH@Z 0000000180087870     insertShapeUtilsCore.obj
 0002:0000b878       $unwind$?IsMoreClr@?$DrawCommon@FFHHMMEH@@AEAAHH@Z 0000000180087878     insertShapeUtilsCore.obj
 0002:0000b880       $unwind$??_G?$DrawCommon@FFHHMMEH@@UEAAPEAXI@Z 0000000180087880     insertShapeUtilsCore.obj
 0002:0000b888       $unwind$??0?$DrawFilledRectangle@FFHHMME@@QEAA@PEAF00HHH0HPEAHHH1EEEPEAMHPEAE02@Z 0000000180087888     insertShapeUtilsCore.obj
 0002:0000b890       $unwind$?ProcessOneShape@?$DrawFilledRectangle@FFHHMME@@QEAAXXZ 0000000180087890     insertShapeUtilsCore.obj
 0002:0000b8a0       $unwind$??1?$DrawFilledRectangle@FFHHMME@@UEAA@XZ 00000001800878a0     insertShapeUtilsCore.obj
 0002:0000b8a8       $unwind$??_G?$DrawFilledRectangle@FFHHMME@@UEAAPEAXI@Z 00000001800878a8     insertShapeUtilsCore.obj
 0002:0000b8b0       $unwind$??0?$DrawFilledRectangleAnySize@FFHHMME@@QEAA@PEAF00HHH0HPEAHHH1EEEPEAMHPEAE02PEBH@Z 00000001800878b0     insertShapeUtilsCore.obj
 0002:0000b8b8       $unwind$??1?$DrawFilledRectangleAnySize@FFHHMME@@UEAA@XZ 00000001800878b8     insertShapeUtilsCore.obj
 0002:0000b8c0       $unwind$?ProcessStep@?$DrawFilledRectangleAnySize@FFHHMME@@UEAAXXZ 00000001800878c0     insertShapeUtilsCore.obj
 0002:0000b8c8       $unwind$??_G?$DrawFilledRectangleAnySize@FFHHMME@@UEAAPEAXI@Z 00000001800878c8     insertShapeUtilsCore.obj
 0002:0000b8d0       $unwind$??0?$DrawCommon@FFHHMMEE@@QEAA@PEAF00HHH0HPEAHHH1EEEPEAMHPEAE02@Z 00000001800878d0     insertShapeUtilsCore.obj
 0002:0000b8e0       $stateUnwindMap$??0?$DrawCommon@FFHHMMEE@@QEAA@PEAF00HHH0HPEAHHH1EEEPEAMHPEAE02@Z 00000001800878e0     insertShapeUtilsCore.obj
 0002:0000b8e8       $ip2state$??0?$DrawCommon@FFHHMMEE@@QEAA@PEAF00HHH0HPEAHHH1EEEPEAMHPEAE02@Z 00000001800878e8     insertShapeUtilsCore.obj
 0002:0000b900       $unwind$?dtor$0@?0???0?$DrawCommon@FFHHMMEE@@QEAA@PEAF00HHH0HPEAHHH1EEEPEAMHPEAE02@Z@4HA 0000000180087900     insertShapeUtilsCore.obj
 0002:0000b908       $unwind$??1?$DrawCommon@FFHHMMEE@@UEAA@XZ 0000000180087908     insertShapeUtilsCore.obj
 0002:0000b910       $unwind$?CleanUp@?$DrawCommon@FFHHMMEE@@UEAAXXZ 0000000180087910     insertShapeUtilsCore.obj
 0002:0000b918       $unwind$?UpdateImageBoundary@?$DrawCommon@FFHHMMEE@@UEAAXHH@Z 0000000180087918     insertShapeUtilsCore.obj
 0002:0000b920       $unwind$?UpdateViewPort@?$DrawCommon@FFHHMMEE@@UEAAXPEAH@Z 0000000180087920     insertShapeUtilsCore.obj
 0002:0000b928       $unwind$?UpdateFillColorOpacity@?$DrawCommon@FFHHMMEE@@UEAAXE@Z 0000000180087928     insertShapeUtilsCore.obj
 0002:0000b930       $unwind$?MoveToNextFillColor@?$DrawCommon@FFHHMMEE@@IEAAXXZ 0000000180087930     insertShapeUtilsCore.obj
 0002:0000b938       $unwind$?MoveToNextOpacity@?$DrawCommon@FFHHMMEE@@IEAAXXZ 0000000180087938     insertShapeUtilsCore.obj
 0002:0000b940       $unwind$?PlotOnePixel@?$DrawCommon@FFHHMMEE@@IEAAXHH@Z 0000000180087940     insertShapeUtilsCore.obj
 0002:0000b948       $unwind$?PlotPixelsCheckRange@?$DrawCommon@FFHHMMEE@@IEAAXHHH@Z 0000000180087948     insertShapeUtilsCore.obj
 0002:0000b950       $unwind$?PlotSubPixels@?$DrawCommon@FFHHMMEE@@IEAAXHHHHH@Z 0000000180087950     insertShapeUtilsCore.obj
 0002:0000b958       $unwind$?PlotSubPixels@?$DrawCommon@FFHHMMEE@@IEAAXHEHH@Z 0000000180087958     insertShapeUtilsCore.obj
 0002:0000b960       $unwind$?CountSubPixel@?$DrawCommon@FFHHMMEE@@IEAAXHHHHAEAH0HH@Z 0000000180087960     insertShapeUtilsCore.obj
 0002:0000b968       $unwind$?PlotOnePixel@?$DrawCommon@FFHHMMEE@@AEAAXHHE@Z 0000000180087968     insertShapeUtilsCore.obj
 0002:0000b970       $unwind$?PlotSubPixels@?$DrawCommon@FFHHMMEE@@AEAAXHHHHHE@Z 0000000180087970     insertShapeUtilsCore.obj
 0002:0000b978       $unwind$?PlotSubPixelsOneColor@?$DrawCommon@FFHHMMEE@@AEAAXPEAFHHHHH@Z 0000000180087978     insertShapeUtilsCore.obj
 0002:0000b980       $unwind$?PlotSubPixels@?$DrawCommon@FFHHMMEE@@AEAAXHEHHE@Z 0000000180087980     insertShapeUtilsCore.obj
 0002:0000b988       $unwind$?PlotOneSubPixelOneColor@?$DrawCommon@FFHHMMEE@@AEAAXPEAFHEHH@Z 0000000180087988     insertShapeUtilsCore.obj
 0002:0000b990       $unwind$?IsMoreClr@?$DrawCommon@FFHHMMEE@@AEAAHH@Z 0000000180087990     insertShapeUtilsCore.obj
 0002:0000b998       $unwind$??_G?$DrawCommon@FFHHMMEE@@UEAAPEAXI@Z 0000000180087998     insertShapeUtilsCore.obj
 0002:0000b9a0       $unwind$??0?$DrawLine@FFHHMMEE@@QEAA@PEAF00HHH0HPEAHHH1EEEPEAMHPEAE02@Z 00000001800879a0     insertShapeUtilsCore.obj
 0002:0000b9a8       $unwind$??1?$DrawLine@FFHHMMEE@@UEAA@XZ 00000001800879a8     insertShapeUtilsCore.obj
 0002:0000b9b0       $unwind$?ProcessOneShape@?$DrawLine@FFHHMMEE@@QEAAXXZ 00000001800879b0     insertShapeUtilsCore.obj
 0002:0000b9b8       $unwind$?ProcessOneShape@?$DrawLine@FFHHMMEE@@QEAAXE@Z 00000001800879b8     insertShapeUtilsCore.obj
 0002:0000b9c8       $unwind$??_G?$DrawLine@FFHHMMEE@@UEAAPEAXI@Z 00000001800879c8     insertShapeUtilsCore.obj
 0002:0000b9d0       $unwind$??0?$DrawMarkerLine@FFHHMMEE@@QEAA@PEAF00HHH0HPEAHHH1EEEPEAMHPEAE02@Z 00000001800879d0     insertShapeUtilsCore.obj
 0002:0000b9d8       $unwind$?ProcessOneShape@?$DrawMarkerLine@FFHHMMEE@@QEAAXXZ 00000001800879d8     insertShapeUtilsCore.obj
 0002:0000b9e0       $unwind$?ProcessOneShape@?$DrawMarkerLine@FFHHMMEE@@QEAAXE@Z 00000001800879e0     insertShapeUtilsCore.obj
 0002:0000b9f0       $unwind$??1?$DrawMarkerLine@FFHHMMEE@@UEAA@XZ 00000001800879f0     insertShapeUtilsCore.obj
 0002:0000b9f8       $unwind$??_G?$DrawMarkerLine@FFHHMMEE@@UEAAPEAXI@Z 00000001800879f8     insertShapeUtilsCore.obj
 0002:0000ba00       $unwind$??0?$DrawRectangleAnySize@FFHHMME@@QEAA@PEAF00HHH0HPEAHHH1EEEPEAMHPEAE021@Z 0000000180087a00     insertShapeUtilsCore.obj
 0002:0000ba08       $unwind$??1?$DrawRectangleAnySize@FFHHMME@@UEAA@XZ 0000000180087a08     insertShapeUtilsCore.obj
 0002:0000ba10       $unwind$?ProcessStep@?$DrawRectangleAnySize@FFHHMME@@UEAAXXZ 0000000180087a10     insertShapeUtilsCore.obj
 0002:0000ba18       $unwind$??_G?$DrawRectangleAnySize@FFHHMME@@UEAAPEAXI@Z 0000000180087a18     insertShapeUtilsCore.obj
 0002:0000ba20       $unwind$??0?$DrawFilledPolygon@FFHHMMEH@@QEAA@PEAF00HHH0HPEAHHH1EEEPEAMHPEAE02PEAV?$ScanLineBase@HHH@@11@Z 0000000180087a20     insertShapeUtilsCore.obj
 0002:0000ba28       $unwind$??1?$DrawFilledPolygon@FFHHMMEH@@UEAA@XZ 0000000180087a28     insertShapeUtilsCore.obj
 0002:0000ba30       $unwind$?ProcessStep@?$DrawFilledPolygon@FFHHMMEH@@UEAAXXZ 0000000180087a30     insertShapeUtilsCore.obj
 0002:0000ba38       $unwind$?nearest@?$DrawFilledPolygon@FFHHMMEH@@AEAAHM@Z 0000000180087a38     insertShapeUtilsCore.obj
 0002:0000ba40       $unwind$?lclDSPFixptSqrt@?$DrawFilledPolygon@FFHHMMEH@@AEAAXAEAMM@Z 0000000180087a40     insertShapeUtilsCore.obj
 0002:0000ba48       $unwind$?getLineParams@?$DrawFilledPolygon@FFHHMMEH@@AEAAXHHHHHHPEAMAEAW4Paral_T@@@Z 0000000180087a48     insertShapeUtilsCore.obj
 0002:0000ba50       $unwind$?isValidPair@?$DrawFilledPolygon@FFHHMMEH@@AEAAEHHHHHHPEAM0W4Paral_T@@1@Z 0000000180087a50     insertShapeUtilsCore.obj
 0002:0000ba58       $unwind$?findPointOfIntersectionNormal@?$DrawFilledPolygon@FFHHMMEH@@AEAAXEPEAMAEAH1W4Paral_T@@@Z 0000000180087a58     insertShapeUtilsCore.obj
 0002:0000ba60       $unwind$?findPointOfIntersection@?$DrawFilledPolygon@FFHHMMEH@@AEAAXEPEAM0AEAH1W4Paral_T@@2HH@Z 0000000180087a60     insertShapeUtilsCore.obj
 0002:0000ba68       $unwind$?is_RightOfLine_CtrToRef@?$DrawFilledPolygon@FFHHMMEH@@AEAAEUXY_T@@00@Z 0000000180087a68     insertShapeUtilsCore.obj
 0002:0000ba70       $unwind$?convertLinePts2PolygonPts@?$DrawFilledPolygon@FFHHMMEH@@AEAAXXZ 0000000180087a70     insertShapeUtilsCore.obj
 0002:0000ba80       $unwind$?converPolygonPts2TwoPolygonPts@?$DrawFilledPolygon@FFHHMMEH@@AEAAXXZ 0000000180087a80     insertShapeUtilsCore.obj
 0002:0000ba90       $unwind$?ProcessStep@?$DrawFilledPolygon@FFHHMMEH@@AEAAXH@Z 0000000180087a90     insertShapeUtilsCore.obj
 0002:0000ba98       $unwind$??_G?$DrawFilledPolygon@FFHHMMEH@@UEAAPEAXI@Z 0000000180087a98     insertShapeUtilsCore.obj
 0002:0000baa0       $unwind$??0?$DrawFilledPolygon@FFHHMMEE@@QEAA@PEAF00HHH0HPEAHHH1EEEPEAMHPEAE02PEAV?$ScanLineBase@HHE@@11@Z 0000000180087aa0     insertShapeUtilsCore.obj
 0002:0000baa8       $unwind$??1?$DrawFilledPolygon@FFHHMMEE@@UEAA@XZ 0000000180087aa8     insertShapeUtilsCore.obj
 0002:0000bab0       $unwind$?ProcessStep@?$DrawFilledPolygon@FFHHMMEE@@UEAAXXZ 0000000180087ab0     insertShapeUtilsCore.obj
 0002:0000bab8       $unwind$?nearest@?$DrawFilledPolygon@FFHHMMEE@@AEAAHM@Z 0000000180087ab8     insertShapeUtilsCore.obj
 0002:0000bac0       $unwind$?lclDSPFixptSqrt@?$DrawFilledPolygon@FFHHMMEE@@AEAAXAEAMM@Z 0000000180087ac0     insertShapeUtilsCore.obj
 0002:0000bac8       $unwind$?getLineParams@?$DrawFilledPolygon@FFHHMMEE@@AEAAXHHHHHHPEAMAEAW4Paral_T@@@Z 0000000180087ac8     insertShapeUtilsCore.obj
 0002:0000bad0       $unwind$?isValidPair@?$DrawFilledPolygon@FFHHMMEE@@AEAAEHHHHHHPEAM0W4Paral_T@@1@Z 0000000180087ad0     insertShapeUtilsCore.obj
 0002:0000bad8       $unwind$?findPointOfIntersectionNormal@?$DrawFilledPolygon@FFHHMMEE@@AEAAXEPEAMAEAH1W4Paral_T@@@Z 0000000180087ad8     insertShapeUtilsCore.obj
 0002:0000bae0       $unwind$?findPointOfIntersection@?$DrawFilledPolygon@FFHHMMEE@@AEAAXEPEAM0AEAH1W4Paral_T@@2HH@Z 0000000180087ae0     insertShapeUtilsCore.obj
 0002:0000bae8       $unwind$?is_RightOfLine_CtrToRef@?$DrawFilledPolygon@FFHHMMEE@@AEAAEUXY_T@@00@Z 0000000180087ae8     insertShapeUtilsCore.obj
 0002:0000baf0       $unwind$?convertLinePts2PolygonPts@?$DrawFilledPolygon@FFHHMMEE@@AEAAXXZ 0000000180087af0     insertShapeUtilsCore.obj
 0002:0000bb00       $unwind$?converPolygonPts2TwoPolygonPts@?$DrawFilledPolygon@FFHHMMEE@@AEAAXXZ 0000000180087b00     insertShapeUtilsCore.obj
 0002:0000bb10       $unwind$?ProcessStep@?$DrawFilledPolygon@FFHHMMEE@@AEAAXE@Z 0000000180087b10     insertShapeUtilsCore.obj
 0002:0000bb18       $unwind$??_G?$DrawFilledPolygon@FFHHMMEE@@UEAAPEAXI@Z 0000000180087b18     insertShapeUtilsCore.obj
 0002:0000bb20       $unwind$??0?$DrawLine@FFHHMMEH@@QEAA@PEAF00HHH0HPEAHHH1EEEPEAMHPEAE02@Z 0000000180087b20     insertShapeUtilsCore.obj
 0002:0000bb28       $unwind$??1?$DrawLine@FFHHMMEH@@UEAA@XZ 0000000180087b28     insertShapeUtilsCore.obj
 0002:0000bb30       $unwind$?ProcessOneShape@?$DrawLine@FFHHMMEH@@QEAAXXZ 0000000180087b30     insertShapeUtilsCore.obj
 0002:0000bb38       $unwind$?ProcessOneShape@?$DrawLine@FFHHMMEH@@QEAAXH@Z 0000000180087b38     insertShapeUtilsCore.obj
 0002:0000bb48       $unwind$??_G?$DrawLine@FFHHMMEH@@UEAAPEAXI@Z 0000000180087b48     insertShapeUtilsCore.obj
 0002:0000bb50       $unwind$??0?$DrawPolygon@FFHHMMEH@@QEAA@PEAF00HHH0HPEAHHH1EEEPEAMHPEAE0211@Z 0000000180087b50     insertShapeUtilsCore.obj
 0002:0000bb58       $unwind$??1?$DrawPolygon@FFHHMMEH@@UEAA@XZ 0000000180087b58     insertShapeUtilsCore.obj
 0002:0000bb60       $unwind$?ProcessStep@?$DrawPolygon@FFHHMMEH@@UEAAXXZ 0000000180087b60     insertShapeUtilsCore.obj
 0002:0000bb68       $unwind$??_G?$DrawPolygon@FFHHMMEH@@UEAAPEAXI@Z 0000000180087b68     insertShapeUtilsCore.obj
 0002:0000bb70       $unwind$??0?$DrawPolygon@FFHHMMEE@@QEAA@PEAF00HHH0HPEAHHH1EEEPEAMHPEAE0211@Z 0000000180087b70     insertShapeUtilsCore.obj
 0002:0000bb78       $unwind$??1?$DrawPolygon@FFHHMMEE@@UEAA@XZ 0000000180087b78     insertShapeUtilsCore.obj
 0002:0000bb80       $unwind$?ProcessStep@?$DrawPolygon@FFHHMMEE@@UEAAXXZ 0000000180087b80     insertShapeUtilsCore.obj
